 Achims_C-Test_241115

 Timestamp is 67547f49 (Sat Dec  7 18:00:57 2024)

 Preferred load address is 00400000

 Start         Length     Name                   Class
 0001:00000000 00069c92H .text$mn                CODE
 0001:00069c92 0000121cH .text$x                 CODE
 0002:00000000 00000104H .CRT$XCA                DATA
 0002:00000104 00000104H .CRT$XCAA               DATA
 0002:00000208 00000104H .CRT$XCZ                DATA
 0002:0000030c 00000104H .CRT$XIA                DATA
 0002:00000410 00000104H .CRT$XIAA               DATA
 0002:00000514 00000104H .CRT$XIAC               DATA
 0002:00000618 00000114H .CRT$XIC                DATA
 0002:0000072c 00000104H .CRT$XIZ                DATA
 0002:00000830 00000104H .CRT$XPA                DATA
 0002:00000934 0000010cH .CRT$XPX                DATA
 0002:00000a40 00000104H .CRT$XPXA               DATA
 0002:00000b44 00000104H .CRT$XPZ                DATA
 0002:00000c48 00000104H .CRT$XTA                DATA
 0002:00000d4c 00000104H .CRT$XTZ                DATA
 0002:00000e50 00009370H .rdata                  DATA
 0002:0000a1c0 00000180H .rdata$CastGuardVftablesA DATA
 0002:0000a340 0000014cH .rdata$CastGuardVftablesC DATA
 0002:0000a48c 00000444H .rdata$r                DATA
 0002:0000a8d0 00000160H .rdata$sxdata           DATA
 0002:0000aa30 00000190H .rdata$zzzdbg           DATA
 0002:0000abc0 00000104H .rtc$IAA                DATA
 0002:0000acc4 00000104H .rtc$IZZ                DATA
 0002:0000adc8 00000104H .rtc$TAA                DATA
 0002:0000aecc 00000104H .rtc$TZZ                DATA
 0002:0000afd0 00000e14H .xdata$x                DATA
 0002:0000bde4 00000000H .edata                  DATA
 0003:00000000 00001c40H .data                   DATA
 0003:00001c40 00000170H .data$r                 DATA
 0003:00001db0 000001d8H .data$rs                DATA
 0003:00001f88 000016d0H .bss                    DATA
 0004:00000000 000001b4H .idata$5                DATA
 0004:000001b4 00000014H .idata$2                DATA
 0004:000001c8 00000014H .idata$3                DATA
 0004:000001dc 000001b4H .idata$4                DATA
 0004:00000390 000007a9H .idata$6                DATA
 0005:00000000 0000010eH .00cfg                  DATA

  Address         Publics by Value              Rva+Base       Lib:Object

 0000:00000000       ___AbsoluteZero            00000000     <absolute>
 0000:00000000       ___arm64x_extra_rfe_table  00000000     <absolute>
 0000:00000000       ___arm64x_extra_rfe_table_size 00000000     <absolute>
 0000:00000000       ___arm64x_native_entrypoint 00000000     <absolute>
 0000:00000000       ___arm64x_redirection_metadata 00000000     <absolute>
 0000:00000000       ___arm64x_redirection_metadata_count 00000000     <absolute>
 0000:00000000       ___dynamic_value_reloc_table 00000000     <absolute>
 0000:00000000       ___enclave_config          00000000     <absolute>
 0000:00000000       ___guard_check_icall_a64n_fptr 00000000     <absolute>
 0000:00000000       ___guard_eh_cont_count     00000000     <absolute>
 0000:00000000       ___guard_eh_cont_table     00000000     <absolute>
 0000:00000000       ___guard_fids_count        00000000     <absolute>
 0000:00000000       ___guard_fids_table        00000000     <absolute>
 0000:00000000       ___guard_iat_count         00000000     <absolute>
 0000:00000000       ___guard_iat_table         00000000     <absolute>
 0000:00000000       ___guard_longjmp_count     00000000     <absolute>
 0000:00000000       ___guard_longjmp_table     00000000     <absolute>
 0000:00000000       ___hybrid_auxiliary_delayload_iat 00000000     <absolute>
 0000:00000000       ___hybrid_auxiliary_delayload_iat_copy 00000000     <absolute>
 0000:00000000       ___hybrid_auxiliary_iat    00000000     <absolute>
 0000:00000000       ___hybrid_auxiliary_iat_copy 00000000     <absolute>
 0000:00000000       ___hybrid_code_map         00000000     <absolute>
 0000:00000000       ___hybrid_code_map_count   00000000     <absolute>
 0000:00000000       ___hybrid_image_info_bitfield 00000000     <absolute>
 0000:00000000       ___volatile_metadata       00000000     <absolute>
 0000:00000000       ___x64_code_ranges_to_entry_points 00000000     <absolute>
 0000:00000000       ___x64_code_ranges_to_entry_points_count 00000000     <absolute>
 0000:00000000       __except_list              00000000     <absolute>
 0000:00000014       ___safe_se_handler_count   00000014     <absolute>
 0000:00000100       ___guard_flags             00000100     <absolute>
 0000:00000000       ___ImageBase               00400000     <linker-defined>
 0001:00006510       _word_is_allowed           00407510 f   Achims_C-Test_241115.obj
 0001:00006630       _is_character_unmarked     00407630 f   Achims_C-Test_241115.obj
 0001:000066b0       _update_state              004076b0 f   Achims_C-Test_241115.obj
 0001:000067c0       _get_input                 004077c0 f   Achims_C-Test_241115.obj
 0001:00006990       _print_result              00407990 f   Achims_C-Test_241115.obj
 0001:00006a60       _another_round             00407a60 f   Achims_C-Test_241115.obj
 0001:00006b20       _main                      00407b20 f   Achims_C-Test_241115.obj
 0001:00007510       ___local_stdio_printf_options 00408510 f i Achims_C-Test_241115.obj
 0001:00007520       __vfprintf_l               00408520 f i Achims_C-Test_241115.obj
 0001:00007560       _fprintf                   00408560 f i Achims_C-Test_241115.obj
 0001:000075a0       _printf                    004085a0 f i Achims_C-Test_241115.obj
 0001:000075f0       _getopt                    004085f0 f   getopt.obj
 0001:00007610       _getopt_long               00408610 f   getopt.obj
 0001:00007640       _getopt_long_only          00408640 f   getopt.obj
 0001:00008660       _vfprintf                  00409660 f i getopt.obj
 0001:00008681       @__security_check_cookie@4 00409681 f   LIBCMT:secchk.obj
 0001:00008975       ?configure_argv@__scrt_narrow_argv_policy@@SAHXZ 00409975 f i LIBCMT:exe_main.obj
 0001:00008985       ?initialize_environment@__scrt_narrow_environment_policy@@SAHXZ 00409985 f i LIBCMT:exe_main.obj
 0001:000089b7       ?set_app_type@__scrt_main_policy@@SAXXZ 004099b7 f i LIBCMT:exe_main.obj
 0001:000089c2       ?set_commode@__scrt_file_policy@@SAXXZ 004099c2 f i LIBCMT:exe_main.obj
 0001:000089d7       ?set_fmode@__scrt_file_policy@@SAXXZ 004099d7 f i LIBCMT:exe_main.obj
 0001:000089e7       _mainCRTStartup            004099e7 f   LIBCMT:exe_main.obj
 0001:000089f3       ___raise_securityfailure   004099f3 f   LIBCMT:gs_report.obj
 0001:00008a25       ___report_gsfailure        00409a25 f   LIBCMT:gs_report.obj
 0001:00008b5e       ___report_rangecheckfailure 00409b5e f   LIBCMT:gs_report.obj
 0001:00008b6e       ___report_securityfailure  00409b6e f   LIBCMT:gs_report.obj
 0001:00008c72       ___report_securityfailureEx 00409c72 f   LIBCMT:gs_report.obj
 0001:00008e5e       _NtCurrentTeb              00409e5e f i LIBCMT:utility.obj
 0001:00008e65       ___scrt_acquire_startup_lock 00409e65 f   LIBCMT:utility.obj
 0001:00008ea3       ___scrt_dllmain_after_initialize_c 00409ea3 f   LIBCMT:utility.obj
 0001:00008ed8       ___scrt_dllmain_before_initialize_c 00409ed8 f   LIBCMT:utility.obj
 0001:00008ee9       ___scrt_dllmain_crt_thread_attach 00409ee9 f   LIBCMT:utility.obj
 0001:00008f0f       ___scrt_dllmain_crt_thread_detach 00409f0f f   LIBCMT:utility.obj
 0001:00008f1f       ___scrt_dllmain_exception_filter 00409f1f f   LIBCMT:utility.obj
 0001:00008f60       ___scrt_dllmain_uninitialize_c 00409f60 f   LIBCMT:utility.obj
 0001:00008f8b       ___scrt_dllmain_uninitialize_critical 00409f8b f   LIBCMT:utility.obj
 0001:00008f9b       ___scrt_initialize_crt     00409f9b f   LIBCMT:utility.obj
 0001:00008fe2       ___scrt_initialize_onexit_tables 00409fe2 f   LIBCMT:utility.obj
 0001:0000908a       ___scrt_is_nonwritable_in_current_image 0040a08a f   LIBCMT:utility.obj
 0001:00009143       ___scrt_release_startup_lock 0040a143 f   LIBCMT:utility.obj
 0001:00009167       ___scrt_uninitialize_crt   0040a167 f   LIBCMT:utility.obj
 0001:00009199       __onexit                   0040a199 f   LIBCMT:utility.obj
 0001:000091d2       _at_quick_exit             0040a1d2 f   LIBCMT:utility.obj
 0001:000091fd       _atexit                    0040a1fd f   LIBCMT:utility.obj
 0001:00009277       ___security_init_cookie    0040a277 f   LIBCMT:gs_support.obj
 0001:000092d4       __matherr                  0040a2d4 f   LIBCMT:matherr.obj
 0001:000092d7       __get_startup_argv_mode    0040a2d7 f   LIBCMT:argv_mode.obj
 0001:000092db       __get_startup_commit_mode  0040a2db f   LIBCMT:commit_mode.obj
 0001:000092de       __get_startup_file_mode    0040a2de f   LIBCMT:file_mode.obj
 0001:000092e4       __get_startup_new_mode     0040a2e4 f   LIBCMT:new_mode.obj
 0001:000092e7       __get_startup_thread_locale_mode 0040a2e7 f   LIBCMT:thread_locale.obj
 0001:000092ea       ?__scrt_initialize_type_info@@YAXXZ 0040a2ea f   LIBCMT:tncleanup.obj
 0001:000092f9       ?__scrt_uninitialize_type_info@@YAXXZ 0040a2f9 f   LIBCMT:tncleanup.obj
 0001:00009308       __should_initialize_environment 0040a308 f   LIBCMT:env_mode.obj
 0001:0000930b       __initialize_default_precision 0040a30b f   LIBCMT:default_precision.obj
 0001:00009334       __initialize_invalid_parameter_handler 0040a334 f   LIBCMT:invalid_parameter_handler.obj
 0001:00009337       __initialize_denormal_control 0040a337 f   LIBCMT:denormal_control.obj
 0001:0000933a       ___local_stdio_scanf_options 0040a33a f i LIBCMT:default_local_stdio_options.obj
 0001:00009340       ___scrt_initialize_default_local_stdio_options 0040a340 f   LIBCMT:default_local_stdio_options.obj
 0001:00009364       ___scrt_is_user_matherr_present 0040a364 f   LIBCMT:matherr_detection.obj
 0001:00009373       ___scrt_get_dyn_tls_init_callback 0040a373 f   LIBCMT:dyn_tls_init.obj
 0001:00009379       ___scrt_get_dyn_tls_dtor_callback 0040a379 f   LIBCMT:dyn_tls_dtor.obj
 0001:0000937f       ___scrt_fastfail           0040a37f f   LIBCMT:utility_desktop.obj
 0001:000094d9       ___scrt_get_show_window_mode 0040a4d9 f   LIBCMT:utility_desktop.obj
 0001:00009515       ___scrt_initialize_mta     0040a515 f   LIBCMT:utility_desktop.obj
 0001:0000951a       ___scrt_initialize_winrt   0040a51a f   LIBCMT:utility_desktop.obj
 0001:0000951d       ___scrt_is_managed_app     0040a51d f   LIBCMT:utility_desktop.obj
 0001:0000956f       ___scrt_set_unhandled_exception_filter 0040a56f f   LIBCMT:utility_desktop.obj
 0001:0000957e       ___scrt_exe_initialize_mta 0040a57e f   LIBCMT:utility_desktop.obj
 0001:0000957e       ___scrt_stub_for_initialize_mta 0040a57e f   LIBCMT:utility_desktop.obj
 0001:00009581       ___scrt_unhandled_exception_filter@4 0040a581 f   LIBCMT:utility_desktop.obj
 0001:000095ec       __crt_debugger_hook        0040a5ec f   LIBCMT:utility_desktop.obj
 0001:000095f6       __RTC_Initialize           0040a5f6 f   LIBCMT:initsect.obj
 0001:0000962d       __RTC_Terminate            0040a62d f   LIBCMT:initsect.obj
 0001:00009670       __SEH_prolog4              0040a670 f   LIBCMT:sehprolg4.obj
 0001:000096d0       __SEH_epilog4              0040a6d0 f   LIBCMT:sehprolg4.obj
 0001:000096e9       @_guard_check_icall_nop@4  0040a6e9 f i LIBCMT:guard_support.obj
 0001:000096ec       _ReadNoFence               0040a6ec f i LIBCMT:guard_support.obj
 0001:000096f8       _ReadPointerNoFence        0040a6f8 f i LIBCMT:guard_support.obj
 0001:00009704       __InlineInterlockedExchangePointer 0040a704 f i LIBCMT:guard_support.obj
 0001:00009714       ___castguard_check_failure_debugbreak 0040a714 f i LIBCMT:guard_support.obj
 0001:00009735       ___castguard_check_failure_fastfail 0040a735 f i LIBCMT:guard_support.obj
 0001:0000975b       ___castguard_check_failure_nop 0040a75b f i LIBCMT:guard_support.obj
 0001:0000975e       ___castguard_check_failure_os_handled 0040a75e f i LIBCMT:guard_support.obj
 0001:000097a2       ___castguard_check_failure_user_handled 0040a7a2 f i LIBCMT:guard_support.obj
 0001:0000982a       ___castguard_set_user_handler 0040a82a f i LIBCMT:guard_support.obj
 0001:0000983c       ___castguard_slow_path_check_debugbreak 0040a83c f i LIBCMT:guard_support.obj
 0001:00009874       ___castguard_slow_path_check_fastfail 0040a874 f i LIBCMT:guard_support.obj
 0001:000098b1       ___castguard_slow_path_check_nop 0040a8b1 f i LIBCMT:guard_support.obj
 0001:000098b4       ___castguard_slow_path_check_os_handled 0040a8b4 f i LIBCMT:guard_support.obj
 0001:000098ff       ___castguard_slow_path_check_user_handled 0040a8ff f i LIBCMT:guard_support.obj
 0001:00009977       __guard_icall_checks_enforced 0040a977 f i LIBCMT:guard_support.obj
 0001:0000998d       ___isa_available_init      0040a98d f   LIBCMT:cpu_disp.obj
 0001:00009d85       ___scrt_is_ucrt_dll_in_use 0040ad85 f   LIBCMT:ucrt_detection.obj
 0001:00009d94       _GetStdHandle@4            0040ad94 f   kernel32:KERNEL32.dll
 0001:00009d9a       _GetLastError@0            0040ad9a f   kernel32:KERNEL32.dll
 0001:00009da0       _GetConsoleMode@8          0040ada0 f   kernel32:KERNEL32.dll
 0001:00009da6       _SetConsoleMode@8          0040ada6 f   kernel32:KERNEL32.dll
 0001:00009dac       _UnhandledExceptionFilter@4 0040adac f   kernel32:KERNEL32.dll
 0001:00009db2       _SetUnhandledExceptionFilter@4 0040adb2 f   kernel32:KERNEL32.dll
 0001:00009db8       _GetCurrentProcess@0       0040adb8 f   kernel32:KERNEL32.dll
 0001:00009dbe       _TerminateProcess@8        0040adbe f   kernel32:KERNEL32.dll
 0001:00009dc4       _IsProcessorFeaturePresent@4 0040adc4 f   kernel32:KERNEL32.dll
 0001:00009dca       _QueryPerformanceCounter@4 0040adca f   kernel32:KERNEL32.dll
 0001:00009dd0       _GetCurrentProcessId@0     0040add0 f   kernel32:KERNEL32.dll
 0001:00009dd6       _GetCurrentThreadId@0      0040add6 f   kernel32:KERNEL32.dll
 0001:00009ddc       _GetSystemTimeAsFileTime@4 0040addc f   kernel32:KERNEL32.dll
 0001:00009de2       _InitializeSListHead@4     0040ade2 f   kernel32:KERNEL32.dll
 0001:00009de8       _IsDebuggerPresent@0       0040ade8 f   kernel32:KERNEL32.dll
 0001:00009dee       _GetStartupInfoW@4         0040adee f   kernel32:KERNEL32.dll
 0001:00009df4       _GetModuleHandleW@4        0040adf4 f   kernel32:KERNEL32.dll
 0001:00009e00       _strchr                    0040ae00 f   libvcruntime:strchr.obj
 0001:00009e6e       ___from_strstr_to_strchr   0040ae6e     libvcruntime:strchr.obj
 0001:00009fc0       __except_handler4          0040afc0 f   libvcruntime:chandler4.obj
 0001:0000a175       ___vcrt_initialize         0040b175 f   libvcruntime:initialization.obj
 0001:0000a19b       ___vcrt_thread_attach      0040b19b f   libvcruntime:initialization.obj
 0001:0000a1a8       ___vcrt_thread_detach      0040b1a8 f   libvcruntime:initialization.obj
 0001:0000a1b2       ___vcrt_uninitialize       0040b1b2 f   libvcruntime:initialization.obj
 0001:0000a1ce       ___vcrt_uninitialize_critical 0040b1ce f   libvcruntime:initialization.obj
 0001:0000a1eb       ??$?RD@__crt_internal_free_policy@@QBEXQBD@Z 0040b1eb f i libvcruntime:std_type_info.obj
 0001:0000a1ff       ??$?RX@__crt_internal_free_policy@@QBEXQBX@Z 0040b1ff f i libvcruntime:std_type_info.obj
 0001:0000a213       ??$__crt_interlocked_compare_exchange_pointer@$$CBDPAD$$T@@YAPBDPDSBDQAD$$T@Z 0040b213 f i libvcruntime:std_type_info.obj
 0001:0000a229       ??$__crt_interlocked_read_pointer@$$CBD@@YAPBDPDSBD@Z 0040b229 f i libvcruntime:std_type_info.obj
 0001:0000a236       ??0?$__crt_unique_heap_ptr@DU__crt_internal_free_policy@@@@QAE@QAD@Z 0040b236 f i libvcruntime:std_type_info.obj
 0001:0000a247       ??0?$__crt_unique_heap_ptr@XU__crt_internal_free_policy@@@@QAE@QAX@Z 0040b247 f i libvcruntime:std_type_info.obj
 0001:0000a258       ??1?$__crt_unique_heap_ptr@DU__crt_internal_free_policy@@@@QAE@XZ 0040b258 f i libvcruntime:std_type_info.obj
 0001:0000a26c       ??1?$__crt_unique_heap_ptr@XU__crt_internal_free_policy@@@@QAE@XZ 0040b26c f i libvcruntime:std_type_info.obj
 0001:0000a280       ??B?$__crt_unique_heap_ptr@DU__crt_internal_free_policy@@@@QBE_NXZ 0040b280 f i libvcruntime:std_type_info.obj
 0001:0000a287       ??B?$__crt_unique_heap_ptr@XU__crt_internal_free_policy@@@@QBE_NXZ 0040b287 f i libvcruntime:std_type_info.obj
 0001:0000a2b6       ?__crt_interlocked_read_32@@YAHPDH@Z 0040b2b6 f i libvcruntime:std_type_info.obj
 0001:0000a2c3       ?detach@?$__crt_unique_heap_ptr@XU__crt_internal_free_policy@@@@QAEPAXXZ 0040b2c3 f i libvcruntime:std_type_info.obj
 0001:0000a2c9       ?get@?$__crt_unique_heap_ptr@DU__crt_internal_free_policy@@@@QBEPADXZ 0040b2c9 f i libvcruntime:std_type_info.obj
 0001:0000a2cc       ?get@?$__crt_unique_heap_ptr@XU__crt_internal_free_policy@@@@QBEPAXXZ 0040b2cc f i libvcruntime:std_type_info.obj
 0001:0000a2cf       ?is_valid@?$__crt_unique_heap_ptr@DU__crt_internal_free_policy@@@@QBE_NXZ 0040b2cf f i libvcruntime:std_type_info.obj
 0001:0000a2d6       ?is_valid@?$__crt_unique_heap_ptr@XU__crt_internal_free_policy@@@@QBE_NXZ 0040b2d6 f i libvcruntime:std_type_info.obj
 0001:0000a2dd       ?release@?$__crt_unique_heap_ptr@DU__crt_internal_free_policy@@@@QAEXXZ 0040b2dd f i libvcruntime:std_type_info.obj
 0001:0000a2f1       ?release@?$__crt_unique_heap_ptr@XU__crt_internal_free_policy@@@@QAEXXZ 0040b2f1 f i libvcruntime:std_type_info.obj
 0001:0000a305       ___std_type_info_compare   0040b305 f   libvcruntime:std_type_info.obj
 0001:0000a350       ___std_type_info_destroy_list 0040b350 f   libvcruntime:std_type_info.obj
 0001:0000a37b       ___std_type_info_hash      0040b37b f   libvcruntime:std_type_info.obj
 0001:0000a3aa       ___std_type_info_name      0040b3aa f   libvcruntime:std_type_info.obj
 0001:0000a4a1       ___DestructExceptionObject 0040b4a1 f   libvcruntime:ehhelpers.obj
 0001:0000a56a       ?_CallMemberFunction0@@YGXQAX0@Z 0040b56a f i libvcruntime:ehhelpers.obj
 0001:0000a5e8       ?raw_name@type_info@@QBEPBDXZ 0040b5e8 f i libvcruntime:ehhelpers.obj
 0001:0000a5ec       __IsExceptionObjectToBeDestroyed 0040b5ec f   libvcruntime:ehhelpers.obj
 0001:0000a61b       __SetWinRTOutOfMemoryExceptionCallback 0040b61b f   libvcruntime:ehhelpers.obj
 0001:0000a62b       ___AdjustPointer           0040b62b f   libvcruntime:ehhelpers.obj
 0001:0000a659       ___FrameUnwindFilter       0040b659 f   libvcruntime:ehhelpers.obj
 0001:0000a6c4       ___GetPlatformExceptionInfo 0040b6c4 f   libvcruntime:ehhelpers.obj
 0001:0000a723       ___current_exception       0040b723 f   libvcruntime:ehhelpers.obj
 0001:0000a72e       ___current_exception_context 0040b72e f   libvcruntime:ehhelpers.obj
 0001:0000a739       ___processing_throw        0040b739 f   libvcruntime:ehhelpers.obj
 0001:0000a744       ___std_terminate           0040b744 f   libvcruntime:ehhelpers.obj
 0001:0000a749       __is_exception_typeof      0040b749 f   libvcruntime:ehhelpers.obj
 0001:0000a820       _memset                    0040b820 f   libvcruntime:memset.obj
 0001:0000a9d0       __local_unwind4            0040b9d0 f   libvcruntime:exsup4.obj
 0001:0000ab00       __seh_longjmp_unwind4@4    0040bb00 f   libvcruntime:exsup4.obj
 0001:0000ab40       @_EH4_CallFilterFunc@8     0040bb40 f   libvcruntime:exsup4.obj
 0001:0000ab60       @_EH4_TransferToHandler@8  0040bb60 f   libvcruntime:exsup4.obj
 0001:0000ab80       @_EH4_GlobalUnwind2@8      0040bb80 f   libvcruntime:exsup4.obj
 0001:0000aba0       @_EH4_LocalUnwind@16       0040bba0 f   libvcruntime:exsup4.obj
 0001:0000abc9       ___except_validate_context_record 0040bbc9 f   libvcruntime:jbcxrval.obj
 0001:0000ac05       ___except_validate_jump_buffer 0040bc05 f   libvcruntime:jbcxrval.obj
 0001:0000ac3d       ___except_validate_jump_buffer_common 0040bc3d f i libvcruntime:jbcxrval.obj
 0001:0000ac84       ??$?RU__vcrt_ptd@@@__crt_internal_free_policy@@QBEXQBU__vcrt_ptd@@@Z 0040bc84 f i libvcruntime:per_thread_data.obj
 0001:0000ac98       ??0?$__crt_unique_heap_ptr@U__vcrt_ptd@@U__crt_internal_free_policy@@@@QAE@QAU__vcrt_ptd@@@Z 0040bc98 f i libvcruntime:per_thread_data.obj
 0001:0000acbb       ??1?$__crt_unique_heap_ptr@U__vcrt_ptd@@U__crt_internal_free_policy@@@@QAE@XZ 0040bcbb f i libvcruntime:per_thread_data.obj
 0001:0000acda       ??B?$__crt_unique_heap_ptr@U__vcrt_ptd@@U__crt_internal_free_policy@@@@QBE_NXZ 0040bcda f i libvcruntime:per_thread_data.obj
 0001:0000ace1       ?detach@?$__crt_unique_heap_ptr@U__vcrt_ptd@@U__crt_internal_free_policy@@@@QAEPAU__vcrt_ptd@@XZ 0040bce1 f i libvcruntime:per_thread_data.obj
 0001:0000ace7       ?get@?$__crt_unique_heap_ptr@U__vcrt_ptd@@U__crt_internal_free_policy@@@@QBEPAU__vcrt_ptd@@XZ 0040bce7 f i libvcruntime:per_thread_data.obj
 0001:0000acea       ?is_valid@?$__crt_unique_heap_ptr@U__vcrt_ptd@@U__crt_internal_free_policy@@@@QBE_NXZ 0040bcea f i libvcruntime:per_thread_data.obj
 0001:0000acf1       ?release@?$__crt_unique_heap_ptr@U__vcrt_ptd@@U__crt_internal_free_policy@@@@QAEXXZ 0040bcf1 f i libvcruntime:per_thread_data.obj
 0001:0000ad25       ___vcrt_freefls@4          0040bd25 f   libvcruntime:per_thread_data.obj
 0001:0000ad48       ___vcrt_freeptd_for_this_thread 0040bd48 f   libvcruntime:per_thread_data.obj
 0001:0000ad7d       ___vcrt_getptd             0040bd7d f   libvcruntime:per_thread_data.obj
 0001:0000ad8e       ___vcrt_getptd_noexit      0040bd8e f   libvcruntime:per_thread_data.obj
 0001:0000ae44       ___vcrt_getptd_noinit      0040be44 f   libvcruntime:per_thread_data.obj
 0001:0000ae8a       ___vcrt_initialize_ptd     0040be8a f   libvcruntime:per_thread_data.obj
 0001:0000aec9       ___vcrt_uninitialize_ptd   0040bec9 f   libvcruntime:per_thread_data.obj
 0001:0000aeea       ___vcrt_initialize_locks   0040beea f   libvcruntime:locks.obj
 0001:0000af35       ___vcrt_lock               0040bf35 f   libvcruntime:locks.obj
 0001:0000af4f       ___vcrt_uninitialize_locks 0040bf4f f   libvcruntime:locks.obj
 0001:0000af89       ___vcrt_unlock             0040bf89 f   libvcruntime:locks.obj
 0001:0000afa3       ??$?0$00@DName@@QAE@PBDU?$StringLifeSelector@$00@@@Z 0040bfa3 f i libvcruntime:undname.obj
 0001:0000afe2       ??$?0$00@pcharNode@@QAE@PBDHU?$StringLifeSelector@$00@@@Z 0040bfe2 f i libvcruntime:undname.obj
 0001:0000b003       ??$?0$01@DName@@QAE@PBDU?$StringLifeSelector@$01@@@Z 0040c003 f i libvcruntime:undname.obj
 0001:0000b042       ??$?0$01@pcharNode@@QAE@PBDHU?$StringLifeSelector@$01@@@Z 0040c042 f i libvcruntime:undname.obj
 0001:0000b092       ??$?0$0A@@DName@@QAE@PBDU?$StringLifeSelector@$0A@@@@Z 0040c092 f i libvcruntime:undname.obj
 0001:0000b0d1       ??$?0$0A@@pcharNode@@QAE@PBDHU?$StringLifeSelector@$0A@@@@Z 0040c0d1 f i libvcruntime:undname.obj
 0001:0000b121       ??$?0_K$0A@@?$optional@_K@std@@QAE@$$QA_K@Z 0040c121 f i libvcruntime:undname.obj
 0001:0000b141       ??$?0_K@?$_Optional_construct_base@_K@std@@QAE@Uin_place_t@1@$$QA_K@Z 0040c141 f i libvcruntime:undname.obj
 0001:0000b161       ??$?0_K@?$_Optional_destruct_base@_K$00@std@@QAE@Uin_place_t@1@$$QA_K@Z 0040c161 f i libvcruntime:undname.obj
 0001:0000b181       ??$append@VDNameNode@@@DName@@AAEXPBVDNameNode@@@Z 0040c181 f i libvcruntime:undname.obj
 0001:0000b1d2       ??$append@VDNameStatusNode@@@DName@@AAEXPBVDNameStatusNode@@@Z 0040c1d2 f i libvcruntime:undname.obj
 0001:0000b223       ??$append@VcharNode@@@DName@@AAEXPBVcharNode@@@Z 0040c223 f i libvcruntime:undname.obj
 0001:0000b274       ??$append@VpDNameNode@@@DName@@AAEXPBVpDNameNode@@@Z 0040c274 f i libvcruntime:undname.obj
 0001:0000b2c5       ??$append@VpcharNode@@@DName@@AAEXPBVpcharNode@@@Z 0040c2c5 f i libvcruntime:undname.obj
 0001:0000b316       ??$doPchar@$00@DName@@AAEXPBDH@Z 0040c316 f i libvcruntime:undname.obj
 0001:0000b39d       ??$doPchar@$01@DName@@AAEXPBDH@Z 0040c39d f i libvcruntime:undname.obj
 0001:0000b42a       ??$doPchar@$0A@@DName@@AAEXPBDH@Z 0040c42a f i libvcruntime:undname.obj
 0001:0000b4b7       ??$forward@_K@std@@YA$$QA_KAA_K@Z 0040c4b7 f i libvcruntime:undname.obj
 0001:0000b5c2       ??0?$_Optional_construct_base@_K@std@@QAE@XZ 0040c5c2 f i libvcruntime:undname.obj
 0001:0000b5c9       ??0?$_Optional_destruct_base@_K$00@std@@QAE@XZ 0040c5c9 f i libvcruntime:undname.obj
 0001:0000b5d0       ??0?$optional@_K@std@@QAE@XZ 0040c5d0 f i libvcruntime:undname.obj
 0001:0000b5d7       ??0Block@_HeapManager@@QAE@XZ 0040c5d7 f i libvcruntime:undname.obj
 0001:0000b5dd       ??0DName@@QAE@AAPBDD@Z     0040c5dd f   libvcruntime:undname.obj
 0001:0000b688       ??0DName@@QAE@ABUStringLiteral@@@Z 0040c688 f   libvcruntime:undname.obj
 0001:0000b6b8       ??0DName@@QAE@ABV0@@Z      0040c6b8 f i libvcruntime:undname.obj
 0001:0000b6d3       ??0DName@@QAE@D@Z          0040c6d3 f   libvcruntime:undname.obj
 0001:0000b6f6       ??0DName@@QAE@PAV0@@Z      0040c6f6 f   libvcruntime:undname.obj
 0001:0000b74e       ??0DName@@QAE@W4DNameStatus@@@Z 0040c74e f   libvcruntime:undname.obj
 0001:0000b79e       ??0DName@@QAE@XZ           0040c79e f i libvcruntime:undname.obj
 0001:0000b7aa       ??0DName@@QAE@_J@Z         0040c7aa f   libvcruntime:undname.obj
 0001:0000b856       ??0DName@@QAE@_K@Z         0040c856 f   libvcruntime:undname.obj
 0001:0000b8d3       ??0DNameNode@@IAE@XZ       0040c8d3 f i libvcruntime:undname.obj
 0001:0000b8de       ??0Replicator@@QAE@XZ      0040c8de f i libvcruntime:undname.obj
 0001:0000b902       ??0UnDecorator@@QAE@PBDP6APADJ@ZK@Z 0040c902 f i libvcruntime:undname.obj
 0001:0000b97f       ??0_Nontrivial_dummy_type@std@@QAE@XZ 0040c97f f i libvcruntime:undname.obj
 0001:0000b982       ??0charNode@@QAE@D@Z       0040c982 f i libvcruntime:undname.obj
 0001:0000b99c       ??0pDNameNode@@QAE@PAVDName@@@Z 0040c99c f   libvcruntime:undname.obj
 0001:0000b9ce       ??0pairNode@@QAE@PBVDNameNode@@0@Z 0040c9ce f i libvcruntime:undname.obj
 0001:0000b9fb       ??2@YAPAXIAAV_HeapManager@@H@Z 0040c9fb f   libvcruntime:undname.obj
 0001:0000ba21       ??4DName@@QAEAAV0@ABUStringLiteral@@@Z 0040ca21 f   libvcruntime:undname.obj
 0001:0000ba4a       ??4DName@@QAEAAV0@ABV0@@Z  0040ca4a f   libvcruntime:undname.obj
 0001:0000ba65       ??4DName@@QAEAAV0@D@Z      0040ca65 f i libvcruntime:undname.obj
 0001:0000ba88       ??4DName@@QAEAAV0@PAV0@@Z  0040ca88 f   libvcruntime:undname.obj
 0001:0000badb       ??4DName@@QAEAAV0@W4DNameStatus@@@Z 0040cadb f   libvcruntime:undname.obj
 0001:0000bb19       ??AReplicator@@QBE?AVDName@@H@Z 0040cb19 f   libvcruntime:undname.obj
 0001:0000bb64       ??B?$optional@_K@std@@QBE_NXZ 0040cb64 f i libvcruntime:undname.obj
 0001:0000bb68       ??D?$_Optional_construct_base@_K@std@@QGAEAA_KXZ 0040cb68 f i libvcruntime:undname.obj
 0001:0000bb6b       ??H@YA?AVDName@@ABUStringLiteral@@ABV0@@Z 0040cb6b f i libvcruntime:undname.obj
 0001:0000bb95       ??H@YA?AVDName@@DABV0@@Z   0040cb95 f i libvcruntime:undname.obj
 0001:0000bbca       ??H@YA?AVDName@@W4DNameStatus@@ABV0@@Z 0040cbca f i libvcruntime:undname.obj
 0001:0000bbf4       ??HDName@@QBE?AV0@ABUStringLiteral@@@Z 0040cbf4 f   libvcruntime:undname.obj
 0001:0000bc1e       ??HDName@@QBE?AV0@ABV0@@Z  0040cc1e f   libvcruntime:undname.obj
 0001:0000bc48       ??HDName@@QBE?AV0@D@Z      0040cc48 f   libvcruntime:undname.obj
 0001:0000bc72       ??HDName@@QBE?AV0@PAV0@@Z  0040cc72 f   libvcruntime:undname.obj
 0001:0000bc9c       ??HDName@@QBE?AV0@W4DNameStatus@@@Z 0040cc9c f   libvcruntime:undname.obj
 0001:0000bcc6       ??HStringLiteral@@QBE?AU0@H@Z 0040ccc6 f i libvcruntime:undname.obj
 0001:0000bce6       ??YDName@@QAEAAV0@ABUStringLiteral@@@Z 0040cce6 f   libvcruntime:undname.obj
 0001:0000bd54       ??YDName@@QAEAAV0@ABV0@@Z  0040cd54 f   libvcruntime:undname.obj
 0001:0000bdc0       ??YDName@@QAEAAV0@D@Z      0040cdc0 f   libvcruntime:undname.obj
 0001:0000be2a       ??YDName@@QAEAAV0@PAV0@@Z  0040ce2a f   libvcruntime:undname.obj
 0001:0000bea7       ??YDName@@QAEAAV0@W4DNameStatus@@@Z 0040cea7 f   libvcruntime:undname.obj
 0001:0000bef7       ??YReplicator@@QAEAAV0@ABVDName@@@Z 0040cef7 f   libvcruntime:undname.obj
 0001:0000bf47       ??_5DName@@QAEAAV0@ABV0@@Z 0040cf47 f   libvcruntime:undname.obj
 0001:0000bf6d       ??__K_l@@YA?AUStringLiteral@@PBDI@Z 0040cf6d f i libvcruntime:undname.obj
 0001:0000bf7a       ?Constructor@_HeapManager@@QAEXP6APAXI@ZP6AXPAX@Z@Z 0040cf7a f i libvcruntime:undname.obj
 0001:0000bf9e       ?Destructor@_HeapManager@@QAEXXZ 0040cf9e f i libvcruntime:undname.obj
 0001:0000bff2       ?UScore@UnDecorator@@SA?AUStringLiteral@@W4Tokens@@@Z 0040cff2 f   libvcruntime:undname.obj
 0001:0000c022       ?composeDeclaration@UnDecorator@@CA?AVDName@@ABV2@@Z 0040d022 f i libvcruntime:undname.obj
 0001:0000cecd       ?doAccessSpecifiers@UnDecorator@@SAHXZ 0040decd f i libvcruntime:undname.obj
 0001:0000cede       ?doAllocationLanguage@UnDecorator@@SAHXZ 0040dede f i libvcruntime:undname.obj
 0001:0000ceef       ?doAllocationModel@UnDecorator@@SAHXZ 0040deef f i libvcruntime:undname.obj
 0001:0000cf00       ?doEcsu@UnDecorator@@SAHXZ 0040df00 f i libvcruntime:undname.obj
 0001:0000cf11       ?doEllipsis@UnDecorator@@SAHXZ 0040df11 f i libvcruntime:undname.obj
 0001:0000cf22       ?doFunctionReturns@UnDecorator@@SAHXZ 0040df22 f i libvcruntime:undname.obj
 0001:0000cf33       ?doMSKeywords@UnDecorator@@SAHXZ 0040df33 f i libvcruntime:undname.obj
 0001:0000cf43       ?doMemberTypes@UnDecorator@@SAHXZ 0040df43 f i libvcruntime:undname.obj
 0001:0000cf54       ?doNameOnly@UnDecorator@@SAHXZ 0040df54 f i libvcruntime:undname.obj
 0001:0000cf61       ?doNoIdentCharCheck@UnDecorator@@SAHXZ 0040df61 f i libvcruntime:undname.obj
 0001:0000cf6e       ?doPchar@DName@@AAEXD@Z    0040df6e f   libvcruntime:undname.obj
 0001:0000cfb4       ?doPtr64@UnDecorator@@SAHXZ 0040dfb4 f i libvcruntime:undname.obj
 0001:0000cfc5       ?doRestrictionSpec@UnDecorator@@SAHXZ 0040dfc5 f i libvcruntime:undname.obj
 0001:0000cfd6       ?doThisTypes@UnDecorator@@SAHXZ 0040dfd6 f i libvcruntime:undname.obj
 0001:0000cfec       ?doThrowTypes@UnDecorator@@SAHXZ 0040dfec f i libvcruntime:undname.obj
 0001:0000cffd       ?doTypeOnly@UnDecorator@@SAHXZ 0040dffd f i libvcruntime:undname.obj
 0001:0000d00a       ?doUnderScore@UnDecorator@@SAHXZ 0040e00a f i libvcruntime:undname.obj
 0001:0000d017       ?getAddressOf@UnDecorator@@CA?AVDName@@XZ 0040e017 f   libvcruntime:undname.obj
 0001:0000d099       ?getArgumentList@UnDecorator@@CA?AVDName@@XZ 0040e099 f   libvcruntime:undname.obj
 0001:0000d1e9       ?getArgumentTypes@UnDecorator@@CA?AVDName@@XZ 0040e1e9 f   libvcruntime:undname.obj
 0001:0000d333       ?getArrayAccess@UnDecorator@@CA?AVDName@@XZ 0040e333 f   libvcruntime:undname.obj
 0001:0000d3c4       ?getArrayObject@UnDecorator@@CA?AVDName@@XZ 0040e3c4 f   libvcruntime:undname.obj
 0001:0000d489       ?getArrayType@UnDecorator@@CA?AVDName@@ABV2@@Z 0040e489 f i libvcruntime:undname.obj
 0001:0000d6b0       ?getBasedType@UnDecorator@@CA?AVDName@@XZ 0040e6b0 f   libvcruntime:undname.obj
 0001:0000d78a       ?getBasicDataType@UnDecorator@@CA?AVDName@@ABV2@@Z 0040e78a f   libvcruntime:undname.obj
 0001:0000de3d       ?getCHPEName@UnDecorator@@QAEPADPADH@Z 0040ee3d f i libvcruntime:undname.obj
 0001:0000df51       ?getCallIndex@UnDecorator@@CA?AVDName@@XZ 0040ef51 f i libvcruntime:undname.obj
 0001:0000df6a       ?getCallingConvention@UnDecorator@@CA?AVDName@@XZ 0040ef6a f   libvcruntime:undname.obj
 0001:0000e066       ?getDataIndirectType@UnDecorator@@CA?AVDName@@ABV2@W4IndirectionKind@@0H@Z 0040f066 f   libvcruntime:undname.obj
 0001:0000e8ce       ?getDataIndirectType@UnDecorator@@CA?AVDName@@XZ 0040f8ce f i libvcruntime:undname.obj
 0001:0000e907       ?getDataType@UnDecorator@@CA?AVDName@@PAV2@@Z 0040f907 f   libvcruntime:undname.obj
 0001:0000ea13       ?getDecoratedName@UnDecorator@@CA?AVDName@@XZ 0040fa13 f   libvcruntime:undname.obj
 0001:0000ecfc       ?getDimension@UnDecorator@@CA?AVDName@@_N@Z 0040fcfc f   libvcruntime:undname.obj
 0001:0000ee58       ?getDispatchTarget@UnDecorator@@CA?AVDName@@XZ 0040fe58 f   libvcruntime:undname.obj
 0001:0000eebd       ?getDisplacement@UnDecorator@@CA?AVDName@@XZ 0040febd f i libvcruntime:undname.obj
 0001:0000eed6       ?getECSUDataType@UnDecorator@@CA?AVDName@@XZ 0040fed6 f   libvcruntime:undname.obj
 0001:0000f0ea       ?getECSUName@UnDecorator@@CA?AVDName@@XZ 004100ea f i libvcruntime:undname.obj
 0001:0000f0ff       ?getEnumType@UnDecorator@@CA?AVDName@@XZ 004100ff f i libvcruntime:undname.obj
 0001:0000f258       ?getExtendedDataIndirectType@UnDecorator@@CA?AVDName@@AAW4IndirectionKind@@AA_NH@Z 00410258 f   libvcruntime:undname.obj
 0001:0000f4db       ?getExternalDataType@UnDecorator@@CA?AVDName@@ABV2@@Z 004104db f i libvcruntime:undname.obj
 0001:0000f559       ?getFloatingPoint@UnDecorator@@CA?AVDName@@H@Z 00410559 f   libvcruntime:undname.obj
 0001:0000f64c       ?getFunctionIndirectType@UnDecorator@@CA?AVDName@@ABV2@@Z 0041064c f   libvcruntime:undname.obj
 0001:0000fae0       ?getGuardNumber@UnDecorator@@CA?AVDName@@XZ 00410ae0 f i libvcruntime:undname.obj
 0001:0000faf9       ?getLastChar@DName@@QBEDXZ 00410af9 f i libvcruntime:undname.obj
 0001:0000fb21       ?getLastChar@DNameStatusNode@@UBEDXZ 00410b21 f i libvcruntime:undname.obj
 0001:0000fb30       ?getLastChar@charNode@@UBEDXZ 00410b30 f i libvcruntime:undname.obj
 0001:0000fb34       ?getLastChar@pDNameNode@@UBEDXZ 00410b34 f i libvcruntime:undname.obj
 0001:0000fb45       ?getLastChar@pairNode@@UBEDXZ 00410b45 f i libvcruntime:undname.obj
 0001:0000fb87       ?getLastChar@pcharNode@@UBEDXZ 00410b87 f i libvcruntime:undname.obj
 0001:0000fb9d       ?getLexicalFrame@UnDecorator@@CA?AVDName@@XZ 00410b9d f i libvcruntime:undname.obj
 0001:0000fbda       ?getMemberAccess@UnDecorator@@CA?AVDName@@XZ 00410bda f   libvcruntime:undname.obj
 0001:0000fc66       ?getMemoryWithBuffer@_HeapManager@@QAEPAXI@Z 00410c66 f   libvcruntime:undname.obj
 0001:0000fceb       ?getMemoryWithoutBuffer@_HeapManager@@QAEPAXI@Z 00410ceb f   libvcruntime:undname.obj
 0001:0000fd13       ?getNoexcept@UnDecorator@@CA?AVDName@@XZ 00410d13 f   libvcruntime:undname.obj
 0001:0000fd6d       ?getNumberOfDimensions@UnDecorator@@CAHXZ 00410d6d f   libvcruntime:undname.obj
 0001:0000fddd       ?getOperatorName@UnDecorator@@CA?AVDName@@_NPA_N@Z 00410ddd f i libvcruntime:undname.obj
 0001:000108d4       ?getPointerToMember@UnDecorator@@CA?AVDName@@XZ 004118d4 f   libvcruntime:undname.obj
 0001:000109bf       ?getPointerType@UnDecorator@@CA?AVDName@@ABV2@0@Z 004119bf f i libvcruntime:undname.obj
 0001:000109e0       ?getPointerTypeArray@UnDecorator@@CA?AVDName@@ABV2@0@Z 004119e0 f i libvcruntime:undname.obj
 0001:00010a01       ?getPrimaryDataType@UnDecorator@@CA?AVDName@@ABV2@@Z 00411a01 f   libvcruntime:undname.obj
 0001:00010ce2       ?getPtrRefDataType@UnDecorator@@CA?AVDName@@ABV2@H@Z 00411ce2 f   libvcruntime:undname.obj
 0001:00010eaa       ?getPtrRefType@UnDecorator@@CA?AVDName@@ABV2@0W4IndirectionKind@@@Z 00411eaa f   libvcruntime:undname.obj
 0001:00010fff       ?getReferenceType@UnDecorator@@CA?AVDName@@ABV2@0W4IndirectionKind@@@Z 00411fff f i libvcruntime:undname.obj
 0001:00011022       ?getRestrictionSpec@UnDecorator@@CA?AVDName@@XZ 00412022 f   libvcruntime:undname.obj
 0001:00011181       ?getReturnType@UnDecorator@@CA?AVDName@@PAV2@@Z 00412181 f   libvcruntime:undname.obj
 0001:000111bb       ?getScope@UnDecorator@@CA?AVDName@@XZ 004121bb f   libvcruntime:undname.obj
 0001:00011668       ?getScopedName@UnDecorator@@CA?AVDName@@XZ 00412668 f   libvcruntime:undname.obj
 0001:0001179a       ?getSignedDimension@UnDecorator@@CA?AVDName@@XZ 0041279a f   libvcruntime:undname.obj
 0001:000117ff       ?getStorageConvention@UnDecorator@@CA?AVDName@@XZ 004127ff f i libvcruntime:undname.obj
 0001:00011814       ?getString@DName@@QBEPADPAD0@Z 00412814 f i libvcruntime:undname.obj
 0001:0001184c       ?getString@DName@@QBEPADPADH@Z 0041284c f i libvcruntime:undname.obj
 0001:000118b6       ?getString@DNameStatusNode@@UBEPADPAD0@Z 004128b6 f i libvcruntime:undname.obj
 0001:0001190e       ?getString@charNode@@UBEPADPAD0@Z 0041290e f i libvcruntime:undname.obj
 0001:00011928       ?getString@pDNameNode@@UBEPADPAD0@Z 00412928 f i libvcruntime:undname.obj
 0001:00011944       ?getString@pairNode@@UBEPADPAD0@Z 00412944 f i libvcruntime:undname.obj
 0001:0001199b       ?getString@pcharNode@@UBEPADPAD0@Z 0041299b f i libvcruntime:undname.obj
 0001:000119bc       ?getStringEncoding@UnDecorator@@CA?AVDName@@W4PrefixKind@@H@Z 004129bc f   libvcruntime:undname.obj
 0001:00011a73       ?getStringHelper@@YAPADPADPBD1H@Z 00412a73 f i libvcruntime:undname.obj
 0001:00011aa6       ?getStringObject@UnDecorator@@CA?AVDName@@XZ 00412aa6 f   libvcruntime:undname.obj
 0001:00011b2d       ?getSymbolName@UnDecorator@@CA?AVDName@@XZ 00412b2d f i libvcruntime:undname.obj
 0001:00011b87       ?getTemplateArgumentList@UnDecorator@@CA?AVDName@@XZ 00412b87 f   libvcruntime:undname.obj
 0001:00011da3       ?getTemplateName@UnDecorator@@CA?AVDName@@_N@Z 00412da3 f   libvcruntime:undname.obj
 0001:00011f7c       ?getTemplateNonTypeArgument@UnDecorator@@CA?AVDName@@XZ 00412f7c f   libvcruntime:undname.obj
 0001:00012436       ?getTemplateTypeArgument@UnDecorator@@CA?AVDName@@XZ 00413436 f   libvcruntime:undname.obj
 0001:0001258b       ?getThisType@UnDecorator@@CA?AVDName@@XZ 0041358b f i libvcruntime:undname.obj
 0001:000125c5       ?getThrowTypes@UnDecorator@@CA?AVDName@@XZ 004135c5 f   libvcruntime:undname.obj
 0001:000125eb       ?getTypeEncoding@UnDecorator@@CAHXZ 004135eb f i libvcruntime:undname.obj
 0001:00012a2d       ?getUndecoratedName@UnDecorator@@QAEPADPADH@Z 00413a2d f i libvcruntime:undname.obj
 0001:00012b96       ?getUnionObject@UnDecorator@@CA?AVDName@@XZ 00413b96 f   libvcruntime:undname.obj
 0001:00012c66       ?getVCallThunkType@UnDecorator@@CA?AVDName@@XZ 00413c66 f i libvcruntime:undname.obj
 0001:00012cc2       ?getValue@UnDecorator@@CA?AV?$optional@_K@std@@XZ 00413cc2 f   libvcruntime:undname.obj
 0001:00012d3a       ?getValueObject@UnDecorator@@CA?AVDName@@XZ 00413d3a f   libvcruntime:undname.obj
 0001:00012eb1       ?getVbTableType@UnDecorator@@CA?AVDName@@ABV2@@Z 00413eb1 f i libvcruntime:undname.obj
 0001:00012ecb       ?getVdispMapType@UnDecorator@@CA?AVDName@@ABV2@@Z 00413ecb f i libvcruntime:undname.obj
 0001:00012f44       ?getVfTableType@UnDecorator@@CA?AVDName@@ABV2@@Z 00413f44 f i libvcruntime:undname.obj
 0001:000130ed       ?getZName@UnDecorator@@CA?AVDName@@_N0@Z 004140ed f   libvcruntime:undname.obj
 0001:0001338c       ?get_current_character_and_increment_buffer@UnDecorator@@CADXZ 0041438c f i libvcruntime:undname.obj
 0001:000133a5       ?haveTemplateParameters@UnDecorator@@SAHXZ 004143a5 f i libvcruntime:undname.obj
 0001:000133b2       ?increment_buffer@UnDecorator@@CA_NI@Z 004143b2 f i libvcruntime:undname.obj
 0001:000133e4       ?increment_buffer_no_check@UnDecorator@@CAXI@Z 004143e4 f i libvcruntime:undname.obj
 0001:000133f5       ?increment_buffer_no_check@UnDecorator@@CAXXZ 004143f5 f i libvcruntime:undname.obj
 0001:000133fc       ?isArray@DName@@QBEHXZ     004143fc f i libvcruntime:undname.obj
 0001:00013408       ?isComArray@DName@@QBEHXZ  00414408 f i libvcruntime:undname.obj
 0001:00013414       ?isEmpty@DName@@QBEHXZ     00414414 f i libvcruntime:undname.obj
 0001:0001341e       ?isFull@Replicator@@QBEHXZ 0041441e f i libvcruntime:undname.obj
 0001:00013429       ?isNoTE@DName@@QBEHXZ      00414429 f i libvcruntime:undname.obj
 0001:00013435       ?isPinPtr@DName@@QBEHXZ    00414435 f i libvcruntime:undname.obj
 0001:00013441       ?isPtrRef@DName@@QBEHXZ    00414441 f i libvcruntime:undname.obj
 0001:0001344d       ?isUDC@DName@@QBEHXZ       0041444d f i libvcruntime:undname.obj
 0001:00013462       ?isUDTThunk@DName@@QBEHXZ  00414462 f i libvcruntime:undname.obj
 0001:00013477       ?isVCallThunk@DName@@QBEHXZ 00414477 f i libvcruntime:undname.obj
 0001:00013483       ?isValid@DName@@QBEHXZ     00414483 f i libvcruntime:undname.obj
 0001:0001348f       ?length@DName@@QBEHXZ      0041448f f i libvcruntime:undname.obj
 0001:000134b5       ?length@DNameStatusNode@@UBEHXZ 004144b5 f i libvcruntime:undname.obj
 0001:000134b9       ?length@charNode@@UBEHXZ   004144b9 f i libvcruntime:undname.obj
 0001:000134bd       ?length@pDNameNode@@UBEHXZ 004144bd f i libvcruntime:undname.obj
 0001:000134ce       ?length@pairNode@@UBEHXZ   004144ce f i libvcruntime:undname.obj
 0001:00013529       ?length@pcharNode@@UBEHXZ  00414529 f i libvcruntime:undname.obj
 0001:0001352d       ?make@DNameStatusNode@@SAPBV1@W4DNameStatus@@@Z 0041452d f i libvcruntime:undname.obj
 0001:00013550       ?parseDecoratedName@UnDecorator@@CA?AVDName@@XZ 00414550 f   libvcruntime:undname.obj
 0001:00013689       ?raw_length@DNameStatusNode@@UBEHXZ 00414689 f i libvcruntime:undname.obj
 0001:0001368d       ?raw_length@charNode@@UBEHXZ 0041468d f i libvcruntime:undname.obj
 0001:00013691       ?raw_length@pDNameNode@@UBEHXZ 00414691 f i libvcruntime:undname.obj
 0001:00013695       ?raw_length@pairNode@@UBEHXZ 00414695 f i libvcruntime:undname.obj
 0001:00013699       ?raw_length@pcharNode@@UBEHXZ 00414699 f i libvcruntime:undname.obj
 0001:0001369d       ?setIsArray@DName@@QAEXXZ  0041469d f i libvcruntime:undname.obj
 0001:000136a7       ?setIsComArray@DName@@QAEXXZ 004146a7 f i libvcruntime:undname.obj
 0001:000136b1       ?setIsNoTE@DName@@QAEXXZ   004146b1 f i libvcruntime:undname.obj
 0001:000136bb       ?setIsPinPtr@DName@@QAEXXZ 004146bb f i libvcruntime:undname.obj
 0001:000136c5       ?setIsUDC@DName@@QAEXXZ    004146c5 f i libvcruntime:undname.obj
 0001:000136d5       ?setIsVCallThunk@DName@@QAEXXZ 004146d5 f i libvcruntime:undname.obj
 0001:000136df       ?setPtrRef@DName@@QAEAAV1@XZ 004146df f i libvcruntime:undname.obj
 0001:000136eb       ?status@DName@@QBE?AW4DNameStatus@@XZ 004146eb f i libvcruntime:undname.obj
 0001:00013770       ___unDName                 00414770 f   libvcruntime:undname.obj
 0001:0001379b       ___unDNameEx               0041479b f   libvcruntime:undname.obj
 0001:00013861       __vsprintf_s_l             00414861 f i libvcruntime:undname.obj
 0001:0001389a       _snprintf                  0041489a f i libvcruntime:undname.obj
 0001:000138ba       _sprintf_s                 004148ba f i libvcruntime:undname.obj
 0001:000138dd       _unDNameGenerateCHPE       004148dd f   libvcruntime:undname.obj
 0001:000139a1       _vsnprintf                 004149a1 f i libvcruntime:undname.obj
 0001:000139e0       __global_unwind2           004149e0 f   libvcruntime:exsup.obj
 0001:00013a70       __local_unwind2            00414a70 f   libvcruntime:exsup.obj
 0001:00013b30       __abnormal_termination     00414b30 f   libvcruntime:exsup.obj
 0001:00013b70       __NLG_Notify1              00414b70 f   libvcruntime:exsup.obj
 0001:00013b80       __NLG_Notify               00414b80 f   libvcruntime:exsup.obj
 0001:00013b97       __NLG_Dispatch             00414b97     libvcruntime:exsup.obj
 0001:00013b97       __NLG_Dispatch2            00414b97     libvcruntime:exsup.obj
 0001:00013bb0       __NLG_Call                 00414bb0 f   libvcruntime:exsup.obj
 0001:00013bb2       __NLG_Return2              00414bb2     libvcruntime:exsup.obj
 0001:00013bb3       ??$__crt_interlocked_exchange_pointer@UHINSTANCE__@@PAU1@@@YAPAUHINSTANCE__@@PDSAU0@QAU0@@Z 00414bb3 f i libvcruntime:winapi_downlevel.obj
 0001:00013bc3       ??$__crt_interlocked_exchange_pointer@UHINSTANCE__@@PAX@@YAPAUHINSTANCE__@@PDSAU0@QAX@Z 00414bc3 f i libvcruntime:winapi_downlevel.obj
 0001:00013bd3       ??$__crt_interlocked_exchange_pointer@XPAX@@YAPAXPDSAXQAX@Z 00414bd3 f i libvcruntime:winapi_downlevel.obj
 0001:00013be3       ??$__crt_interlocked_read_pointer@UHINSTANCE__@@@@YAPAUHINSTANCE__@@PDSAU0@@Z 00414be3 f i libvcruntime:winapi_downlevel.obj
 0001:00013bf0       ??$__crt_interlocked_read_pointer@X@@YAPAXPDSAX@Z 00414bf0 f i libvcruntime:winapi_downlevel.obj
 0001:00013f18       ___vcrt_FlsAlloc           00414f18 f   libvcruntime:winapi_downlevel.obj
 0001:00013f61       ___vcrt_FlsFree            00414f61 f   libvcruntime:winapi_downlevel.obj
 0001:00013faa       ___vcrt_FlsGetValue        00414faa f   libvcruntime:winapi_downlevel.obj
 0001:00013ff3       ___vcrt_FlsSetValue        00414ff3 f   libvcruntime:winapi_downlevel.obj
 0001:00014040       ___vcrt_InitializeCriticalSectionEx 00415040 f   libvcruntime:winapi_downlevel.obj
 0001:00014098       ??$__crt_interlocked_exchange_pointer@$$A6AXXZP6AXXZ@@YAP6AXXZPDS6AXXZQ6AXXZ@Z 00415098 f i libvcruntime:purevirt.obj
 0001:000140a8       ??$__crt_interlocked_read_pointer@$$A6AXXZ@@YAP6AXXZPDS6AXXZ@Z 004150a8 f i libvcruntime:purevirt.obj
 0001:000140b5       __get_purecall_handler     004150b5 f   libvcruntime:purevirt.obj
 0001:000140bc       __purecall                 004150bc f   libvcruntime:purevirt.obj
 0001:000140df       __set_purecall_handler     004150df f   libvcruntime:purevirt.obj
 0001:000140f1       ??$?0AAViterator@TryBlockMap@__FrameHandler3@@AAV012@$0A@@?$pair@Viterator@TryBlockMap@__FrameHandler3@@V123@@std@@QAE@AAViterator@TryBlockMap@__FrameHandler3@@0@Z 004150f1 f i libvcruntime:trnsctrl.obj
 0001:0001411e       ??$forward@AAViterator@TryBlockMap@__FrameHandler3@@@std@@YAAAViterator@TryBlockMap@__FrameHandler3@@AAV123@@Z 0041511e f i libvcruntime:trnsctrl.obj
 0001:00014128       ??0iterator@TryBlockMap@__FrameHandler3@@QAE@AAV12@I@Z 00415128 f i libvcruntime:trnsctrl.obj
 0001:00014141       ?GetRangeOfTrysToCheck@__FrameHandler3@@SA?AU?$pair@Viterator@TryBlockMap@__FrameHandler3@@V123@@std@@AAVTryBlockMap@1@HPAXPBU_s_FuncInfo@@H@Z 00415141 f   libvcruntime:trnsctrl.obj
 0001:000141cb       ?_CallCatchBlock2@@YAPAXPAUEHRegistrationNode@@PBU_s_FuncInfo@@PAXHK@Z 004151cb f   libvcruntime:trnsctrl.obj
 0001:0001423f       ?_CallSETranslator@@YAHPAUEHExceptionRecord@@PAUEHRegistrationNode@@PAX2PBU_s_FuncInfo@@H1@Z 0041523f f   libvcruntime:trnsctrl.obj
 0001:0001436b       ?_JumpToContinuation@@YGXPAXPAUEHRegistrationNode@@@Z 0041536b f   libvcruntime:trnsctrl.obj
 0001:000143a7       ?_UnwindNestedFrames@@YGXPAUEHRegistrationNode@@PAUEHExceptionRecord@@@Z 004153a7 f   libvcruntime:trnsctrl.obj
 0001:00014410       __CatchGuardHandler        00415410 f   libvcruntime:trnsctrl.obj
 0001:0001444d       __CreateFrameInfo          0041544d f   libvcruntime:trnsctrl.obj
 0001:0001447a       __FindAndUnlinkFrame       0041547a f   libvcruntime:trnsctrl.obj
 0001:000144d4       __TranslatorGuardHandler   004154d4 f   libvcruntime:trnsctrl.obj
 0001:0001459a       ___CxxFrameHandler         0041559a f   libvcruntime:trnsctrl.obj
 0001:000145dd       ___CxxFrameHandler2        004155dd f   libvcruntime:trnsctrl.obj
 0001:00014620       ___CxxFrameHandler3        00415620 f   libvcruntime:trnsctrl.obj
 0001:00014663       ___CxxLongjmpUnwind@4      00415663 f   libvcruntime:trnsctrl.obj
 0001:000146a0       _memcpy                    004156a0 f   libvcruntime:memcpy.obj
 0001:0001566c       ??$TypeMatchHelper@V__FrameHandler3@@@@YAHPBU_s_HandlerType@@PBU_s_CatchableType@@PBU_s_ThrowInfo@@@Z 0041666c f i libvcruntime:frame.obj
 0001:0001571d       ??$__InternalCxxFrameHandler@V__FrameHandler3@@@@YA?AW4_EXCEPTION_DISPOSITION@@PAUEHExceptionRecord@@PAUEHRegistrationNode@@PAU_CONTEXT@@PAXPBU_s_FuncInfo@@H1E@Z 0041671d f i libvcruntime:frame.obj
 0001:0001585f       ??$__InternalCxxFrameHandlerWrapper@V__FrameHandler3@@@@YA?AW4_EXCEPTION_DISPOSITION@@PAUEHExceptionRecord@@PAUEHRegistrationNode@@PAU_CONTEXT@@PAXPBU_s_FuncInfo@@H1E@Z 0041685f f i libvcruntime:frame.obj
 0001:0001586a       ??0HandlerMap@__FrameHandler3@@QAE@PBU_s_TryBlockMapEntry@@II@Z 0041686a f i libvcruntime:frame.obj
 0001:00015886       ??0TryBlockMap@__FrameHandler3@@QAE@PBU_s_FuncInfo@@I@Z 00416886 f i libvcruntime:frame.obj
 0001:0001589f       ??0bad_exception@std@@QAE@ABV01@@Z 0041689f f i libvcruntime:frame.obj
 0001:000158c0       ??0bad_exception@std@@QAE@XZ 004168c0 f i libvcruntime:frame.obj
 0001:000158de       ??0exception@std@@QAE@ABV01@@Z 004168de f i libvcruntime:frame.obj
 0001:00015915       ??0exception@std@@QAE@QBDH@Z 00416915 f i libvcruntime:frame.obj
 0001:00015939       ??0iterator@HandlerMap@__FrameHandler3@@QAE@AAV12@I@Z 00416939 f i libvcruntime:frame.obj
 0001:00015952       ??1bad_exception@std@@UAE@XZ 00416952 f i libvcruntime:frame.obj
 0001:00015967       ??1exception@std@@UAE@XZ   00416967 f i libvcruntime:frame.obj
 0001:0001597c       ??8iterator@HandlerMap@__FrameHandler3@@QBE_NABV012@@Z 0041697c f i libvcruntime:frame.obj
 0001:00015993       ??8type_info@@QBE_NABV0@@Z 00416993 f i libvcruntime:frame.obj
 0001:000159b9       ??9iterator@HandlerMap@__FrameHandler3@@QBE_NABV012@@Z 004169b9 f i libvcruntime:frame.obj
 0001:000159d0       ??Diterator@HandlerMap@__FrameHandler3@@QAE?BU_s_HandlerType@@XZ 004169d0 f i libvcruntime:frame.obj
 0001:000159f6       ??Diterator@TryBlockMap@__FrameHandler3@@QAE?BU_s_TryBlockMapEntry@@XZ 004169f6 f i libvcruntime:frame.obj
 0001:00015a20       ??Eiterator@HandlerMap@__FrameHandler3@@QAEAAV012@XZ 00416a20 f i libvcruntime:frame.obj
 0001:00015a26       ??Eiterator@TryBlockMap@__FrameHandler3@@QAEAAV012@XZ 00416a26 f i libvcruntime:frame.obj
 0001:00015a2c       ??Miterator@TryBlockMap@__FrameHandler3@@QBE_NABV012@@Z 00416a2c f i libvcruntime:frame.obj
 0001:00015a43       ??_Ebad_exception@std@@UAEPAXI@Z 00416a43 f i libvcruntime:frame.obj
 0001:00015a43       ??_Gbad_exception@std@@UAEPAXI@Z 00416a43 f i libvcruntime:frame.obj
 0001:00015a7b       ??_Eexception@std@@UAEPAXI@Z 00416a7b f i libvcruntime:frame.obj
 0001:00015a7b       ??_Gexception@std@@UAEPAXI@Z 00416a7b f i libvcruntime:frame.obj
 0001:00015ab3       ?BuildCatchObject@__FrameHandler3@@SAXPAUEHExceptionRecord@@PAXPBU_s_HandlerType@@PBU_s_CatchableType@@@Z 00416ab3 f   libvcruntime:frame.obj
 0001:00015ab8       ?BuildCatchObjectHelper@__FrameHandler3@@SAHPAUEHExceptionRecord@@PAXPBU_s_HandlerType@@PBU_s_CatchableType@@@Z 00416ab8 f   libvcruntime:frame.obj
 0001:00015daf       ?FrameUnwindToEmptyState@__FrameHandler3@@SAXPAUEHRegistrationNode@@PAXPBU_s_FuncInfo@@@Z 00416daf f   libvcruntime:frame.obj
 0001:00015dcd       ?FrameUnwindToState@__FrameHandler3@@SAXPAUEHRegistrationNode@@PAXPBU_s_FuncInfo@@H@Z 00416dcd f   libvcruntime:frame.obj
 0001:00015eef       ?GetMaxState@__FrameHandler3@@SAHPAXPBU_s_FuncInfo@@@Z 00416eef f i libvcruntime:frame.obj
 0001:00016003       ?TypeMatch@__FrameHandler3@@SAHPBU_s_HandlerType@@PBU_s_CatchableType@@PBU_s_ThrowInfo@@@Z 00417003 f   libvcruntime:frame.obj
 0001:0001600e       ?_CallMemberFunction1@@YGXQAX00@Z 0041700e f i libvcruntime:frame.obj
 0001:00016022       ?_CallMemberFunction2@@YGXQAX00H@Z 00417022 f i libvcruntime:frame.obj
 0001:00016039       ?begin@HandlerMap@__FrameHandler3@@QAE?AViterator@12@XZ 00417039 f i libvcruntime:frame.obj
 0001:0001604d       ?end@HandlerMap@__FrameHandler3@@QAE?AViterator@12@XZ 0041704d f i libvcruntime:frame.obj
 0001:00016062       ?getESTypes@__FrameHandler3@@SAPBU_s_ESTypeList@@PBU_s_FuncInfo@@@Z 00417062 f i libvcruntime:frame.obj
 0001:0001606f       ?getLastEntry@HandlerMap@__FrameHandler3@@QAEPBU_s_HandlerType@@XZ 0041706f f i libvcruntime:frame.obj
 0001:00016080       ?getMagicNum@__FrameHandler3@@SAIPBU_s_FuncInfo@@@Z 00417080 f i libvcruntime:frame.obj
 0001:00016092       ?getNumTryBlocks@TryBlockMap@__FrameHandler3@@QAEIXZ 00417092 f i libvcruntime:frame.obj
 0001:00016098       ?isEHs@__FrameHandler3@@SA_NPBU_s_FuncInfo@@@Z 00417098 f i libvcruntime:frame.obj
 0001:000160a8       ?isNoExcept@__FrameHandler3@@SA_NPBU_s_FuncInfo@@@Z 004170a8 f i libvcruntime:frame.obj
 0001:000160bc       ?what@exception@std@@UBEPBDXZ 004170bc f i libvcruntime:frame.obj
 0001:000160cd       ___BuildCatchObject        004170cd f   libvcruntime:frame.obj
 0001:000160d2       ___BuildCatchObjectHelper  004170d2 f   libvcruntime:frame.obj
 0001:000160dd       ___TypeMatch               004170dd f   libvcruntime:frame.obj
 0001:000160e8       ___vcrt_EncodePointer      004170e8 f i libvcruntime:frame.obj
 0001:00016100       __CallSettingFrame@12      00417100 f   libvcruntime:lowhelpr.obj
 0001:00016127       __NLG_Return               00417127     libvcruntime:lowhelpr.obj
 0001:0001617b       __get_unexpected           0041717b f   libvcruntime:unexpected.obj
 0001:00016195       _set_unexpected            00417195 f   libvcruntime:unexpected.obj
 0001:000161bb       _unexpected                004171bb f   libvcruntime:unexpected.obj
 0001:000161df       ?GetCurrentState@__FrameHandler3@@SAHPAUEHRegistrationNode@@PAXPBU_s_FuncInfo@@@Z 004171df f   libvcruntime:ehstate.obj
 0001:00016203       ?SetState@__FrameHandler3@@SAXPAUEHRegistrationNode@@PBU_s_FuncInfo@@H@Z 00417203 f   libvcruntime:ehstate.obj
 0001:00016214       ??$?RD@__crt_public_free_policy@@QBEXQBD@Z 00417214 f i libvcruntime:std_exception.obj
 0001:00016228       ??0?$__crt_unique_heap_ptr@DU__crt_public_free_policy@@@@QAE@QAD@Z 00417228 f i libvcruntime:std_exception.obj
 0001:00016239       ??1?$__crt_unique_heap_ptr@DU__crt_public_free_policy@@@@QAE@XZ 00417239 f i libvcruntime:std_exception.obj
 0001:0001624d       ??B?$__crt_unique_heap_ptr@DU__crt_public_free_policy@@@@QBE_NXZ 0041724d f i libvcruntime:std_exception.obj
 0001:00016254       ?detach@?$__crt_unique_heap_ptr@DU__crt_public_free_policy@@@@QAEPADXZ 00417254 f i libvcruntime:std_exception.obj
 0001:0001625a       ?get@?$__crt_unique_heap_ptr@DU__crt_public_free_policy@@@@QBEPADXZ 0041725a f i libvcruntime:std_exception.obj
 0001:0001625d       ?is_valid@?$__crt_unique_heap_ptr@DU__crt_public_free_policy@@@@QBE_NXZ 0041725d f i libvcruntime:std_exception.obj
 0001:00016264       ?release@?$__crt_unique_heap_ptr@DU__crt_public_free_policy@@@@QAEXXZ 00417264 f i libvcruntime:std_exception.obj
 0001:00016278       ___std_exception_copy      00417278 f   libvcruntime:std_exception.obj
 0001:000162f3       ___std_exception_destroy   004172f3 f   libvcruntime:std_exception.obj
 0001:00016319       __CxxThrowException@8      00417319 f   libvcruntime:throw.obj
 0001:000163b0       _memmove                   004173b0 f   libvcruntime:memmove.obj
 0001:00016c6d       ___acrt_locale_changed     00417c6d f i libucrt:_ctype.obj
 0001:00016c7a       ___acrt_locale_get_ctype_array_value 00417c7a f i libucrt:_ctype.obj
 0001:00016cb0       ___isascii                 00417cb0 f   libucrt:_ctype.obj
 0001:00016cd0       ___iscsym                  00417cd0 f   libucrt:_ctype.obj
 0001:00016d60       ___iscsymf                 00417d60 f   libucrt:_ctype.obj
 0001:00016e20       ___toascii                 00417e20 f   libucrt:_ctype.obj
 0001:00016e30       __isalnum_l                00417e30 f   libucrt:_ctype.obj
 0001:00016f30       __isalpha_l                00417f30 f   libucrt:_ctype.obj
 0001:00017030       __isblank_l                00418030 f   libucrt:_ctype.obj
 0001:00017120       __iscntrl_l                00418120 f   libucrt:_ctype.obj
 0001:00017210       __iscsym_l                 00418210 f   libucrt:_ctype.obj
 0001:00017300       __iscsymf_l                00418300 f   libucrt:_ctype.obj
 0001:000173f0       __isdigit_l                004183f0 f   libucrt:_ctype.obj
 0001:000174e0       __isgraph_l                004184e0 f   libucrt:_ctype.obj
 0001:000175e0       __islower_l                004185e0 f   libucrt:_ctype.obj
 0001:000176d0       __isprint_l                004186d0 f   libucrt:_ctype.obj
 0001:000177d0       __ispunct_l                004187d0 f   libucrt:_ctype.obj
 0001:000178c0       __isspace_l                004188c0 f   libucrt:_ctype.obj
 0001:000179b0       __isupper_l                004189b0 f   libucrt:_ctype.obj
 0001:00017aa0       __isxdigit_l               00418aa0 f   libucrt:_ctype.obj
 0001:00017ba0       _isalnum                   00418ba0 f   libucrt:_ctype.obj
 0001:00017c50       _isalpha                   00418c50 f   libucrt:_ctype.obj
 0001:00017d00       _isblank                   00418d00 f   libucrt:_ctype.obj
 0001:00017dc0       _iscntrl                   00418dc0 f   libucrt:_ctype.obj
 0001:00017e70       _isdigit                   00418e70 f   libucrt:_ctype.obj
 0001:00017f20       _isgraph                   00418f20 f   libucrt:_ctype.obj
 0001:00017fd0       _islower                   00418fd0 f   libucrt:_ctype.obj
 0001:00018080       _isprint                   00419080 f   libucrt:_ctype.obj
 0001:00018130       _ispunct                   00419130 f   libucrt:_ctype.obj
 0001:000181e0       _isspace                   004191e0 f   libucrt:_ctype.obj
 0001:00018290       _isupper                   00419290 f   libucrt:_ctype.obj
 0001:00018340       _isxdigit                  00419340 f   libucrt:_ctype.obj
 0001:00018659       ??0_LocaleUpdate@@QAE@QAU__crt_locale_pointers@@@Z 00419659 f i libucrt:tolower_toupper.obj
 0001:000186fb       ??1_LocaleUpdate@@QAE@XZ   004196fb f i libucrt:tolower_toupper.obj
 0001:0001870f       ?GetLocaleT@_LocaleUpdate@@QAEPAU__crt_locale_pointers@@XZ 0041970f f i libucrt:tolower_toupper.obj
 0001:000187d8       ___acrt_disable_global_locale_sync 004197d8 f i libucrt:tolower_toupper.obj
 0001:000187ef       ___acrt_enable_global_locale_sync 004197ef f i libucrt:tolower_toupper.obj
 0001:00018809       ___ascii_tolower           00419809 f i libucrt:tolower_toupper.obj
 0001:00018825       ___ascii_toupper           00419825 f i libucrt:tolower_toupper.obj
 0001:00018841       __ctype_fast_check_internal 00419841 f i libucrt:tolower_toupper.obj
 0001:00018861       __isleadbyte_fast_internal 00419861 f i libucrt:tolower_toupper.obj
 0001:00018886       __tolower                  00419886 f   libucrt:tolower_toupper.obj
 0001:00018896       __tolower_fast_internal    00419896 f i libucrt:tolower_toupper.obj
 0001:000188b5       __tolower_l                004198b5 f   libucrt:tolower_toupper.obj
 0001:000189f2       __toupper                  004199f2 f   libucrt:tolower_toupper.obj
 0001:00018a02       __toupper_fast_internal    00419a02 f i libucrt:tolower_toupper.obj
 0001:00018a21       __toupper_l                00419a21 f   libucrt:tolower_toupper.obj
 0001:00018b5e       _tolower                   00419b5e f   libucrt:tolower_toupper.obj
 0001:00018b9a       _toupper                   00419b9a f   libucrt:tolower_toupper.obj
 0001:00018be0       _strncmp                   00419be0 f   libucrt:strncmp.obj
 0001:00018c76       __set_abort_behavior       00419c76 f   libucrt:abort.obj
 0001:00018c9f       _abort                     00419c9f f   libucrt:abort.obj
 0001:00018cf4       _rand                      00419cf4 f   libucrt:rand.obj
 0001:00018d1d       _srand                     00419d1d f   libucrt:rand.obj
 0001:00018d33       ??$is_overflow_condition@K@__crt_strtox@@YA_NIK@Z 00419d33 f i libucrt:atox.obj
 0001:00018d74       ??$is_overflow_condition@_K@__crt_strtox@@YA_NI_K@Z 00419d74 f i libucrt:atox.obj
 0001:00018dc5       ??$make_c_string_character_source@D$$T@__crt_strtox@@YA?AV?$c_string_character_source@D@0@QBD$$T@Z 00419dc5 f i libucrt:atox.obj
 0001:00018de6       ??$make_c_string_character_source@_W$$T@__crt_strtox@@YA?AV?$c_string_character_source@_W@0@QB_W$$T@Z 00419de6 f i libucrt:atox.obj
 0001:00018e07       ??$parse_integer@KV?$c_string_character_source@D@__crt_strtox@@$00@__crt_strtox@@YAKAAV__crt_cached_ptd_host@@V?$c_string_character_source@D@0@H_N@Z 00419e07 f i libucrt:atox.obj
 0001:000190df       ??$parse_integer@KV?$c_string_character_source@_W@__crt_strtox@@$00@__crt_strtox@@YAKAAV__crt_cached_ptd_host@@V?$c_string_character_source@_W@0@H_N@Z 0041a0df f i libucrt:atox.obj
 0001:00019870       ??$parse_integer@_KV?$c_string_character_source@D@__crt_strtox@@$00@__crt_strtox@@YA_KAAV__crt_cached_ptd_host@@V?$c_string_character_source@D@0@H_N@Z 0041a870 f i libucrt:atox.obj
 0001:00019bea       ??$parse_integer@_KV?$c_string_character_source@_W@__crt_strtox@@$00@__crt_strtox@@YA_KAAV__crt_cached_ptd_host@@V?$c_string_character_source@_W@0@H_N@Z 0041abea f i libucrt:atox.obj
 0001:0001a411       ??$parse_integer_from_string@JD$$T@__crt_strtox@@YAJQBD$$THQAU__crt_locale_pointers@@@Z 0041b411 f i libucrt:atox.obj
 0001:0001a469       ??$parse_integer_from_string@J_W$$T@__crt_strtox@@YAJQB_W$$THQAU__crt_locale_pointers@@@Z 0041b469 f i libucrt:atox.obj
 0001:0001a4c1       ??$parse_integer_from_string@_JD$$T@__crt_strtox@@YA_JQBD$$THQAU__crt_locale_pointers@@@Z 0041b4c1 f i libucrt:atox.obj
 0001:0001a521       ??$parse_integer_from_string@_J_W$$T@__crt_strtox@@YA_JQB_W$$THQAU__crt_locale_pointers@@@Z 0041b521 f i libucrt:atox.obj
 0001:0001a581       ??0?$c_string_character_source@D@__crt_strtox@@QAE@QBDQAPBD@Z 0041b581 f i libucrt:atox.obj
 0001:0001a5a4       ??0?$c_string_character_source@_W@__crt_strtox@@QAE@QB_WQAPB_W@Z 0041b5a4 f i libucrt:atox.obj
 0001:0001a5c7       ??0?$cached@H@__crt_cached_ptd_host@@QAE@XZ 0041b5c7 f i libucrt:atox.obj
 0001:0001a5ce       ??0?$cached@K@__crt_cached_ptd_host@@QAE@XZ 0041b5ce f i libucrt:atox.obj
 0001:0001a5e0       ??0__crt_cached_ptd_host@@QAE@QAU__crt_locale_pointers@@@Z 0041b5e0 f i libucrt:atox.obj
 0001:0001a654       ??0__crt_scoped_get_last_error_reset@@QAE@XZ 0041b654 f i libucrt:atox.obj
 0001:0001a669       ??1?$c_string_character_source@D@__crt_strtox@@QAE@XZ 0041b669 f i libucrt:atox.obj
 0001:0001a678       ??1?$c_string_character_source@_W@__crt_strtox@@QAE@XZ 0041b678 f i libucrt:atox.obj
 0001:0001a690       ??1__crt_cached_ptd_host@@QAE@XZ 0041b690 f i libucrt:atox.obj
 0001:0001a6db       ??1__crt_scoped_get_last_error_reset@@QAE@XZ 0041b6db f i libucrt:atox.obj
 0001:0001a6f0       ?check_synchronize_global_state_index@__crt_cached_ptd_host@@AAEIABV__crt_scoped_get_last_error_reset@@@Z 0041b6f0 f i libucrt:atox.obj
 0001:0001a720       ?check_synchronize_per_thread_data@__crt_cached_ptd_host@@AAEPAU__acrt_ptd@@XZ 0041b720 f i libucrt:atox.obj
 0001:0001a7a0       ?force_synchronize_global_state_index@__crt_cached_ptd_host@@AAEIABV__crt_scoped_get_last_error_reset@@@Z 0041b7a0 f i libucrt:atox.obj
 0001:0001a7c0       ?force_synchronize_per_thread_data@__crt_cached_ptd_host@@AAEPAU__acrt_ptd@@XZ 0041b7c0 f i libucrt:atox.obj
 0001:0001a820       ?get@?$c_string_character_source@D@__crt_strtox@@QAEDXZ 0041b820 f i libucrt:atox.obj
 0001:0001a82a       ?get@?$c_string_character_source@_W@__crt_strtox@@QAE_WXZ 0041b82a f i libucrt:atox.obj
 0001:0001a837       ?get_current_state_index@__crt_state_management@@YAIABV__crt_scoped_get_last_error_reset@@@Z 0041b837 f i libucrt:atox.obj
 0001:0001a840       ?get_errno@__crt_cached_ptd_host@@QAE@XZ 0041b840 f i libucrt:atox.obj
 0001:0001a850       ?get_locale@__crt_cached_ptd_host@@QAEPAU__crt_locale_pointers@@XZ 0041b850 f i libucrt:atox.obj
 0001:0001a870       ?get_raw_ptd@__crt_cached_ptd_host@@QAEPAU__acrt_ptd@@XZ 0041b870 f i libucrt:atox.obj
 0001:0001a8e3       ?is_space@__crt_strtox@@YA_NDQAU__crt_locale_pointers@@@Z 0041b8e3 f i libucrt:atox.obj
 0001:0001a908       ?is_space@__crt_strtox@@YA_N_WPAU__crt_locale_pointers@@@Z 0041b908 f i libucrt:atox.obj
 0001:0001a926       ?maximum_signed_value@__crt_strtox@@YAJK@Z 0041b926 f i libucrt:atox.obj
 0001:0001a92c       ?maximum_signed_value@__crt_strtox@@YA_J_K@Z 0041b92c f i libucrt:atox.obj
 0001:0001a937       ?minimum_signed_value@__crt_strtox@@YAJK@Z 0041b937 f i libucrt:atox.obj
 0001:0001a93d       ?minimum_signed_value@__crt_strtox@@YA_J_K@Z 0041b93d f i libucrt:atox.obj
 0001:0001a947       ?parse_digit@__crt_strtox@@YAID@Z 0041b947 f i libucrt:atox.obj
 0001:0001a98f       ?parse_digit@__crt_strtox@@YAI_W@Z 0041b98f f i libucrt:atox.obj
 0001:0001abc9       ?restore_state@?$c_string_character_source@D@__crt_strtox@@QAE_NQBD@Z 0041bbc9 f i libucrt:atox.obj
 0001:0001abdd       ?restore_state@?$c_string_character_source@_W@__crt_strtox@@QAE_NQB_W@Z 0041bbdd f i libucrt:atox.obj
 0001:0001abf1       ?save_state@?$c_string_character_source@D@__crt_strtox@@QBEPBDXZ 0041bbf1 f i libucrt:atox.obj
 0001:0001abf4       ?save_state@?$c_string_character_source@_W@__crt_strtox@@QBEPB_WXZ 0041bbf4 f i libucrt:atox.obj
 0001:0001abf7       ?set@?$cached@H@__crt_cached_ptd_host@@QAEHH@Z 0041bbf7 f i libucrt:atox.obj
 0001:0001ac0d       ?unget@?$c_string_character_source@D@__crt_strtox@@QAEXD@Z 0041bc0d f i libucrt:atox.obj
 0001:0001ac40       ?unget@?$c_string_character_source@_W@__crt_strtox@@QAEX_W@Z 0041bc40 f i libucrt:atox.obj
 0001:0001ac79       ?unsafe_value@?$cached@H@__crt_cached_ptd_host@@QAEHXZ 0041bc79 f i libucrt:atox.obj
 0001:0001ac7c       ?unsafe_value@?$cached@K@__crt_cached_ptd_host@@QAEKXZ 0041bc7c f i libucrt:atox.obj
 0001:0001ac80       ?update_locale@__crt_cached_ptd_host@@AAEXXZ 0041bc80 f i libucrt:atox.obj
 0001:0001ac90       ?update_locale_slow@__crt_cached_ptd_host@@AAEXXZ 0041bc90 f i libucrt:atox.obj
 0001:0001ad01       ?valid@?$cached@H@__crt_cached_ptd_host@@QBE_NXZ 0041bd01 f i libucrt:atox.obj
 0001:0001ad05       ?valid@?$cached@K@__crt_cached_ptd_host@@QBE_NXZ 0041bd05 f i libucrt:atox.obj
 0001:0001ad09       ?validate@?$c_string_character_source@D@__crt_strtox@@QBE_NXZ 0041bd09 f i libucrt:atox.obj
 0001:0001ad2a       ?validate@?$c_string_character_source@_W@__crt_strtox@@QBE_NXZ 0041bd2a f i libucrt:atox.obj
 0001:0001ad4b       ?wide_character_to_digit@__crt_strtox@@YAH_W@Z 0041bd4b f i libucrt:atox.obj
 0001:0001af54       ___acrt_get_locale_data_prefix 0041bf54 f i libucrt:atox.obj
 0001:0001af63       ___ascii_iswalpha          0041bf63 f i libucrt:atox.obj
 0001:0001af8e       ___ascii_towupper          0041bf8e f i libucrt:atox.obj
 0001:0001afaa       __atoi64                   0041bfaa f   libucrt:atox.obj
 0001:0001b000       __atoi64_l                 0041c000 f   libucrt:atox.obj
 0001:0001b057       __atoi_l                   0041c057 f   libucrt:atox.obj
 0001:0001b0a7       __atol_l                   0041c0a7 f   libucrt:atox.obj
 0001:0001b0f7       __atoll_l                  0041c0f7 f   libucrt:atox.obj
 0001:0001b14e       __chvalidchk_l             0041c14e f i libucrt:atox.obj
 0001:0001b180       __ischartype_l             0041c180 f i libucrt:atox.obj
 0001:0001b1ec       __wtoi                     0041c1ec f   libucrt:atox.obj
 0001:0001b23a       __wtoi64                   0041c23a f   libucrt:atox.obj
 0001:0001b290       __wtoi64_l                 0041c290 f   libucrt:atox.obj
 0001:0001b2e7       __wtoi_l                   0041c2e7 f   libucrt:atox.obj
 0001:0001b337       __wtol                     0041c337 f   libucrt:atox.obj
 0001:0001b385       __wtol_l                   0041c385 f   libucrt:atox.obj
 0001:0001b3d5       __wtoll                    0041c3d5 f   libucrt:atox.obj
 0001:0001b42b       __wtoll_l                  0041c42b f   libucrt:atox.obj
 0001:0001b482       _atoi                      0041c482 f   libucrt:atox.obj
 0001:0001b4d0       _atol                      0041c4d0 f   libucrt:atox.obj
 0001:0001b51e       _atoll                     0041c51e f   libucrt:atox.obj
 0001:0001b574       ??$?RPAU__crt_stdio_stream_data@@@__crt_internal_free_policy@@QBEXQBQAU__crt_stdio_stream_data@@@Z 0041c574 f i libucrt:_file.obj
 0001:0001b58a       ??0?$__crt_unique_heap_ptr@PAU__crt_stdio_stream_data@@U__crt_internal_free_policy@@@@QAE@QAPAU__crt_stdio_stream_data@@@Z 0041c58a f i libucrt:_file.obj
 0001:0001b59e       ??0__crt_stdio_stream@@QAE@QAU_iobuf@@@Z 0041c59e f i libucrt:_file.obj
 0001:0001b5b2       ??1?$__crt_unique_heap_ptr@PAU__crt_stdio_stream_data@@U__crt_internal_free_policy@@@@QAE@XZ 0041c5b2 f i libucrt:_file.obj
 0001:0001b5c8       ??C__crt_stdio_stream@@QBEPAU__crt_stdio_stream_data@@XZ 0041c5c8 f i libucrt:_file.obj
 0001:0001b5cb       ?detach@?$__crt_unique_heap_ptr@PAU__crt_stdio_stream_data@@U__crt_internal_free_policy@@@@QAEPAPAU__crt_stdio_stream_data@@XZ 0041c5cb f i libucrt:_file.obj
 0001:0001b5d1       ?release@?$__crt_unique_heap_ptr@PAU__crt_stdio_stream_data@@U__crt_internal_free_policy@@@@QAEXXZ 0041c5d1 f i libucrt:_file.obj
 0001:0001b5e7       ___acrt_initialize_stdio   0041c5e7 f   libucrt:_file.obj
 0001:0001b6e1       ___acrt_iob_func           0041c6e1 f   libucrt:_file.obj
 0001:0001b6f5       ___acrt_uninitialize_stdio 0041c6f5 f   libucrt:_file.obj
 0001:0001b754       __get_stream_buffer_pointers 0041c754 f   libucrt:_file.obj
 0001:0001b7ab       __lock_file                0041c7ab f   libucrt:_file.obj
 0001:0001b7c4       __unlock_file              0041c7c4 f   libucrt:_file.obj
 0001:0001b7dd       ??$__crt_interlocked_read@J@@YAJPDJ@Z 0041c7dd f i libucrt:fgetc.obj
 0001:0001b7ed       ?get_flags@__crt_stdio_stream@@QBEJXZ 0041c7ed f i libucrt:fgetc.obj
 0001:0001b7f4       ?is_string_backed@__crt_stdio_stream@@QBE_NXZ 0041c7f4 f i libucrt:fgetc.obj
 0001:0001b803       ?public_stream@__crt_stdio_stream@@QBEPAU_iobuf@@XZ 0041c803 f i libucrt:fgetc.obj
 0001:0001b806       ?valid@__crt_stdio_stream@@QBE_NXZ 0041c806 f i libucrt:fgetc.obj
 0001:0001b80d       __fgetc_nolock             0041c80d f   libucrt:fgetc.obj
 0001:0001b858       __fgetchar                 0041c858 f   libucrt:fgetc.obj
 0001:0001b86c       __getc_nolock              0041c86c f   libucrt:fgetc.obj
 0001:0001b879       _fgetc                     0041c879 f   libucrt:fgetc.obj
 0001:0001b9d8       _getc                      0041c9d8 f   libucrt:fgetc.obj
 0001:0001b9e5       _getchar                   0041c9e5 f   libucrt:fgetc.obj
 0001:0001b9ea       ??$?0ABV?$stream_output_adapter@D@__crt_stdio_output@@AB_KABQBDAAV__crt_cached_ptd_host@@ABQAD@?$format_validation_base@DV?$stream_output_adapter@D@__crt_stdio_output@@@__crt_stdio_output@@IAE@ABV?$stream_output_adapter@D@1@AB_KABQBDAAV__crt_cached_ptd_host@@ABQAD@Z 0041c9ea f i libucrt:output.obj
 0001:0001ba15       ??$?0ABV?$stream_output_adapter@D@__crt_stdio_output@@AB_KABQBDAAV__crt_cached_ptd_host@@ABQAD@?$positional_parameter_base@DV?$stream_output_adapter@D@__crt_stdio_output@@@__crt_stdio_output@@IAE@ABV?$stream_output_adapter@D@1@AB_KABQBDAAV__crt_cached_ptd_host@@ABQAD@Z 0041ca15 f i libucrt:output.obj
 0001:0001ba6f       ??$?0ABV?$stream_output_adapter@D@__crt_stdio_output@@AB_KABQBDAAV__crt_cached_ptd_host@@ABQAD@?$standard_base@DV?$stream_output_adapter@D@__crt_stdio_output@@@__crt_stdio_output@@IAE@ABV?$stream_output_adapter@D@1@AB_KABQBDAAV__crt_cached_ptd_host@@ABQAD@Z 0041ca6f f i libucrt:output.obj
 0001:0001baae       ??$?0ABV?$stream_output_adapter@_W@__crt_stdio_output@@AB_KABQB_WAAV__crt_cached_ptd_host@@ABQAD@?$format_validation_base@_WV?$stream_output_adapter@_W@__crt_stdio_output@@@__crt_stdio_output@@IAE@ABV?$stream_output_adapter@_W@1@AB_KABQB_WAAV__crt_cached_ptd_host@@ABQAD@Z 0041caae f i libucrt:output.obj
 0001:0001bad9       ??$?0ABV?$stream_output_adapter@_W@__crt_stdio_output@@AB_KABQB_WAAV__crt_cached_ptd_host@@ABQAD@?$positional_parameter_base@_WV?$stream_output_adapter@_W@__crt_stdio_output@@@__crt_stdio_output@@IAE@ABV?$stream_output_adapter@_W@1@AB_KABQB_WAAV__crt_cached_ptd_host@@ABQAD@Z 0041cad9 f i libucrt:output.obj
 0001:0001bb33       ??$?0ABV?$stream_output_adapter@_W@__crt_stdio_output@@AB_KABQB_WAAV__crt_cached_ptd_host@@ABQAD@?$standard_base@_WV?$stream_output_adapter@_W@__crt_stdio_output@@@__crt_stdio_output@@IAE@ABV?$stream_output_adapter@_W@1@AB_KABQB_WAAV__crt_cached_ptd_host@@ABQAD@Z 0041cb33 f i libucrt:output.obj
 0001:0001bb72       ??$?0ABV?$string_output_adapter@D@__crt_stdio_output@@AB_KABQBDAAV__crt_cached_ptd_host@@ABQAD@?$format_validation_base@DV?$string_output_adapter@D@__crt_stdio_output@@@__crt_stdio_output@@IAE@ABV?$string_output_adapter@D@1@AB_KABQBDAAV__crt_cached_ptd_host@@ABQAD@Z 0041cb72 f i libucrt:output.obj
 0001:0001bb9d       ??$?0ABV?$string_output_adapter@D@__crt_stdio_output@@AB_KABQBDAAV__crt_cached_ptd_host@@ABQAD@?$positional_parameter_base@DV?$string_output_adapter@D@__crt_stdio_output@@@__crt_stdio_output@@IAE@ABV?$string_output_adapter@D@1@AB_KABQBDAAV__crt_cached_ptd_host@@ABQAD@Z 0041cb9d f i libucrt:output.obj
 0001:0001bbf7       ??$?0ABV?$string_output_adapter@D@__crt_stdio_output@@AB_KABQBDAAV__crt_cached_ptd_host@@ABQAD@?$standard_base@DV?$string_output_adapter@D@__crt_stdio_output@@@__crt_stdio_output@@IAE@ABV?$string_output_adapter@D@1@AB_KABQBDAAV__crt_cached_ptd_host@@ABQAD@Z 0041cbf7 f i libucrt:output.obj
 0001:0001bc36       ??$?0ABV?$string_output_adapter@_W@__crt_stdio_output@@AB_KABQB_WAAV__crt_cached_ptd_host@@ABQAD@?$format_validation_base@_WV?$string_output_adapter@_W@__crt_stdio_output@@@__crt_stdio_output@@IAE@ABV?$string_output_adapter@_W@1@AB_KABQB_WAAV__crt_cached_ptd_host@@ABQAD@Z 0041cc36 f i libucrt:output.obj
 0001:0001bc61       ??$?0ABV?$string_output_adapter@_W@__crt_stdio_output@@AB_KABQB_WAAV__crt_cached_ptd_host@@ABQAD@?$positional_parameter_base@_WV?$string_output_adapter@_W@__crt_stdio_output@@@__crt_stdio_output@@IAE@ABV?$string_output_adapter@_W@1@AB_KABQB_WAAV__crt_cached_ptd_host@@ABQAD@Z 0041cc61 f i libucrt:output.obj
 0001:0001bcbb       ??$?0ABV?$string_output_adapter@_W@__crt_stdio_output@@AB_KABQB_WAAV__crt_cached_ptd_host@@ABQAD@?$standard_base@_WV?$string_output_adapter@_W@__crt_stdio_output@@@__crt_stdio_output@@IAE@ABV?$string_output_adapter@_W@1@AB_KABQB_WAAV__crt_cached_ptd_host@@ABQAD@Z 0041ccbb f i libucrt:output.obj
 0001:0001c0ba       ??$_tcstol_internal@DPAPAD$0A@@@YAJAAV__crt_cached_ptd_host@@QBDQAPADH@Z 0041d0ba f i libucrt:output.obj
 0001:0001c0ef       ??$_tcstol_internal@_WPAPA_W$0A@@@YAJAAV__crt_cached_ptd_host@@QB_WQAPA_WH@Z 0041d0ef f i libucrt:output.obj
 0001:0001d418       ??$count@D@formatting_buffer@__crt_stdio_output@@QBEIXZ 0041e418 f i libucrt:output.obj
 0001:0001d436       ??$count@_W@formatting_buffer@__crt_stdio_output@@QBEIXZ 0041e436 f i libucrt:output.obj
 0001:0001d455       ??$data@D@formatting_buffer@__crt_stdio_output@@QAEPADXZ 0041e455 f i libucrt:output.obj
 0001:0001d465       ??$data@_W@formatting_buffer@__crt_stdio_output@@QAEPA_WXZ 0041e465 f i libucrt:output.obj
 0001:0001d475       ??$ensure_buffer_is_big_enough@D@formatting_buffer@__crt_stdio_output@@QAE_NIAAV__crt_cached_ptd_host@@@Z 0041e475 f i libucrt:output.obj
 0001:0001d516       ??$ensure_buffer_is_big_enough@_W@formatting_buffer@__crt_stdio_output@@QAE_NIAAV__crt_cached_ptd_host@@@Z 0041e516 f i libucrt:output.obj
 0001:0001d5b8       ??$extract_argument_from_va_list@C_J@?$positional_parameter_base@DV?$stream_output_adapter@D@__crt_stdio_output@@@__crt_stdio_output@@IAE_NAA_J@Z 0041e5b8 f i libucrt:output.obj
 0001:0001d66a       ??$extract_argument_from_va_list@C_J@?$positional_parameter_base@DV?$string_output_adapter@D@__crt_stdio_output@@@__crt_stdio_output@@IAE_NAA_J@Z 0041e66a f i libucrt:output.obj
 0001:0001d71c       ??$extract_argument_from_va_list@C_J@?$positional_parameter_base@_WV?$stream_output_adapter@_W@__crt_stdio_output@@@__crt_stdio_output@@IAE_NAA_J@Z 0041e71c f i libucrt:output.obj
 0001:0001d7d0       ??$extract_argument_from_va_list@C_J@?$positional_parameter_base@_WV?$string_output_adapter@_W@__crt_stdio_output@@@__crt_stdio_output@@IAE_NAA_J@Z 0041e7d0 f i libucrt:output.obj
 0001:0001d884       ??$extract_argument_from_va_list@C_J@?$standard_base@DV?$stream_output_adapter@D@__crt_stdio_output@@@__crt_stdio_output@@IAE_NAA_J@Z 0041e884 f i libucrt:output.obj
 0001:0001d8ac       ??$extract_argument_from_va_list@C_J@?$standard_base@DV?$string_output_adapter@D@__crt_stdio_output@@@__crt_stdio_output@@IAE_NAA_J@Z 0041e8ac f i libucrt:output.obj
 0001:0001d8d4       ??$extract_argument_from_va_list@C_J@?$standard_base@_WV?$stream_output_adapter@_W@__crt_stdio_output@@@__crt_stdio_output@@IAE_NAA_J@Z 0041e8d4 f i libucrt:output.obj
 0001:0001d8fc       ??$extract_argument_from_va_list@C_J@?$standard_base@_WV?$string_output_adapter@_W@__crt_stdio_output@@@__crt_stdio_output@@IAE_NAA_J@Z 0041e8fc f i libucrt:output.obj
 0001:0001d924       ??$extract_argument_from_va_list@E_J@?$positional_parameter_base@DV?$stream_output_adapter@D@__crt_stdio_output@@@__crt_stdio_output@@IAE_NAA_J@Z 0041e924 f i libucrt:output.obj
 0001:0001d9d6       ??$extract_argument_from_va_list@E_J@?$positional_parameter_base@DV?$string_output_adapter@D@__crt_stdio_output@@@__crt_stdio_output@@IAE_NAA_J@Z 0041e9d6 f i libucrt:output.obj
 0001:0001da88       ??$extract_argument_from_va_list@E_J@?$positional_parameter_base@_WV?$stream_output_adapter@_W@__crt_stdio_output@@@__crt_stdio_output@@IAE_NAA_J@Z 0041ea88 f i libucrt:output.obj
 0001:0001db3c       ??$extract_argument_from_va_list@E_J@?$positional_parameter_base@_WV?$string_output_adapter@_W@__crt_stdio_output@@@__crt_stdio_output@@IAE_NAA_J@Z 0041eb3c f i libucrt:output.obj
 0001:0001dbf0       ??$extract_argument_from_va_list@E_J@?$standard_base@DV?$stream_output_adapter@D@__crt_stdio_output@@@__crt_stdio_output@@IAE_NAA_J@Z 0041ebf0 f i libucrt:output.obj
 0001:0001dc18       ??$extract_argument_from_va_list@E_J@?$standard_base@DV?$string_output_adapter@D@__crt_stdio_output@@@__crt_stdio_output@@IAE_NAA_J@Z 0041ec18 f i libucrt:output.obj
 0001:0001dc40       ??$extract_argument_from_va_list@E_J@?$standard_base@_WV?$stream_output_adapter@_W@__crt_stdio_output@@@__crt_stdio_output@@IAE_NAA_J@Z 0041ec40 f i libucrt:output.obj
 0001:0001dc68       ??$extract_argument_from_va_list@E_J@?$standard_base@_WV?$string_output_adapter@_W@__crt_stdio_output@@@__crt_stdio_output@@IAE_NAA_J@Z 0041ec68 f i libucrt:output.obj
 0001:0001dc90       ??$extract_argument_from_va_list@F_J@?$positional_parameter_base@DV?$stream_output_adapter@D@__crt_stdio_output@@@__crt_stdio_output@@IAE_NAA_J@Z 0041ec90 f i libucrt:output.obj
 0001:0001dd42       ??$extract_argument_from_va_list@F_J@?$positional_parameter_base@DV?$string_output_adapter@D@__crt_stdio_output@@@__crt_stdio_output@@IAE_NAA_J@Z 0041ed42 f i libucrt:output.obj
 0001:0001ddf4       ??$extract_argument_from_va_list@F_J@?$positional_parameter_base@_WV?$stream_output_adapter@_W@__crt_stdio_output@@@__crt_stdio_output@@IAE_NAA_J@Z 0041edf4 f i libucrt:output.obj
 0001:0001dea8       ??$extract_argument_from_va_list@F_J@?$positional_parameter_base@_WV?$string_output_adapter@_W@__crt_stdio_output@@@__crt_stdio_output@@IAE_NAA_J@Z 0041eea8 f i libucrt:output.obj
 0001:0001df5c       ??$extract_argument_from_va_list@F_J@?$standard_base@DV?$stream_output_adapter@D@__crt_stdio_output@@@__crt_stdio_output@@IAE_NAA_J@Z 0041ef5c f i libucrt:output.obj
 0001:0001df84       ??$extract_argument_from_va_list@F_J@?$standard_base@DV?$string_output_adapter@D@__crt_stdio_output@@@__crt_stdio_output@@IAE_NAA_J@Z 0041ef84 f i libucrt:output.obj
 0001:0001dfac       ??$extract_argument_from_va_list@F_J@?$standard_base@_WV?$stream_output_adapter@_W@__crt_stdio_output@@@__crt_stdio_output@@IAE_NAA_J@Z 0041efac f i libucrt:output.obj
 0001:0001dfd4       ??$extract_argument_from_va_list@F_J@?$standard_base@_WV?$string_output_adapter@_W@__crt_stdio_output@@@__crt_stdio_output@@IAE_NAA_J@Z 0041efd4 f i libucrt:output.obj
 0001:0001dffc       ??$extract_argument_from_va_list@GD@?$positional_parameter_base@DV?$stream_output_adapter@D@__crt_stdio_output@@@__crt_stdio_output@@IAE_NAAD@Z 0041effc f i libucrt:output.obj
 0001:0001e0ad       ??$extract_argument_from_va_list@GD@?$positional_parameter_base@DV?$string_output_adapter@D@__crt_stdio_output@@@__crt_stdio_output@@IAE_NAAD@Z 0041f0ad f i libucrt:output.obj
 0001:0001e15e       ??$extract_argument_from_va_list@GD@?$standard_base@DV?$stream_output_adapter@D@__crt_stdio_output@@@__crt_stdio_output@@IAE_NAAD@Z 0041f15e f i libucrt:output.obj
 0001:0001e17f       ??$extract_argument_from_va_list@GD@?$standard_base@DV?$string_output_adapter@D@__crt_stdio_output@@@__crt_stdio_output@@IAE_NAAD@Z 0041f17f f i libucrt:output.obj
 0001:0001e1a0       ??$extract_argument_from_va_list@G_J@?$positional_parameter_base@DV?$stream_output_adapter@D@__crt_stdio_output@@@__crt_stdio_output@@IAE_NAA_J@Z 0041f1a0 f i libucrt:output.obj
 0001:0001e252       ??$extract_argument_from_va_list@G_J@?$positional_parameter_base@DV?$string_output_adapter@D@__crt_stdio_output@@@__crt_stdio_output@@IAE_NAA_J@Z 0041f252 f i libucrt:output.obj
 0001:0001e304       ??$extract_argument_from_va_list@G_J@?$positional_parameter_base@_WV?$stream_output_adapter@_W@__crt_stdio_output@@@__crt_stdio_output@@IAE_NAA_J@Z 0041f304 f i libucrt:output.obj
 0001:0001e3b8       ??$extract_argument_from_va_list@G_J@?$positional_parameter_base@_WV?$string_output_adapter@_W@__crt_stdio_output@@@__crt_stdio_output@@IAE_NAA_J@Z 0041f3b8 f i libucrt:output.obj
 0001:0001e46c       ??$extract_argument_from_va_list@G_J@?$standard_base@DV?$stream_output_adapter@D@__crt_stdio_output@@@__crt_stdio_output@@IAE_NAA_J@Z 0041f46c f i libucrt:output.obj
 0001:0001e494       ??$extract_argument_from_va_list@G_J@?$standard_base@DV?$string_output_adapter@D@__crt_stdio_output@@@__crt_stdio_output@@IAE_NAA_J@Z 0041f494 f i libucrt:output.obj
 0001:0001e4bc       ??$extract_argument_from_va_list@G_J@?$standard_base@_WV?$stream_output_adapter@_W@__crt_stdio_output@@@__crt_stdio_output@@IAE_NAA_J@Z 0041f4bc f i libucrt:output.obj
 0001:0001e4e4       ??$extract_argument_from_va_list@G_J@?$standard_base@_WV?$string_output_adapter@_W@__crt_stdio_output@@@__crt_stdio_output@@IAE_NAA_J@Z 0041f4e4 f i libucrt:output.obj
 0001:0001e50c       ??$extract_argument_from_va_list@H_J@?$positional_parameter_base@DV?$stream_output_adapter@D@__crt_stdio_output@@@__crt_stdio_output@@IAE_NAA_J@Z 0041f50c f i libucrt:output.obj
 0001:0001e5b7       ??$extract_argument_from_va_list@H_J@?$positional_parameter_base@DV?$string_output_adapter@D@__crt_stdio_output@@@__crt_stdio_output@@IAE_NAA_J@Z 0041f5b7 f i libucrt:output.obj
 0001:0001e662       ??$extract_argument_from_va_list@H_J@?$positional_parameter_base@_WV?$stream_output_adapter@_W@__crt_stdio_output@@@__crt_stdio_output@@IAE_NAA_J@Z 0041f662 f i libucrt:output.obj
 0001:0001e70e       ??$extract_argument_from_va_list@H_J@?$positional_parameter_base@_WV?$string_output_adapter@_W@__crt_stdio_output@@@__crt_stdio_output@@IAE_NAA_J@Z 0041f70e f i libucrt:output.obj
 0001:0001e7ba       ??$extract_argument_from_va_list@H_J@?$standard_base@DV?$stream_output_adapter@D@__crt_stdio_output@@@__crt_stdio_output@@IAE_NAA_J@Z 0041f7ba f i libucrt:output.obj
 0001:0001e7e0       ??$extract_argument_from_va_list@H_J@?$standard_base@DV?$string_output_adapter@D@__crt_stdio_output@@@__crt_stdio_output@@IAE_NAA_J@Z 0041f7e0 f i libucrt:output.obj
 0001:0001e806       ??$extract_argument_from_va_list@H_J@?$standard_base@_WV?$stream_output_adapter@_W@__crt_stdio_output@@@__crt_stdio_output@@IAE_NAA_J@Z 0041f806 f i libucrt:output.obj
 0001:0001e82c       ??$extract_argument_from_va_list@H_J@?$standard_base@_WV?$string_output_adapter@_W@__crt_stdio_output@@@__crt_stdio_output@@IAE_NAA_J@Z 0041f82c f i libucrt:output.obj
 0001:0001e852       ??$extract_argument_from_va_list@I_J@?$positional_parameter_base@DV?$stream_output_adapter@D@__crt_stdio_output@@@__crt_stdio_output@@IAE_NAA_J@Z 0041f852 f i libucrt:output.obj
 0001:0001e90d       ??$extract_argument_from_va_list@I_J@?$positional_parameter_base@DV?$string_output_adapter@D@__crt_stdio_output@@@__crt_stdio_output@@IAE_NAA_J@Z 0041f90d f i libucrt:output.obj
 0001:0001e9c8       ??$extract_argument_from_va_list@I_J@?$positional_parameter_base@_WV?$stream_output_adapter@_W@__crt_stdio_output@@@__crt_stdio_output@@IAE_NAA_J@Z 0041f9c8 f i libucrt:output.obj
 0001:0001ea84       ??$extract_argument_from_va_list@I_J@?$positional_parameter_base@_WV?$string_output_adapter@_W@__crt_stdio_output@@@__crt_stdio_output@@IAE_NAA_J@Z 0041fa84 f i libucrt:output.obj
 0001:0001eb40       ??$extract_argument_from_va_list@I_J@?$standard_base@DV?$stream_output_adapter@D@__crt_stdio_output@@@__crt_stdio_output@@IAE_NAA_J@Z 0041fb40 f i libucrt:output.obj
 0001:0001eb66       ??$extract_argument_from_va_list@I_J@?$standard_base@DV?$string_output_adapter@D@__crt_stdio_output@@@__crt_stdio_output@@IAE_NAA_J@Z 0041fb66 f i libucrt:output.obj
 0001:0001eb8c       ??$extract_argument_from_va_list@I_J@?$standard_base@_WV?$stream_output_adapter@_W@__crt_stdio_output@@@__crt_stdio_output@@IAE_NAA_J@Z 0041fb8c f i libucrt:output.obj
 0001:0001ebb2       ??$extract_argument_from_va_list@I_J@?$standard_base@_WV?$string_output_adapter@_W@__crt_stdio_output@@@__crt_stdio_output@@IAE_NAA_J@Z 0041fbb2 f i libucrt:output.obj
 0001:0001ebd8       ??$extract_argument_from_va_list@PADPAD@?$positional_parameter_base@DV?$stream_output_adapter@D@__crt_stdio_output@@@__crt_stdio_output@@IAE_NAAPAD@Z 0041fbd8 f i libucrt:output.obj
 0001:0001ec89       ??$extract_argument_from_va_list@PADPAD@?$positional_parameter_base@DV?$string_output_adapter@D@__crt_stdio_output@@@__crt_stdio_output@@IAE_NAAPAD@Z 0041fc89 f i libucrt:output.obj
 0001:0001ed3a       ??$extract_argument_from_va_list@PADPAD@?$positional_parameter_base@_WV?$stream_output_adapter@_W@__crt_stdio_output@@@__crt_stdio_output@@IAE_NAAPAD@Z 0041fd3a f i libucrt:output.obj
 0001:0001edec       ??$extract_argument_from_va_list@PADPAD@?$positional_parameter_base@_WV?$string_output_adapter@_W@__crt_stdio_output@@@__crt_stdio_output@@IAE_NAAPAD@Z 0041fdec f i libucrt:output.obj
 0001:0001ee9e       ??$extract_argument_from_va_list@PADPAD@?$standard_base@DV?$stream_output_adapter@D@__crt_stdio_output@@@__crt_stdio_output@@IAE_NAAPAD@Z 0041fe9e f i libucrt:output.obj
 0001:0001eec2       ??$extract_argument_from_va_list@PADPAD@?$standard_base@DV?$string_output_adapter@D@__crt_stdio_output@@@__crt_stdio_output@@IAE_NAAPAD@Z 0041fec2 f i libucrt:output.obj
 0001:0001eee6       ??$extract_argument_from_va_list@PADPAD@?$standard_base@_WV?$stream_output_adapter@_W@__crt_stdio_output@@@__crt_stdio_output@@IAE_NAAPAD@Z 0041fee6 f i libucrt:output.obj
 0001:0001ef0a       ??$extract_argument_from_va_list@PADPAD@?$standard_base@_WV?$string_output_adapter@_W@__crt_stdio_output@@@__crt_stdio_output@@IAE_NAAPAD@Z 0041ff0a f i libucrt:output.obj
 0001:0001ef2e       ??$extract_argument_from_va_list@PAUansi_string@?1??type_case_Z@?$output_processor@DV?$stream_output_adapter@D@__crt_stdio_output@@V?$format_validation_base@DV?$stream_output_adapter@D@__crt_stdio_output@@@2@@__crt_stdio_output@@AAE_NXZ@PAU1?1??234@AAE_NXZ@@?$standard_base@DV?$stream_output_adapter@D@__crt_stdio_output@@@__crt_stdio_output@@IAE_NAAPAUansi_string@?1??type_case_Z@?$output_processor@DV?$stream_output_adapter@D@__crt_stdio_output@@V?$format_validation_base@DV?$stream_output_adapter@D@__crt_stdio_output@@@2@@1@AAE_NXZ@@Z 0041ff2e f i libucrt:output.obj
 0001:0001ef52       ??$extract_argument_from_va_list@PAUansi_string@?1??type_case_Z@?$output_processor@DV?$stream_output_adapter@D@__crt_stdio_output@@V?$positional_parameter_base@DV?$stream_output_adapter@D@__crt_stdio_output@@@2@@__crt_stdio_output@@AAE_NXZ@PAU1?1??234@AAE_NXZ@@?$positional_parameter_base@DV?$stream_output_adapter@D@__crt_stdio_output@@@__crt_stdio_output@@IAE_NAAPAUansi_string@?1??type_case_Z@?$output_processor@DV?$stream_output_adapter@D@__crt_stdio_output@@V?$positional_parameter_base@DV?$stream_output_adapter@D@__crt_stdio_output@@@2@@1@AAE_NXZ@@Z 0041ff52 f i libucrt:output.obj
 0001:0001f003       ??$extract_argument_from_va_list@PAUansi_string@?1??type_case_Z@?$output_processor@DV?$stream_output_adapter@D@__crt_stdio_output@@V?$positional_parameter_base@DV?$stream_output_adapter@D@__crt_stdio_output@@@2@@__crt_stdio_output@@AAE_NXZ@PAU1?1??234@AAE_NXZ@@?$standard_base@DV?$stream_output_adapter@D@__crt_stdio_output@@@__crt_stdio_output@@IAE_NAAPAUansi_string@?1??type_case_Z@?$output_processor@DV?$stream_output_adapter@D@__crt_stdio_output@@V?$positional_parameter_base@DV?$stream_output_adapter@D@__crt_stdio_output@@@2@@1@AAE_NXZ@@Z 00420003 f i libucrt:output.obj
 0001:0001f027       ??$extract_argument_from_va_list@PAUansi_string@?1??type_case_Z@?$output_processor@DV?$stream_output_adapter@D@__crt_stdio_output@@V?$standard_base@DV?$stream_output_adapter@D@__crt_stdio_output@@@2@@__crt_stdio_output@@AAE_NXZ@PAU1?1??234@AAE_NXZ@@?$standard_base@DV?$stream_output_adapter@D@__crt_stdio_output@@@__crt_stdio_output@@IAE_NAAPAUansi_string@?1??type_case_Z@?$output_processor@DV?$stream_output_adapter@D@__crt_stdio_output@@V?$standard_base@DV?$stream_output_adapter@D@__crt_stdio_output@@@2@@1@AAE_NXZ@@Z 00420027 f i libucrt:output.obj
 0001:0001f04b       ??$extract_argument_from_va_list@PAUansi_string@?1??type_case_Z@?$output_processor@DV?$string_output_adapter@D@__crt_stdio_output@@V?$format_validation_base@DV?$string_output_adapter@D@__crt_stdio_output@@@2@@__crt_stdio_output@@AAE_NXZ@PAU1?1??234@AAE_NXZ@@?$standard_base@DV?$string_output_adapter@D@__crt_stdio_output@@@__crt_stdio_output@@IAE_NAAPAUansi_string@?1??type_case_Z@?$output_processor@DV?$string_output_adapter@D@__crt_stdio_output@@V?$format_validation_base@DV?$string_output_adapter@D@__crt_stdio_output@@@2@@1@AAE_NXZ@@Z 0042004b f i libucrt:output.obj
 0001:0001f06f       ??$extract_argument_from_va_list@PAUansi_string@?1??type_case_Z@?$output_processor@DV?$string_output_adapter@D@__crt_stdio_output@@V?$positional_parameter_base@DV?$string_output_adapter@D@__crt_stdio_output@@@2@@__crt_stdio_output@@AAE_NXZ@PAU1?1??234@AAE_NXZ@@?$positional_parameter_base@DV?$string_output_adapter@D@__crt_stdio_output@@@__crt_stdio_output@@IAE_NAAPAUansi_string@?1??type_case_Z@?$output_processor@DV?$string_output_adapter@D@__crt_stdio_output@@V?$positional_parameter_base@DV?$string_output_adapter@D@__crt_stdio_output@@@2@@1@AAE_NXZ@@Z 0042006f f i libucrt:output.obj
 0001:0001f120       ??$extract_argument_from_va_list@PAUansi_string@?1??type_case_Z@?$output_processor@DV?$string_output_adapter@D@__crt_stdio_output@@V?$positional_parameter_base@DV?$string_output_adapter@D@__crt_stdio_output@@@2@@__crt_stdio_output@@AAE_NXZ@PAU1?1??234@AAE_NXZ@@?$standard_base@DV?$string_output_adapter@D@__crt_stdio_output@@@__crt_stdio_output@@IAE_NAAPAUansi_string@?1??type_case_Z@?$output_processor@DV?$string_output_adapter@D@__crt_stdio_output@@V?$positional_parameter_base@DV?$string_output_adapter@D@__crt_stdio_output@@@2@@1@AAE_NXZ@@Z 00420120 f i libucrt:output.obj
 0001:0001f144       ??$extract_argument_from_va_list@PAUansi_string@?1??type_case_Z@?$output_processor@DV?$string_output_adapter@D@__crt_stdio_output@@V?$standard_base@DV?$string_output_adapter@D@__crt_stdio_output@@@2@@__crt_stdio_output@@AAE_NXZ@PAU1?1??234@AAE_NXZ@@?$standard_base@DV?$string_output_adapter@D@__crt_stdio_output@@@__crt_stdio_output@@IAE_NAAPAUansi_string@?1??type_case_Z@?$output_processor@DV?$string_output_adapter@D@__crt_stdio_output@@V?$standard_base@DV?$string_output_adapter@D@__crt_stdio_output@@@2@@1@AAE_NXZ@@Z 00420144 f i libucrt:output.obj
 0001:0001f168       ??$extract_argument_from_va_list@PAUansi_string@?1??type_case_Z@?$output_processor@_WV?$stream_output_adapter@_W@__crt_stdio_output@@V?$format_validation_base@_WV?$stream_output_adapter@_W@__crt_stdio_output@@@2@@__crt_stdio_output@@AAE_NXZ@PAU1?1??234@AAE_NXZ@@?$standard_base@_WV?$stream_output_adapter@_W@__crt_stdio_output@@@__crt_stdio_output@@IAE_NAAPAUansi_string@?1??type_case_Z@?$output_processor@_WV?$stream_output_adapter@_W@__crt_stdio_output@@V?$format_validation_base@_WV?$stream_output_adapter@_W@__crt_stdio_output@@@2@@1@AAE_NXZ@@Z 00420168 f i libucrt:output.obj
 0001:0001f18c       ??$extract_argument_from_va_list@PAUansi_string@?1??type_case_Z@?$output_processor@_WV?$stream_output_adapter@_W@__crt_stdio_output@@V?$positional_parameter_base@_WV?$stream_output_adapter@_W@__crt_stdio_output@@@2@@__crt_stdio_output@@AAE_NXZ@PAU1?1??234@AAE_NXZ@@?$positional_parameter_base@_WV?$stream_output_adapter@_W@__crt_stdio_output@@@__crt_stdio_output@@IAE_NAAPAUansi_string@?1??type_case_Z@?$output_processor@_WV?$stream_output_adapter@_W@__crt_stdio_output@@V?$positional_parameter_base@_WV?$stream_output_adapter@_W@__crt_stdio_output@@@2@@1@AAE_NXZ@@Z 0042018c f i libucrt:output.obj
 0001:0001f23e       ??$extract_argument_from_va_list@PAUansi_string@?1??type_case_Z@?$output_processor@_WV?$stream_output_adapter@_W@__crt_stdio_output@@V?$positional_parameter_base@_WV?$stream_output_adapter@_W@__crt_stdio_output@@@2@@__crt_stdio_output@@AAE_NXZ@PAU1?1??234@AAE_NXZ@@?$standard_base@_WV?$stream_output_adapter@_W@__crt_stdio_output@@@__crt_stdio_output@@IAE_NAAPAUansi_string@?1??type_case_Z@?$output_processor@_WV?$stream_output_adapter@_W@__crt_stdio_output@@V?$positional_parameter_base@_WV?$stream_output_adapter@_W@__crt_stdio_output@@@2@@1@AAE_NXZ@@Z 0042023e f i libucrt:output.obj
 0001:0001f262       ??$extract_argument_from_va_list@PAUansi_string@?1??type_case_Z@?$output_processor@_WV?$stream_output_adapter@_W@__crt_stdio_output@@V?$standard_base@_WV?$stream_output_adapter@_W@__crt_stdio_output@@@2@@__crt_stdio_output@@AAE_NXZ@PAU1?1??234@AAE_NXZ@@?$standard_base@_WV?$stream_output_adapter@_W@__crt_stdio_output@@@__crt_stdio_output@@IAE_NAAPAUansi_string@?1??type_case_Z@?$output_processor@_WV?$stream_output_adapter@_W@__crt_stdio_output@@V?$standard_base@_WV?$stream_output_adapter@_W@__crt_stdio_output@@@2@@1@AAE_NXZ@@Z 00420262 f i libucrt:output.obj
 0001:0001f286       ??$extract_argument_from_va_list@PAUansi_string@?1??type_case_Z@?$output_processor@_WV?$string_output_adapter@_W@__crt_stdio_output@@V?$format_validation_base@_WV?$string_output_adapter@_W@__crt_stdio_output@@@2@@__crt_stdio_output@@AAE_NXZ@PAU1?1??234@AAE_NXZ@@?$standard_base@_WV?$string_output_adapter@_W@__crt_stdio_output@@@__crt_stdio_output@@IAE_NAAPAUansi_string@?1??type_case_Z@?$output_processor@_WV?$string_output_adapter@_W@__crt_stdio_output@@V?$format_validation_base@_WV?$string_output_adapter@_W@__crt_stdio_output@@@2@@1@AAE_NXZ@@Z 00420286 f i libucrt:output.obj
 0001:0001f2aa       ??$extract_argument_from_va_list@PAUansi_string@?1??type_case_Z@?$output_processor@_WV?$string_output_adapter@_W@__crt_stdio_output@@V?$positional_parameter_base@_WV?$string_output_adapter@_W@__crt_stdio_output@@@2@@__crt_stdio_output@@AAE_NXZ@PAU1?1??234@AAE_NXZ@@?$positional_parameter_base@_WV?$string_output_adapter@_W@__crt_stdio_output@@@__crt_stdio_output@@IAE_NAAPAUansi_string@?1??type_case_Z@?$output_processor@_WV?$string_output_adapter@_W@__crt_stdio_output@@V?$positional_parameter_base@_WV?$string_output_adapter@_W@__crt_stdio_output@@@2@@1@AAE_NXZ@@Z 004202aa f i libucrt:output.obj
 0001:0001f35c       ??$extract_argument_from_va_list@PAUansi_string@?1??type_case_Z@?$output_processor@_WV?$string_output_adapter@_W@__crt_stdio_output@@V?$positional_parameter_base@_WV?$string_output_adapter@_W@__crt_stdio_output@@@2@@__crt_stdio_output@@AAE_NXZ@PAU1?1??234@AAE_NXZ@@?$standard_base@_WV?$string_output_adapter@_W@__crt_stdio_output@@@__crt_stdio_output@@IAE_NAAPAUansi_string@?1??type_case_Z@?$output_processor@_WV?$string_output_adapter@_W@__crt_stdio_output@@V?$positional_parameter_base@_WV?$string_output_adapter@_W@__crt_stdio_output@@@2@@1@AAE_NXZ@@Z 0042035c f i libucrt:output.obj
 0001:0001f380       ??$extract_argument_from_va_list@PAUansi_string@?1??type_case_Z@?$output_processor@_WV?$string_output_adapter@_W@__crt_stdio_output@@V?$standard_base@_WV?$string_output_adapter@_W@__crt_stdio_output@@@2@@__crt_stdio_output@@AAE_NXZ@PAU1?1??234@AAE_NXZ@@?$standard_base@_WV?$string_output_adapter@_W@__crt_stdio_output@@@__crt_stdio_output@@IAE_NAAPAUansi_string@?1??type_case_Z@?$output_processor@_WV?$string_output_adapter@_W@__crt_stdio_output@@V?$standard_base@_WV?$string_output_adapter@_W@__crt_stdio_output@@@2@@1@AAE_NXZ@@Z 00420380 f i libucrt:output.obj
 0001:0001f3a4       ??$extract_argument_from_va_list@PAXPAX@?$positional_parameter_base@DV?$stream_output_adapter@D@__crt_stdio_output@@@__crt_stdio_output@@IAE_NAAPAX@Z 004203a4 f i libucrt:output.obj
 0001:0001f455       ??$extract_argument_from_va_list@PAXPAX@?$positional_parameter_base@DV?$string_output_adapter@D@__crt_stdio_output@@@__crt_stdio_output@@IAE_NAAPAX@Z 00420455 f i libucrt:output.obj
 0001:0001f506       ??$extract_argument_from_va_list@PAXPAX@?$positional_parameter_base@_WV?$stream_output_adapter@_W@__crt_stdio_output@@@__crt_stdio_output@@IAE_NAAPAX@Z 00420506 f i libucrt:output.obj
 0001:0001f5b8       ??$extract_argument_from_va_list@PAXPAX@?$positional_parameter_base@_WV?$string_output_adapter@_W@__crt_stdio_output@@@__crt_stdio_output@@IAE_NAAPAX@Z 004205b8 f i libucrt:output.obj
 0001:0001f66a       ??$extract_argument_from_va_list@PAXPAX@?$standard_base@DV?$stream_output_adapter@D@__crt_stdio_output@@@__crt_stdio_output@@IAE_NAAPAX@Z 0042066a f i libucrt:output.obj
 0001:0001f68e       ??$extract_argument_from_va_list@PAXPAX@?$standard_base@DV?$string_output_adapter@D@__crt_stdio_output@@@__crt_stdio_output@@IAE_NAAPAX@Z 0042068e f i libucrt:output.obj
 0001:0001f6b2       ??$extract_argument_from_va_list@PAXPAX@?$standard_base@_WV?$stream_output_adapter@_W@__crt_stdio_output@@@__crt_stdio_output@@IAE_NAAPAX@Z 004206b2 f i libucrt:output.obj
 0001:0001f6d6       ??$extract_argument_from_va_list@PAXPAX@?$standard_base@_WV?$string_output_adapter@_W@__crt_stdio_output@@@__crt_stdio_output@@IAE_NAAPAX@Z 004206d6 f i libucrt:output.obj
 0001:0001f6fa       ??$extract_argument_from_va_list@U_CRT_DOUBLE@@U1@@?$positional_parameter_base@DV?$stream_output_adapter@D@__crt_stdio_output@@@__crt_stdio_output@@IAE_NAAU_CRT_DOUBLE@@@Z 004206fa f i libucrt:output.obj
 0001:0001f7b5       ??$extract_argument_from_va_list@U_CRT_DOUBLE@@U1@@?$positional_parameter_base@DV?$string_output_adapter@D@__crt_stdio_output@@@__crt_stdio_output@@IAE_NAAU_CRT_DOUBLE@@@Z 004207b5 f i libucrt:output.obj
 0001:0001f870       ??$extract_argument_from_va_list@U_CRT_DOUBLE@@U1@@?$positional_parameter_base@_WV?$stream_output_adapter@_W@__crt_stdio_output@@@__crt_stdio_output@@IAE_NAAU_CRT_DOUBLE@@@Z 00420870 f i libucrt:output.obj
 0001:0001f92c       ??$extract_argument_from_va_list@U_CRT_DOUBLE@@U1@@?$positional_parameter_base@_WV?$string_output_adapter@_W@__crt_stdio_output@@@__crt_stdio_output@@IAE_NAAU_CRT_DOUBLE@@@Z 0042092c f i libucrt:output.obj
 0001:0001f9e8       ??$extract_argument_from_va_list@U_CRT_DOUBLE@@U1@@?$standard_base@DV?$stream_output_adapter@D@__crt_stdio_output@@@__crt_stdio_output@@IAE_NAAU_CRT_DOUBLE@@@Z 004209e8 f i libucrt:output.obj
 0001:0001fa11       ??$extract_argument_from_va_list@U_CRT_DOUBLE@@U1@@?$standard_base@DV?$string_output_adapter@D@__crt_stdio_output@@@__crt_stdio_output@@IAE_NAAU_CRT_DOUBLE@@@Z 00420a11 f i libucrt:output.obj
 0001:0001fa3a       ??$extract_argument_from_va_list@U_CRT_DOUBLE@@U1@@?$standard_base@_WV?$stream_output_adapter@_W@__crt_stdio_output@@@__crt_stdio_output@@IAE_NAAU_CRT_DOUBLE@@@Z 00420a3a f i libucrt:output.obj
 0001:0001fa63       ??$extract_argument_from_va_list@U_CRT_DOUBLE@@U1@@?$standard_base@_WV?$string_output_adapter@_W@__crt_stdio_output@@@__crt_stdio_output@@IAE_NAAU_CRT_DOUBLE@@@Z 00420a63 f i libucrt:output.obj
 0001:0001fa8c       ??$extract_argument_from_va_list@_J_J@?$positional_parameter_base@DV?$stream_output_adapter@D@__crt_stdio_output@@@__crt_stdio_output@@IAE_NAA_J@Z 00420a8c f i libucrt:output.obj
 0001:0001fb4c       ??$extract_argument_from_va_list@_J_J@?$positional_parameter_base@DV?$string_output_adapter@D@__crt_stdio_output@@@__crt_stdio_output@@IAE_NAA_J@Z 00420b4c f i libucrt:output.obj
 0001:0001fc0c       ??$extract_argument_from_va_list@_J_J@?$positional_parameter_base@_WV?$stream_output_adapter@_W@__crt_stdio_output@@@__crt_stdio_output@@IAE_NAA_J@Z 00420c0c f i libucrt:output.obj
 0001:0001fccd       ??$extract_argument_from_va_list@_J_J@?$positional_parameter_base@_WV?$string_output_adapter@_W@__crt_stdio_output@@@__crt_stdio_output@@IAE_NAA_J@Z 00420ccd f i libucrt:output.obj
 0001:0001fd8e       ??$extract_argument_from_va_list@_J_J@?$standard_base@DV?$stream_output_adapter@D@__crt_stdio_output@@@__crt_stdio_output@@IAE_NAA_J@Z 00420d8e f i libucrt:output.obj
 0001:0001fdb7       ??$extract_argument_from_va_list@_J_J@?$standard_base@DV?$string_output_adapter@D@__crt_stdio_output@@@__crt_stdio_output@@IAE_NAA_J@Z 00420db7 f i libucrt:output.obj
 0001:0001fde0       ??$extract_argument_from_va_list@_J_J@?$standard_base@_WV?$stream_output_adapter@_W@__crt_stdio_output@@@__crt_stdio_output@@IAE_NAA_J@Z 00420de0 f i libucrt:output.obj
 0001:0001fe09       ??$extract_argument_from_va_list@_J_J@?$standard_base@_WV?$string_output_adapter@_W@__crt_stdio_output@@@__crt_stdio_output@@IAE_NAA_J@Z 00420e09 f i libucrt:output.obj
 0001:0001fe32       ??$extract_argument_from_va_list@_K_J@?$positional_parameter_base@DV?$stream_output_adapter@D@__crt_stdio_output@@@__crt_stdio_output@@IAE_NAA_J@Z 00420e32 f i libucrt:output.obj
 0001:0001fef2       ??$extract_argument_from_va_list@_K_J@?$positional_parameter_base@DV?$string_output_adapter@D@__crt_stdio_output@@@__crt_stdio_output@@IAE_NAA_J@Z 00420ef2 f i libucrt:output.obj
 0001:0001ffb2       ??$extract_argument_from_va_list@_K_J@?$positional_parameter_base@_WV?$stream_output_adapter@_W@__crt_stdio_output@@@__crt_stdio_output@@IAE_NAA_J@Z 00420fb2 f i libucrt:output.obj
 0001:00020073       ??$extract_argument_from_va_list@_K_J@?$positional_parameter_base@_WV?$string_output_adapter@_W@__crt_stdio_output@@@__crt_stdio_output@@IAE_NAA_J@Z 00421073 f i libucrt:output.obj
 0001:00020134       ??$extract_argument_from_va_list@_K_J@?$standard_base@DV?$stream_output_adapter@D@__crt_stdio_output@@@__crt_stdio_output@@IAE_NAA_J@Z 00421134 f i libucrt:output.obj
 0001:0002015d       ??$extract_argument_from_va_list@_K_J@?$standard_base@DV?$string_output_adapter@D@__crt_stdio_output@@@__crt_stdio_output@@IAE_NAA_J@Z 0042115d f i libucrt:output.obj
 0001:00020186       ??$extract_argument_from_va_list@_K_J@?$standard_base@_WV?$stream_output_adapter@_W@__crt_stdio_output@@@__crt_stdio_output@@IAE_NAA_J@Z 00421186 f i libucrt:output.obj
 0001:000201af       ??$extract_argument_from_va_list@_K_J@?$standard_base@_WV?$string_output_adapter@_W@__crt_stdio_output@@@__crt_stdio_output@@IAE_NAA_J@Z 004211af f i libucrt:output.obj
 0001:000201d8       ??$extract_argument_from_va_list@_W_W@?$positional_parameter_base@DV?$stream_output_adapter@D@__crt_stdio_output@@@__crt_stdio_output@@IAE_NAA_W@Z 004211d8 f i libucrt:output.obj
 0001:0002028e       ??$extract_argument_from_va_list@_W_W@?$positional_parameter_base@DV?$string_output_adapter@D@__crt_stdio_output@@@__crt_stdio_output@@IAE_NAA_W@Z 0042128e f i libucrt:output.obj
 0001:00020344       ??$extract_argument_from_va_list@_W_W@?$positional_parameter_base@_WV?$stream_output_adapter@_W@__crt_stdio_output@@@__crt_stdio_output@@IAE_NAA_W@Z 00421344 f i libucrt:output.obj
 0001:000203fb       ??$extract_argument_from_va_list@_W_W@?$positional_parameter_base@_WV?$string_output_adapter@_W@__crt_stdio_output@@@__crt_stdio_output@@IAE_NAA_W@Z 004213fb f i libucrt:output.obj
 0001:000204b2       ??$extract_argument_from_va_list@_W_W@?$standard_base@DV?$stream_output_adapter@D@__crt_stdio_output@@@__crt_stdio_output@@IAE_NAA_W@Z 004214b2 f i libucrt:output.obj
 0001:000204d6       ??$extract_argument_from_va_list@_W_W@?$standard_base@DV?$string_output_adapter@D@__crt_stdio_output@@@__crt_stdio_output@@IAE_NAA_W@Z 004214d6 f i libucrt:output.obj
 0001:000204fa       ??$extract_argument_from_va_list@_W_W@?$standard_base@_WV?$stream_output_adapter@_W@__crt_stdio_output@@@__crt_stdio_output@@IAE_NAA_W@Z 004214fa f i libucrt:output.obj
 0001:0002051e       ??$extract_argument_from_va_list@_W_W@?$standard_base@_WV?$string_output_adapter@_W@__crt_stdio_output@@@__crt_stdio_output@@IAE_NAA_W@Z 0042151e f i libucrt:output.obj
 0001:00020542       ??$get_parameter_type@D@?$positional_parameter_base@DV?$stream_output_adapter@D@__crt_stdio_output@@@__crt_stdio_output@@CA?AW4parameter_type@01@PAD@Z 00421542 f i libucrt:output.obj
 0001:00020546       ??$get_parameter_type@D@?$positional_parameter_base@DV?$string_output_adapter@D@__crt_stdio_output@@@__crt_stdio_output@@CA?AW4parameter_type@01@PAD@Z 00421546 f i libucrt:output.obj
 0001:0002054a       ??$get_parameter_type@D@?$positional_parameter_base@_WV?$stream_output_adapter@_W@__crt_stdio_output@@@__crt_stdio_output@@CA?AW4parameter_type@01@PAD@Z 0042154a f i libucrt:output.obj
 0001:0002054e       ??$get_parameter_type@D@?$positional_parameter_base@_WV?$string_output_adapter@_W@__crt_stdio_output@@@__crt_stdio_output@@CA?AW4parameter_type@01@PAD@Z 0042154e f i libucrt:output.obj
 0001:00020552       ??$get_parameter_type@Uansi_string@?1??type_case_Z@?$output_processor@DV?$stream_output_adapter@D@__crt_stdio_output@@V?$positional_parameter_base@DV?$stream_output_adapter@D@__crt_stdio_output@@@2@@__crt_stdio_output@@AAE_NXZ@@?$positional_parameter_base@DV?$stream_output_adapter@D@__crt_stdio_output@@@__crt_stdio_output@@CA?AW4parameter_type@01@PAUansi_string@?1??type_case_Z@?$output_processor@DV?$stream_output_adapter@D@__crt_stdio_output@@V?$positional_parameter_base@DV?$stream_output_adapter@D@__crt_stdio_output@@@2@@1@AAE_NXZ@@Z 00421552 f i libucrt:output.obj
 0001:00020556       ??$get_parameter_type@Uansi_string@?1??type_case_Z@?$output_processor@DV?$string_output_adapter@D@__crt_stdio_output@@V?$positional_parameter_base@DV?$string_output_adapter@D@__crt_stdio_output@@@2@@__crt_stdio_output@@AAE_NXZ@@?$positional_parameter_base@DV?$string_output_adapter@D@__crt_stdio_output@@@__crt_stdio_output@@CA?AW4parameter_type@01@PAUansi_string@?1??type_case_Z@?$output_processor@DV?$string_output_adapter@D@__crt_stdio_output@@V?$positional_parameter_base@DV?$string_output_adapter@D@__crt_stdio_output@@@2@@1@AAE_NXZ@@Z 00421556 f i libucrt:output.obj
 0001:0002055a       ??$get_parameter_type@Uansi_string@?1??type_case_Z@?$output_processor@_WV?$stream_output_adapter@_W@__crt_stdio_output@@V?$positional_parameter_base@_WV?$stream_output_adapter@_W@__crt_stdio_output@@@2@@__crt_stdio_output@@AAE_NXZ@@?$positional_parameter_base@_WV?$stream_output_adapter@_W@__crt_stdio_output@@@__crt_stdio_output@@CA?AW4parameter_type@01@PAUansi_string@?1??type_case_Z@?$output_processor@_WV?$stream_output_adapter@_W@__crt_stdio_output@@V?$positional_parameter_base@_WV?$stream_output_adapter@_W@__crt_stdio_output@@@2@@1@AAE_NXZ@@Z 0042155a f i libucrt:output.obj
 0001:0002055e       ??$get_parameter_type@Uansi_string@?1??type_case_Z@?$output_processor@_WV?$string_output_adapter@_W@__crt_stdio_output@@V?$positional_parameter_base@_WV?$string_output_adapter@_W@__crt_stdio_output@@@2@@__crt_stdio_output@@AAE_NXZ@@?$positional_parameter_base@_WV?$string_output_adapter@_W@__crt_stdio_output@@@__crt_stdio_output@@CA?AW4parameter_type@01@PAUansi_string@?1??type_case_Z@?$output_processor@_WV?$string_output_adapter@_W@__crt_stdio_output@@V?$positional_parameter_base@_WV?$string_output_adapter@_W@__crt_stdio_output@@@2@@1@AAE_NXZ@@Z 0042155e f i libucrt:output.obj
 0001:00020562       ??$get_parameter_type@X@?$positional_parameter_base@DV?$stream_output_adapter@D@__crt_stdio_output@@@__crt_stdio_output@@CA?AW4parameter_type@01@PAX@Z 00421562 f i libucrt:output.obj
 0001:00020566       ??$get_parameter_type@X@?$positional_parameter_base@DV?$string_output_adapter@D@__crt_stdio_output@@@__crt_stdio_output@@CA?AW4parameter_type@01@PAX@Z 00421566 f i libucrt:output.obj
 0001:0002056a       ??$get_parameter_type@X@?$positional_parameter_base@_WV?$stream_output_adapter@_W@__crt_stdio_output@@@__crt_stdio_output@@CA?AW4parameter_type@01@PAX@Z 0042156a f i libucrt:output.obj
 0001:0002056e       ??$get_parameter_type@X@?$positional_parameter_base@_WV?$string_output_adapter@_W@__crt_stdio_output@@@__crt_stdio_output@@CA?AW4parameter_type@01@PAX@Z 0042156e f i libucrt:output.obj
 0001:00020572       ??$is_character_specifier@D@?$positional_parameter_base@DV?$stream_output_adapter@D@__crt_stdio_output@@@__crt_stdio_output@@CA_ND@Z 00421572 f i libucrt:output.obj
 0001:00020590       ??$is_character_specifier@D@?$positional_parameter_base@DV?$string_output_adapter@D@__crt_stdio_output@@@__crt_stdio_output@@CA_ND@Z 00421590 f i libucrt:output.obj
 0001:000205ae       ??$is_character_specifier@_W@?$positional_parameter_base@_WV?$stream_output_adapter@_W@__crt_stdio_output@@@__crt_stdio_output@@CA_N_W@Z 004215ae f i libucrt:output.obj
 0001:000205cf       ??$is_character_specifier@_W@?$positional_parameter_base@_WV?$string_output_adapter@_W@__crt_stdio_output@@@__crt_stdio_output@@CA_N_W@Z 004215cf f i libucrt:output.obj
 0001:000205f0       ??$is_integral_specifier@D@?$positional_parameter_base@DV?$stream_output_adapter@D@__crt_stdio_output@@@__crt_stdio_output@@CA_ND@Z 004215f0 f i libucrt:output.obj
 0001:00020627       ??$is_integral_specifier@D@?$positional_parameter_base@DV?$string_output_adapter@D@__crt_stdio_output@@@__crt_stdio_output@@CA_ND@Z 00421627 f i libucrt:output.obj
 0001:0002065e       ??$is_integral_specifier@_W@?$positional_parameter_base@_WV?$stream_output_adapter@_W@__crt_stdio_output@@@__crt_stdio_output@@CA_N_W@Z 0042165e f i libucrt:output.obj
 0001:000206a7       ??$is_integral_specifier@_W@?$positional_parameter_base@_WV?$string_output_adapter@_W@__crt_stdio_output@@@__crt_stdio_output@@CA_N_W@Z 004216a7 f i libucrt:output.obj
 0001:000206f0       ??$is_pointer_specifier@D@?$positional_parameter_base@DV?$stream_output_adapter@D@__crt_stdio_output@@@__crt_stdio_output@@CA_ND@Z 004216f0 f i libucrt:output.obj
 0001:00020701       ??$is_pointer_specifier@D@?$positional_parameter_base@DV?$string_output_adapter@D@__crt_stdio_output@@@__crt_stdio_output@@CA_ND@Z 00421701 f i libucrt:output.obj
 0001:00020712       ??$is_pointer_specifier@_W@?$positional_parameter_base@_WV?$stream_output_adapter@_W@__crt_stdio_output@@@__crt_stdio_output@@CA_N_W@Z 00421712 f i libucrt:output.obj
 0001:00020724       ??$is_pointer_specifier@_W@?$positional_parameter_base@_WV?$string_output_adapter@_W@__crt_stdio_output@@@__crt_stdio_output@@CA_N_W@Z 00421724 f i libucrt:output.obj
 0001:00020736       ??$is_string_specifier@D@?$positional_parameter_base@DV?$stream_output_adapter@D@__crt_stdio_output@@@__crt_stdio_output@@CA_ND@Z 00421736 f i libucrt:output.obj
 0001:00020754       ??$is_string_specifier@D@?$positional_parameter_base@DV?$string_output_adapter@D@__crt_stdio_output@@@__crt_stdio_output@@CA_ND@Z 00421754 f i libucrt:output.obj
 0001:00020772       ??$is_string_specifier@_W@?$positional_parameter_base@_WV?$stream_output_adapter@_W@__crt_stdio_output@@@__crt_stdio_output@@CA_N_W@Z 00421772 f i libucrt:output.obj
 0001:00020793       ??$is_string_specifier@_W@?$positional_parameter_base@_WV?$string_output_adapter@_W@__crt_stdio_output@@@__crt_stdio_output@@CA_N_W@Z 00421793 f i libucrt:output.obj
 0001:000207b4       ??$is_wide_character_specifier@D@__crt_stdio_output@@YA_N_KDW4length_modifier@0@@Z 004217b4 f i libucrt:output.obj
 0001:000207f1       ??$is_wide_character_specifier@_W@__crt_stdio_output@@YA_N_K_WW4length_modifier@0@@Z 004217f1 f i libucrt:output.obj
 0001:00020852       ??$make_c_string_character_source@DPAPAD@__crt_strtox@@YA?AV?$c_string_character_source@D@0@QBDQAPAD@Z 00421852 f i libucrt:output.obj
 0001:00020873       ??$make_c_string_character_source@_WPAPA_W@__crt_strtox@@YA?AV?$c_string_character_source@_W@0@QB_WQAPA_W@Z 00421873 f i libucrt:output.obj
 0001:00020894       ??$parse_integer@KV?$c_string_character_source@D@__crt_strtox@@$0A@@__crt_strtox@@YAKAAV__crt_cached_ptd_host@@V?$c_string_character_source@D@0@H_N@Z 00421894 f i libucrt:output.obj
 0001:00020b26       ??$parse_integer@KV?$c_string_character_source@_W@__crt_strtox@@$0A@@__crt_strtox@@YAKAAV__crt_cached_ptd_host@@V?$c_string_character_source@_W@0@H_N@Z 00421b26 f i libucrt:output.obj
 0001:0002126d       ??$peek_va_arg@C@__crt_stdio_output@@YACPAD@Z 0042226d f i libucrt:output.obj
 0001:0002127c       ??$peek_va_arg@E@__crt_stdio_output@@YAEPAD@Z 0042227c f i libucrt:output.obj
 0001:0002128b       ??$peek_va_arg@F@__crt_stdio_output@@YAFPAD@Z 0042228b f i libucrt:output.obj
 0001:0002129b       ??$peek_va_arg@G@__crt_stdio_output@@YAGPAD@Z 0042229b f i libucrt:output.obj
 0001:000212ab       ??$peek_va_arg@H@__crt_stdio_output@@YAHPAD@Z 004222ab f i libucrt:output.obj
 0001:000212ba       ??$peek_va_arg@I@__crt_stdio_output@@YAIPAD@Z 004222ba f i libucrt:output.obj
 0001:000212c9       ??$peek_va_arg@PAD@__crt_stdio_output@@YAPADPAD@Z 004222c9 f i libucrt:output.obj
 0001:000212d8       ??$peek_va_arg@PAUansi_string@?1??type_case_Z@?$output_processor@DV?$stream_output_adapter@D@__crt_stdio_output@@V?$positional_parameter_base@DV?$stream_output_adapter@D@__crt_stdio_output@@@2@@__crt_stdio_output@@AAE_NXZ@@__crt_stdio_output@@YAPAUansi_string@?1??type_case_Z@?$output_processor@DV?$stream_output_adapter@D@__crt_stdio_output@@V?$positional_parameter_base@DV?$stream_output_adapter@D@__crt_stdio_output@@@2@@0@AAE_NXZ@PAD@Z 004222d8 f i libucrt:output.obj
 0001:000212e7       ??$peek_va_arg@PAUansi_string@?1??type_case_Z@?$output_processor@DV?$string_output_adapter@D@__crt_stdio_output@@V?$positional_parameter_base@DV?$string_output_adapter@D@__crt_stdio_output@@@2@@__crt_stdio_output@@AAE_NXZ@@__crt_stdio_output@@YAPAUansi_string@?1??type_case_Z@?$output_processor@DV?$string_output_adapter@D@__crt_stdio_output@@V?$positional_parameter_base@DV?$string_output_adapter@D@__crt_stdio_output@@@2@@0@AAE_NXZ@PAD@Z 004222e7 f i libucrt:output.obj
 0001:000212f6       ??$peek_va_arg@PAUansi_string@?1??type_case_Z@?$output_processor@_WV?$stream_output_adapter@_W@__crt_stdio_output@@V?$positional_parameter_base@_WV?$stream_output_adapter@_W@__crt_stdio_output@@@2@@__crt_stdio_output@@AAE_NXZ@@__crt_stdio_output@@YAPAUansi_string@?1??type_case_Z@?$output_processor@_WV?$stream_output_adapter@_W@__crt_stdio_output@@V?$positional_parameter_base@_WV?$stream_output_adapter@_W@__crt_stdio_output@@@2@@0@AAE_NXZ@PAD@Z 004222f6 f i libucrt:output.obj
 0001:00021305       ??$peek_va_arg@PAUansi_string@?1??type_case_Z@?$output_processor@_WV?$string_output_adapter@_W@__crt_stdio_output@@V?$positional_parameter_base@_WV?$string_output_adapter@_W@__crt_stdio_output@@@2@@__crt_stdio_output@@AAE_NXZ@@__crt_stdio_output@@YAPAUansi_string@?1??type_case_Z@?$output_processor@_WV?$string_output_adapter@_W@__crt_stdio_output@@V?$positional_parameter_base@_WV?$string_output_adapter@_W@__crt_stdio_output@@@2@@0@AAE_NXZ@PAD@Z 00422305 f i libucrt:output.obj
 0001:00021314       ??$peek_va_arg@PAX@__crt_stdio_output@@YAPAXPAD@Z 00422314 f i libucrt:output.obj
 0001:00021323       ??$peek_va_arg@U_CRT_DOUBLE@@@__crt_stdio_output@@YA?AU_CRT_DOUBLE@@PAD@Z 00422323 f i libucrt:output.obj
 0001:00021335       ??$peek_va_arg@_J@__crt_stdio_output@@YA_JPAD@Z 00422335 f i libucrt:output.obj
 0001:00021347       ??$peek_va_arg@_K@__crt_stdio_output@@YA_KPAD@Z 00422347 f i libucrt:output.obj
 0001:00021359       ??$peek_va_arg@_W@__crt_stdio_output@@YA_WPAD@Z 00422359 f i libucrt:output.obj
 0001:00021369       ??$puttc_nolock_internal@ABDPAU_iobuf@@AAV__crt_cached_ptd_host@@@?$__crt_char_traits@D@@SAHABD$$QAPAU_iobuf@@AAV__crt_cached_ptd_host@@@Z 00422369 f i libucrt:output.obj
 0001:0002138e       ??$puttc_nolock_internal@AB_WPAU_iobuf@@AAV__crt_cached_ptd_host@@@?$__crt_char_traits@_W@@SAGAB_W$$QAPAU_iobuf@@AAV__crt_cached_ptd_host@@@Z 0042238e f i libucrt:output.obj
 0001:000213b3       ??$read_va_arg@C@__crt_stdio_output@@YACAAPAD@Z 004223b3 f i libucrt:output.obj
 0001:000213ca       ??$read_va_arg@E@__crt_stdio_output@@YAEAAPAD@Z 004223ca f i libucrt:output.obj
 0001:000213e1       ??$read_va_arg@F@__crt_stdio_output@@YAFAAPAD@Z 004223e1 f i libucrt:output.obj
 0001:000213fa       ??$read_va_arg@G@__crt_stdio_output@@YAGAAPAD@Z 004223fa f i libucrt:output.obj
 0001:00021413       ??$read_va_arg@H@__crt_stdio_output@@YAHAAPAD@Z 00422413 f i libucrt:output.obj
 0001:0002142a       ??$read_va_arg@I@__crt_stdio_output@@YAIAAPAD@Z 0042242a f i libucrt:output.obj
 0001:00021441       ??$read_va_arg@PAD@__crt_stdio_output@@YAPADAAPAD@Z 00422441 f i libucrt:output.obj
 0001:00021458       ??$read_va_arg@PAUansi_string@?1??type_case_Z@?$output_processor@DV?$stream_output_adapter@D@__crt_stdio_output@@V?$format_validation_base@DV?$stream_output_adapter@D@__crt_stdio_output@@@2@@__crt_stdio_output@@AAE_NXZ@@__crt_stdio_output@@YAPAUansi_string@?1??type_case_Z@?$output_processor@DV?$stream_output_adapter@D@__crt_stdio_output@@V?$format_validation_base@DV?$stream_output_adapter@D@__crt_stdio_output@@@2@@0@AAE_NXZ@AAPAD@Z 00422458 f i libucrt:output.obj
 0001:0002146f       ??$read_va_arg@PAUansi_string@?1??type_case_Z@?$output_processor@DV?$stream_output_adapter@D@__crt_stdio_output@@V?$positional_parameter_base@DV?$stream_output_adapter@D@__crt_stdio_output@@@2@@__crt_stdio_output@@AAE_NXZ@@__crt_stdio_output@@YAPAUansi_string@?1??type_case_Z@?$output_processor@DV?$stream_output_adapter@D@__crt_stdio_output@@V?$positional_parameter_base@DV?$stream_output_adapter@D@__crt_stdio_output@@@2@@0@AAE_NXZ@AAPAD@Z 0042246f f i libucrt:output.obj
 0001:00021486       ??$read_va_arg@PAUansi_string@?1??type_case_Z@?$output_processor@DV?$stream_output_adapter@D@__crt_stdio_output@@V?$standard_base@DV?$stream_output_adapter@D@__crt_stdio_output@@@2@@__crt_stdio_output@@AAE_NXZ@@__crt_stdio_output@@YAPAUansi_string@?1??type_case_Z@?$output_processor@DV?$stream_output_adapter@D@__crt_stdio_output@@V?$standard_base@DV?$stream_output_adapter@D@__crt_stdio_output@@@2@@0@AAE_NXZ@AAPAD@Z 00422486 f i libucrt:output.obj
 0001:0002149d       ??$read_va_arg@PAUansi_string@?1??type_case_Z@?$output_processor@DV?$string_output_adapter@D@__crt_stdio_output@@V?$format_validation_base@DV?$string_output_adapter@D@__crt_stdio_output@@@2@@__crt_stdio_output@@AAE_NXZ@@__crt_stdio_output@@YAPAUansi_string@?1??type_case_Z@?$output_processor@DV?$string_output_adapter@D@__crt_stdio_output@@V?$format_validation_base@DV?$string_output_adapter@D@__crt_stdio_output@@@2@@0@AAE_NXZ@AAPAD@Z 0042249d f i libucrt:output.obj
 0001:000214b4       ??$read_va_arg@PAUansi_string@?1??type_case_Z@?$output_processor@DV?$string_output_adapter@D@__crt_stdio_output@@V?$positional_parameter_base@DV?$string_output_adapter@D@__crt_stdio_output@@@2@@__crt_stdio_output@@AAE_NXZ@@__crt_stdio_output@@YAPAUansi_string@?1??type_case_Z@?$output_processor@DV?$string_output_adapter@D@__crt_stdio_output@@V?$positional_parameter_base@DV?$string_output_adapter@D@__crt_stdio_output@@@2@@0@AAE_NXZ@AAPAD@Z 004224b4 f i libucrt:output.obj
 0001:000214cb       ??$read_va_arg@PAUansi_string@?1??type_case_Z@?$output_processor@DV?$string_output_adapter@D@__crt_stdio_output@@V?$standard_base@DV?$string_output_adapter@D@__crt_stdio_output@@@2@@__crt_stdio_output@@AAE_NXZ@@__crt_stdio_output@@YAPAUansi_string@?1??type_case_Z@?$output_processor@DV?$string_output_adapter@D@__crt_stdio_output@@V?$standard_base@DV?$string_output_adapter@D@__crt_stdio_output@@@2@@0@AAE_NXZ@AAPAD@Z 004224cb f i libucrt:output.obj
 0001:000214e2       ??$read_va_arg@PAUansi_string@?1??type_case_Z@?$output_processor@_WV?$stream_output_adapter@_W@__crt_stdio_output@@V?$format_validation_base@_WV?$stream_output_adapter@_W@__crt_stdio_output@@@2@@__crt_stdio_output@@AAE_NXZ@@__crt_stdio_output@@YAPAUansi_string@?1??type_case_Z@?$output_processor@_WV?$stream_output_adapter@_W@__crt_stdio_output@@V?$format_validation_base@_WV?$stream_output_adapter@_W@__crt_stdio_output@@@2@@0@AAE_NXZ@AAPAD@Z 004224e2 f i libucrt:output.obj
 0001:000214f9       ??$read_va_arg@PAUansi_string@?1??type_case_Z@?$output_processor@_WV?$stream_output_adapter@_W@__crt_stdio_output@@V?$positional_parameter_base@_WV?$stream_output_adapter@_W@__crt_stdio_output@@@2@@__crt_stdio_output@@AAE_NXZ@@__crt_stdio_output@@YAPAUansi_string@?1??type_case_Z@?$output_processor@_WV?$stream_output_adapter@_W@__crt_stdio_output@@V?$positional_parameter_base@_WV?$stream_output_adapter@_W@__crt_stdio_output@@@2@@0@AAE_NXZ@AAPAD@Z 004224f9 f i libucrt:output.obj
 0001:00021510       ??$read_va_arg@PAUansi_string@?1??type_case_Z@?$output_processor@_WV?$stream_output_adapter@_W@__crt_stdio_output@@V?$standard_base@_WV?$stream_output_adapter@_W@__crt_stdio_output@@@2@@__crt_stdio_output@@AAE_NXZ@@__crt_stdio_output@@YAPAUansi_string@?1??type_case_Z@?$output_processor@_WV?$stream_output_adapter@_W@__crt_stdio_output@@V?$standard_base@_WV?$stream_output_adapter@_W@__crt_stdio_output@@@2@@0@AAE_NXZ@AAPAD@Z 00422510 f i libucrt:output.obj
 0001:00021527       ??$read_va_arg@PAUansi_string@?1??type_case_Z@?$output_processor@_WV?$string_output_adapter@_W@__crt_stdio_output@@V?$format_validation_base@_WV?$string_output_adapter@_W@__crt_stdio_output@@@2@@__crt_stdio_output@@AAE_NXZ@@__crt_stdio_output@@YAPAUansi_string@?1??type_case_Z@?$output_processor@_WV?$string_output_adapter@_W@__crt_stdio_output@@V?$format_validation_base@_WV?$string_output_adapter@_W@__crt_stdio_output@@@2@@0@AAE_NXZ@AAPAD@Z 00422527 f i libucrt:output.obj
 0001:0002153e       ??$read_va_arg@PAUansi_string@?1??type_case_Z@?$output_processor@_WV?$string_output_adapter@_W@__crt_stdio_output@@V?$positional_parameter_base@_WV?$string_output_adapter@_W@__crt_stdio_output@@@2@@__crt_stdio_output@@AAE_NXZ@@__crt_stdio_output@@YAPAUansi_string@?1??type_case_Z@?$output_processor@_WV?$string_output_adapter@_W@__crt_stdio_output@@V?$positional_parameter_base@_WV?$string_output_adapter@_W@__crt_stdio_output@@@2@@0@AAE_NXZ@AAPAD@Z 0042253e f i libucrt:output.obj
 0001:00021555       ??$read_va_arg@PAUansi_string@?1??type_case_Z@?$output_processor@_WV?$string_output_adapter@_W@__crt_stdio_output@@V?$standard_base@_WV?$string_output_adapter@_W@__crt_stdio_output@@@2@@__crt_stdio_output@@AAE_NXZ@@__crt_stdio_output@@YAPAUansi_string@?1??type_case_Z@?$output_processor@_WV?$string_output_adapter@_W@__crt_stdio_output@@V?$standard_base@_WV?$string_output_adapter@_W@__crt_stdio_output@@@2@@0@AAE_NXZ@AAPAD@Z 00422555 f i libucrt:output.obj
 0001:0002156c       ??$read_va_arg@PAX@__crt_stdio_output@@YAPAXAAPAD@Z 0042256c f i libucrt:output.obj
 0001:00021583       ??$read_va_arg@U_CRT_DOUBLE@@@__crt_stdio_output@@YA?AU_CRT_DOUBLE@@AAPAD@Z 00422583 f i libucrt:output.obj
 0001:0002159e       ??$read_va_arg@_J@__crt_stdio_output@@YA_JAAPAD@Z 0042259e f i libucrt:output.obj
 0001:000215b9       ??$read_va_arg@_K@__crt_stdio_output@@YA_KAAPAD@Z 004225b9 f i libucrt:output.obj
 0001:000215d4       ??$read_va_arg@_W@__crt_stdio_output@@YA_WAAPAD@Z 004225d4 f i libucrt:output.obj
 0001:000215ed       ??$scratch_count@D@formatting_buffer@__crt_stdio_output@@QBEIXZ 004225ed f i libucrt:output.obj
 0001:000215f2       ??$scratch_data@D@formatting_buffer@__crt_stdio_output@@QAEPADXZ 004225f2 f i libucrt:output.obj
 0001:00021617       ??$type_case_integer@$07@?$output_processor@DV?$stream_output_adapter@D@__crt_stdio_output@@V?$format_validation_base@DV?$stream_output_adapter@D@__crt_stdio_output@@@2@@__crt_stdio_output@@AAE_N_N@Z 00422617 f i libucrt:output.obj
 0001:00021807       ??$type_case_integer@$07@?$output_processor@DV?$stream_output_adapter@D@__crt_stdio_output@@V?$positional_parameter_base@DV?$stream_output_adapter@D@__crt_stdio_output@@@2@@__crt_stdio_output@@AAE_N_N@Z 00422807 f i libucrt:output.obj
 0001:00021a0a       ??$type_case_integer@$07@?$output_processor@DV?$stream_output_adapter@D@__crt_stdio_output@@V?$standard_base@DV?$stream_output_adapter@D@__crt_stdio_output@@@2@@__crt_stdio_output@@AAE_N_N@Z 00422a0a f i libucrt:output.obj
 0001:00021bfa       ??$type_case_integer@$07@?$output_processor@DV?$string_output_adapter@D@__crt_stdio_output@@V?$format_validation_base@DV?$string_output_adapter@D@__crt_stdio_output@@@2@@__crt_stdio_output@@AAE_N_N@Z 00422bfa f i libucrt:output.obj
 0001:00021dea       ??$type_case_integer@$07@?$output_processor@DV?$string_output_adapter@D@__crt_stdio_output@@V?$positional_parameter_base@DV?$string_output_adapter@D@__crt_stdio_output@@@2@@__crt_stdio_output@@AAE_N_N@Z 00422dea f i libucrt:output.obj
 0001:00021fed       ??$type_case_integer@$07@?$output_processor@DV?$string_output_adapter@D@__crt_stdio_output@@V?$standard_base@DV?$string_output_adapter@D@__crt_stdio_output@@@2@@__crt_stdio_output@@AAE_N_N@Z 00422fed f i libucrt:output.obj
 0001:000221dd       ??$type_case_integer@$07@?$output_processor@_WV?$stream_output_adapter@_W@__crt_stdio_output@@V?$format_validation_base@_WV?$stream_output_adapter@_W@__crt_stdio_output@@@2@@__crt_stdio_output@@AAE_N_N@Z 004231dd f i libucrt:output.obj
 0001:000223d3       ??$type_case_integer@$07@?$output_processor@_WV?$stream_output_adapter@_W@__crt_stdio_output@@V?$positional_parameter_base@_WV?$stream_output_adapter@_W@__crt_stdio_output@@@2@@__crt_stdio_output@@AAE_N_N@Z 004233d3 f i libucrt:output.obj
 0001:000225db       ??$type_case_integer@$07@?$output_processor@_WV?$stream_output_adapter@_W@__crt_stdio_output@@V?$standard_base@_WV?$stream_output_adapter@_W@__crt_stdio_output@@@2@@__crt_stdio_output@@AAE_N_N@Z 004235db f i libucrt:output.obj
 0001:000227d1       ??$type_case_integer@$07@?$output_processor@_WV?$string_output_adapter@_W@__crt_stdio_output@@V?$format_validation_base@_WV?$string_output_adapter@_W@__crt_stdio_output@@@2@@__crt_stdio_output@@AAE_N_N@Z 004237d1 f i libucrt:output.obj
 0001:000229c7       ??$type_case_integer@$07@?$output_processor@_WV?$string_output_adapter@_W@__crt_stdio_output@@V?$positional_parameter_base@_WV?$string_output_adapter@_W@__crt_stdio_output@@@2@@__crt_stdio_output@@AAE_N_N@Z 004239c7 f i libucrt:output.obj
 0001:00022bcf       ??$type_case_integer@$07@?$output_processor@_WV?$string_output_adapter@_W@__crt_stdio_output@@V?$standard_base@_WV?$string_output_adapter@_W@__crt_stdio_output@@@2@@__crt_stdio_output@@AAE_N_N@Z 00423bcf f i libucrt:output.obj
 0001:00022dc5       ??$type_case_integer@$09@?$output_processor@DV?$stream_output_adapter@D@__crt_stdio_output@@V?$format_validation_base@DV?$stream_output_adapter@D@__crt_stdio_output@@@2@@__crt_stdio_output@@AAE_N_N@Z 00423dc5 f i libucrt:output.obj
 0001:00022fb5       ??$type_case_integer@$09@?$output_processor@DV?$stream_output_adapter@D@__crt_stdio_output@@V?$positional_parameter_base@DV?$stream_output_adapter@D@__crt_stdio_output@@@2@@__crt_stdio_output@@AAE_N_N@Z 00423fb5 f i libucrt:output.obj
 0001:000231b8       ??$type_case_integer@$09@?$output_processor@DV?$stream_output_adapter@D@__crt_stdio_output@@V?$standard_base@DV?$stream_output_adapter@D@__crt_stdio_output@@@2@@__crt_stdio_output@@AAE_N_N@Z 004241b8 f i libucrt:output.obj
 0001:000233a8       ??$type_case_integer@$09@?$output_processor@DV?$string_output_adapter@D@__crt_stdio_output@@V?$format_validation_base@DV?$string_output_adapter@D@__crt_stdio_output@@@2@@__crt_stdio_output@@AAE_N_N@Z 004243a8 f i libucrt:output.obj
 0001:00023598       ??$type_case_integer@$09@?$output_processor@DV?$string_output_adapter@D@__crt_stdio_output@@V?$positional_parameter_base@DV?$string_output_adapter@D@__crt_stdio_output@@@2@@__crt_stdio_output@@AAE_N_N@Z 00424598 f i libucrt:output.obj
 0001:0002379b       ??$type_case_integer@$09@?$output_processor@DV?$string_output_adapter@D@__crt_stdio_output@@V?$standard_base@DV?$string_output_adapter@D@__crt_stdio_output@@@2@@__crt_stdio_output@@AAE_N_N@Z 0042479b f i libucrt:output.obj
 0001:0002398b       ??$type_case_integer@$09@?$output_processor@_WV?$stream_output_adapter@_W@__crt_stdio_output@@V?$format_validation_base@_WV?$stream_output_adapter@_W@__crt_stdio_output@@@2@@__crt_stdio_output@@AAE_N_N@Z 0042498b f i libucrt:output.obj
 0001:00023b81       ??$type_case_integer@$09@?$output_processor@_WV?$stream_output_adapter@_W@__crt_stdio_output@@V?$positional_parameter_base@_WV?$stream_output_adapter@_W@__crt_stdio_output@@@2@@__crt_stdio_output@@AAE_N_N@Z 00424b81 f i libucrt:output.obj
 0001:00023d89       ??$type_case_integer@$09@?$output_processor@_WV?$stream_output_adapter@_W@__crt_stdio_output@@V?$standard_base@_WV?$stream_output_adapter@_W@__crt_stdio_output@@@2@@__crt_stdio_output@@AAE_N_N@Z 00424d89 f i libucrt:output.obj
 0001:00023f7f       ??$type_case_integer@$09@?$output_processor@_WV?$string_output_adapter@_W@__crt_stdio_output@@V?$format_validation_base@_WV?$string_output_adapter@_W@__crt_stdio_output@@@2@@__crt_stdio_output@@AAE_N_N@Z 00424f7f f i libucrt:output.obj
 0001:00024175       ??$type_case_integer@$09@?$output_processor@_WV?$string_output_adapter@_W@__crt_stdio_output@@V?$positional_parameter_base@_WV?$string_output_adapter@_W@__crt_stdio_output@@@2@@__crt_stdio_output@@AAE_N_N@Z 00425175 f i libucrt:output.obj
 0001:0002437d       ??$type_case_integer@$09@?$output_processor@_WV?$string_output_adapter@_W@__crt_stdio_output@@V?$standard_base@_WV?$string_output_adapter@_W@__crt_stdio_output@@@2@@__crt_stdio_output@@AAE_N_N@Z 0042537d f i libucrt:output.obj
 0001:00024573       ??$type_case_integer@$0BA@@?$output_processor@DV?$stream_output_adapter@D@__crt_stdio_output@@V?$format_validation_base@DV?$stream_output_adapter@D@__crt_stdio_output@@@2@@__crt_stdio_output@@AAE_N_N@Z 00425573 f i libucrt:output.obj
 0001:00024763       ??$type_case_integer@$0BA@@?$output_processor@DV?$stream_output_adapter@D@__crt_stdio_output@@V?$positional_parameter_base@DV?$stream_output_adapter@D@__crt_stdio_output@@@2@@__crt_stdio_output@@AAE_N_N@Z 00425763 f i libucrt:output.obj
 0001:00024966       ??$type_case_integer@$0BA@@?$output_processor@DV?$stream_output_adapter@D@__crt_stdio_output@@V?$standard_base@DV?$stream_output_adapter@D@__crt_stdio_output@@@2@@__crt_stdio_output@@AAE_N_N@Z 00425966 f i libucrt:output.obj
 0001:00024b56       ??$type_case_integer@$0BA@@?$output_processor@DV?$string_output_adapter@D@__crt_stdio_output@@V?$format_validation_base@DV?$string_output_adapter@D@__crt_stdio_output@@@2@@__crt_stdio_output@@AAE_N_N@Z 00425b56 f i libucrt:output.obj
 0001:00024d46       ??$type_case_integer@$0BA@@?$output_processor@DV?$string_output_adapter@D@__crt_stdio_output@@V?$positional_parameter_base@DV?$string_output_adapter@D@__crt_stdio_output@@@2@@__crt_stdio_output@@AAE_N_N@Z 00425d46 f i libucrt:output.obj
 0001:00024f49       ??$type_case_integer@$0BA@@?$output_processor@DV?$string_output_adapter@D@__crt_stdio_output@@V?$standard_base@DV?$string_output_adapter@D@__crt_stdio_output@@@2@@__crt_stdio_output@@AAE_N_N@Z 00425f49 f i libucrt:output.obj
 0001:00025139       ??$type_case_integer@$0BA@@?$output_processor@_WV?$stream_output_adapter@_W@__crt_stdio_output@@V?$format_validation_base@_WV?$stream_output_adapter@_W@__crt_stdio_output@@@2@@__crt_stdio_output@@AAE_N_N@Z 00426139 f i libucrt:output.obj
 0001:0002532f       ??$type_case_integer@$0BA@@?$output_processor@_WV?$stream_output_adapter@_W@__crt_stdio_output@@V?$positional_parameter_base@_WV?$stream_output_adapter@_W@__crt_stdio_output@@@2@@__crt_stdio_output@@AAE_N_N@Z 0042632f f i libucrt:output.obj
 0001:00025537       ??$type_case_integer@$0BA@@?$output_processor@_WV?$stream_output_adapter@_W@__crt_stdio_output@@V?$standard_base@_WV?$stream_output_adapter@_W@__crt_stdio_output@@@2@@__crt_stdio_output@@AAE_N_N@Z 00426537 f i libucrt:output.obj
 0001:0002572d       ??$type_case_integer@$0BA@@?$output_processor@_WV?$string_output_adapter@_W@__crt_stdio_output@@V?$format_validation_base@_WV?$string_output_adapter@_W@__crt_stdio_output@@@2@@__crt_stdio_output@@AAE_N_N@Z 0042672d f i libucrt:output.obj
 0001:00025923       ??$type_case_integer@$0BA@@?$output_processor@_WV?$string_output_adapter@_W@__crt_stdio_output@@V?$positional_parameter_base@_WV?$string_output_adapter@_W@__crt_stdio_output@@@2@@__crt_stdio_output@@AAE_N_N@Z 00426923 f i libucrt:output.obj
 0001:00025b2b       ??$type_case_integer@$0BA@@?$output_processor@_WV?$string_output_adapter@_W@__crt_stdio_output@@V?$standard_base@_WV?$string_output_adapter@_W@__crt_stdio_output@@@2@@__crt_stdio_output@@AAE_N_N@Z 00426b2b f i libucrt:output.obj
 0001:00025d21       ??$type_case_integer_parse_into_buffer@I$07@?$output_processor@DV?$stream_output_adapter@D@__crt_stdio_output@@V?$format_validation_base@DV?$stream_output_adapter@D@__crt_stdio_output@@@2@@__crt_stdio_output@@AAEXI_N@Z 00426d21 f i libucrt:output.obj
 0001:00025d9c       ??$type_case_integer_parse_into_buffer@I$07@?$output_processor@DV?$stream_output_adapter@D@__crt_stdio_output@@V?$positional_parameter_base@DV?$stream_output_adapter@D@__crt_stdio_output@@@2@@__crt_stdio_output@@AAEXI_N@Z 00426d9c f i libucrt:output.obj
 0001:00025e17       ??$type_case_integer_parse_into_buffer@I$07@?$output_processor@DV?$stream_output_adapter@D@__crt_stdio_output@@V?$standard_base@DV?$stream_output_adapter@D@__crt_stdio_output@@@2@@__crt_stdio_output@@AAEXI_N@Z 00426e17 f i libucrt:output.obj
 0001:00025e92       ??$type_case_integer_parse_into_buffer@I$07@?$output_processor@DV?$string_output_adapter@D@__crt_stdio_output@@V?$format_validation_base@DV?$string_output_adapter@D@__crt_stdio_output@@@2@@__crt_stdio_output@@AAEXI_N@Z 00426e92 f i libucrt:output.obj
 0001:00025f0d       ??$type_case_integer_parse_into_buffer@I$07@?$output_processor@DV?$string_output_adapter@D@__crt_stdio_output@@V?$positional_parameter_base@DV?$string_output_adapter@D@__crt_stdio_output@@@2@@__crt_stdio_output@@AAEXI_N@Z 00426f0d f i libucrt:output.obj
 0001:00025f88       ??$type_case_integer_parse_into_buffer@I$07@?$output_processor@DV?$string_output_adapter@D@__crt_stdio_output@@V?$standard_base@DV?$string_output_adapter@D@__crt_stdio_output@@@2@@__crt_stdio_output@@AAEXI_N@Z 00426f88 f i libucrt:output.obj
 0001:00026003       ??$type_case_integer_parse_into_buffer@I$07@?$output_processor@_WV?$stream_output_adapter@_W@__crt_stdio_output@@V?$format_validation_base@_WV?$stream_output_adapter@_W@__crt_stdio_output@@@2@@__crt_stdio_output@@AAEXI_N@Z 00427003 f i libucrt:output.obj
 0001:00026092       ??$type_case_integer_parse_into_buffer@I$07@?$output_processor@_WV?$stream_output_adapter@_W@__crt_stdio_output@@V?$positional_parameter_base@_WV?$stream_output_adapter@_W@__crt_stdio_output@@@2@@__crt_stdio_output@@AAEXI_N@Z 00427092 f i libucrt:output.obj
 0001:00026121       ??$type_case_integer_parse_into_buffer@I$07@?$output_processor@_WV?$stream_output_adapter@_W@__crt_stdio_output@@V?$standard_base@_WV?$stream_output_adapter@_W@__crt_stdio_output@@@2@@__crt_stdio_output@@AAEXI_N@Z 00427121 f i libucrt:output.obj
 0001:000261b0       ??$type_case_integer_parse_into_buffer@I$07@?$output_processor@_WV?$string_output_adapter@_W@__crt_stdio_output@@V?$format_validation_base@_WV?$string_output_adapter@_W@__crt_stdio_output@@@2@@__crt_stdio_output@@AAEXI_N@Z 004271b0 f i libucrt:output.obj
 0001:0002623f       ??$type_case_integer_parse_into_buffer@I$07@?$output_processor@_WV?$string_output_adapter@_W@__crt_stdio_output@@V?$positional_parameter_base@_WV?$string_output_adapter@_W@__crt_stdio_output@@@2@@__crt_stdio_output@@AAEXI_N@Z 0042723f f i libucrt:output.obj
 0001:000262ce       ??$type_case_integer_parse_into_buffer@I$07@?$output_processor@_WV?$string_output_adapter@_W@__crt_stdio_output@@V?$standard_base@_WV?$string_output_adapter@_W@__crt_stdio_output@@@2@@__crt_stdio_output@@AAEXI_N@Z 004272ce f i libucrt:output.obj
 0001:0002635d       ??$type_case_integer_parse_into_buffer@I$09@?$output_processor@DV?$stream_output_adapter@D@__crt_stdio_output@@V?$format_validation_base@DV?$stream_output_adapter@D@__crt_stdio_output@@@2@@__crt_stdio_output@@AAEXI_N@Z 0042735d f i libucrt:output.obj
 0001:00026405       ??$type_case_integer_parse_into_buffer@I$09@?$output_processor@DV?$stream_output_adapter@D@__crt_stdio_output@@V?$positional_parameter_base@DV?$stream_output_adapter@D@__crt_stdio_output@@@2@@__crt_stdio_output@@AAEXI_N@Z 00427405 f i libucrt:output.obj
 0001:000264ad       ??$type_case_integer_parse_into_buffer@I$09@?$output_processor@DV?$stream_output_adapter@D@__crt_stdio_output@@V?$standard_base@DV?$stream_output_adapter@D@__crt_stdio_output@@@2@@__crt_stdio_output@@AAEXI_N@Z 004274ad f i libucrt:output.obj
 0001:00026555       ??$type_case_integer_parse_into_buffer@I$09@?$output_processor@DV?$string_output_adapter@D@__crt_stdio_output@@V?$format_validation_base@DV?$string_output_adapter@D@__crt_stdio_output@@@2@@__crt_stdio_output@@AAEXI_N@Z 00427555 f i libucrt:output.obj
 0001:000265fd       ??$type_case_integer_parse_into_buffer@I$09@?$output_processor@DV?$string_output_adapter@D@__crt_stdio_output@@V?$positional_parameter_base@DV?$string_output_adapter@D@__crt_stdio_output@@@2@@__crt_stdio_output@@AAEXI_N@Z 004275fd f i libucrt:output.obj
 0001:000266a5       ??$type_case_integer_parse_into_buffer@I$09@?$output_processor@DV?$string_output_adapter@D@__crt_stdio_output@@V?$standard_base@DV?$string_output_adapter@D@__crt_stdio_output@@@2@@__crt_stdio_output@@AAEXI_N@Z 004276a5 f i libucrt:output.obj
 0001:0002674d       ??$type_case_integer_parse_into_buffer@I$09@?$output_processor@_WV?$stream_output_adapter@_W@__crt_stdio_output@@V?$format_validation_base@_WV?$stream_output_adapter@_W@__crt_stdio_output@@@2@@__crt_stdio_output@@AAEXI_N@Z 0042774d f i libucrt:output.obj
 0001:00026810       ??$type_case_integer_parse_into_buffer@I$09@?$output_processor@_WV?$stream_output_adapter@_W@__crt_stdio_output@@V?$positional_parameter_base@_WV?$stream_output_adapter@_W@__crt_stdio_output@@@2@@__crt_stdio_output@@AAEXI_N@Z 00427810 f i libucrt:output.obj
 0001:000268d3       ??$type_case_integer_parse_into_buffer@I$09@?$output_processor@_WV?$stream_output_adapter@_W@__crt_stdio_output@@V?$standard_base@_WV?$stream_output_adapter@_W@__crt_stdio_output@@@2@@__crt_stdio_output@@AAEXI_N@Z 004278d3 f i libucrt:output.obj
 0001:00026996       ??$type_case_integer_parse_into_buffer@I$09@?$output_processor@_WV?$string_output_adapter@_W@__crt_stdio_output@@V?$format_validation_base@_WV?$string_output_adapter@_W@__crt_stdio_output@@@2@@__crt_stdio_output@@AAEXI_N@Z 00427996 f i libucrt:output.obj
 0001:00026a59       ??$type_case_integer_parse_into_buffer@I$09@?$output_processor@_WV?$string_output_adapter@_W@__crt_stdio_output@@V?$positional_parameter_base@_WV?$string_output_adapter@_W@__crt_stdio_output@@@2@@__crt_stdio_output@@AAEXI_N@Z 00427a59 f i libucrt:output.obj
 0001:00026b1c       ??$type_case_integer_parse_into_buffer@I$09@?$output_processor@_WV?$string_output_adapter@_W@__crt_stdio_output@@V?$standard_base@_WV?$string_output_adapter@_W@__crt_stdio_output@@@2@@__crt_stdio_output@@AAEXI_N@Z 00427b1c f i libucrt:output.obj
 0001:00026bdf       ??$type_case_integer_parse_into_buffer@I$0BA@@?$output_processor@DV?$stream_output_adapter@D@__crt_stdio_output@@V?$format_validation_base@DV?$stream_output_adapter@D@__crt_stdio_output@@@2@@__crt_stdio_output@@AAEXI_N@Z 00427bdf f i libucrt:output.obj
 0001:00026c7b       ??$type_case_integer_parse_into_buffer@I$0BA@@?$output_processor@DV?$stream_output_adapter@D@__crt_stdio_output@@V?$positional_parameter_base@DV?$stream_output_adapter@D@__crt_stdio_output@@@2@@__crt_stdio_output@@AAEXI_N@Z 00427c7b f i libucrt:output.obj
 0001:00026d17       ??$type_case_integer_parse_into_buffer@I$0BA@@?$output_processor@DV?$stream_output_adapter@D@__crt_stdio_output@@V?$standard_base@DV?$stream_output_adapter@D@__crt_stdio_output@@@2@@__crt_stdio_output@@AAEXI_N@Z 00427d17 f i libucrt:output.obj
 0001:00026db3       ??$type_case_integer_parse_into_buffer@I$0BA@@?$output_processor@DV?$string_output_adapter@D@__crt_stdio_output@@V?$format_validation_base@DV?$string_output_adapter@D@__crt_stdio_output@@@2@@__crt_stdio_output@@AAEXI_N@Z 00427db3 f i libucrt:output.obj
 0001:00026e4f       ??$type_case_integer_parse_into_buffer@I$0BA@@?$output_processor@DV?$string_output_adapter@D@__crt_stdio_output@@V?$positional_parameter_base@DV?$string_output_adapter@D@__crt_stdio_output@@@2@@__crt_stdio_output@@AAEXI_N@Z 00427e4f f i libucrt:output.obj
 0001:00026eeb       ??$type_case_integer_parse_into_buffer@I$0BA@@?$output_processor@DV?$string_output_adapter@D@__crt_stdio_output@@V?$standard_base@DV?$string_output_adapter@D@__crt_stdio_output@@@2@@__crt_stdio_output@@AAEXI_N@Z 00427eeb f i libucrt:output.obj
 0001:00026f87       ??$type_case_integer_parse_into_buffer@I$0BA@@?$output_processor@_WV?$stream_output_adapter@_W@__crt_stdio_output@@V?$format_validation_base@_WV?$stream_output_adapter@_W@__crt_stdio_output@@@2@@__crt_stdio_output@@AAEXI_N@Z 00427f87 f i libucrt:output.obj
 0001:00027033       ??$type_case_integer_parse_into_buffer@I$0BA@@?$output_processor@_WV?$stream_output_adapter@_W@__crt_stdio_output@@V?$positional_parameter_base@_WV?$stream_output_adapter@_W@__crt_stdio_output@@@2@@__crt_stdio_output@@AAEXI_N@Z 00428033 f i libucrt:output.obj
 0001:000270df       ??$type_case_integer_parse_into_buffer@I$0BA@@?$output_processor@_WV?$stream_output_adapter@_W@__crt_stdio_output@@V?$standard_base@_WV?$stream_output_adapter@_W@__crt_stdio_output@@@2@@__crt_stdio_output@@AAEXI_N@Z 004280df f i libucrt:output.obj
 0001:0002718b       ??$type_case_integer_parse_into_buffer@I$0BA@@?$output_processor@_WV?$string_output_adapter@_W@__crt_stdio_output@@V?$format_validation_base@_WV?$string_output_adapter@_W@__crt_stdio_output@@@2@@__crt_stdio_output@@AAEXI_N@Z 0042818b f i libucrt:output.obj
 0001:00027237       ??$type_case_integer_parse_into_buffer@I$0BA@@?$output_processor@_WV?$string_output_adapter@_W@__crt_stdio_output@@V?$positional_parameter_base@_WV?$string_output_adapter@_W@__crt_stdio_output@@@2@@__crt_stdio_output@@AAEXI_N@Z 00428237 f i libucrt:output.obj
 0001:000272e3       ??$type_case_integer_parse_into_buffer@I$0BA@@?$output_processor@_WV?$string_output_adapter@_W@__crt_stdio_output@@V?$standard_base@_WV?$string_output_adapter@_W@__crt_stdio_output@@@2@@__crt_stdio_output@@AAEXI_N@Z 004282e3 f i libucrt:output.obj
 0001:0002738f       ??$type_case_integer_parse_into_buffer@_K$07@?$output_processor@DV?$stream_output_adapter@D@__crt_stdio_output@@V?$format_validation_base@DV?$stream_output_adapter@D@__crt_stdio_output@@@2@@__crt_stdio_output@@AAEX_K_N@Z 0042838f f i libucrt:output.obj
 0001:00027425       ??$type_case_integer_parse_into_buffer@_K$07@?$output_processor@DV?$stream_output_adapter@D@__crt_stdio_output@@V?$positional_parameter_base@DV?$stream_output_adapter@D@__crt_stdio_output@@@2@@__crt_stdio_output@@AAEX_K_N@Z 00428425 f i libucrt:output.obj
 0001:000274bb       ??$type_case_integer_parse_into_buffer@_K$07@?$output_processor@DV?$stream_output_adapter@D@__crt_stdio_output@@V?$standard_base@DV?$stream_output_adapter@D@__crt_stdio_output@@@2@@__crt_stdio_output@@AAEX_K_N@Z 004284bb f i libucrt:output.obj
 0001:00027551       ??$type_case_integer_parse_into_buffer@_K$07@?$output_processor@DV?$string_output_adapter@D@__crt_stdio_output@@V?$format_validation_base@DV?$string_output_adapter@D@__crt_stdio_output@@@2@@__crt_stdio_output@@AAEX_K_N@Z 00428551 f i libucrt:output.obj
 0001:000275e7       ??$type_case_integer_parse_into_buffer@_K$07@?$output_processor@DV?$string_output_adapter@D@__crt_stdio_output@@V?$positional_parameter_base@DV?$string_output_adapter@D@__crt_stdio_output@@@2@@__crt_stdio_output@@AAEX_K_N@Z 004285e7 f i libucrt:output.obj
 0001:0002767d       ??$type_case_integer_parse_into_buffer@_K$07@?$output_processor@DV?$string_output_adapter@D@__crt_stdio_output@@V?$standard_base@DV?$string_output_adapter@D@__crt_stdio_output@@@2@@__crt_stdio_output@@AAEX_K_N@Z 0042867d f i libucrt:output.obj
 0001:00027713       ??$type_case_integer_parse_into_buffer@_K$07@?$output_processor@_WV?$stream_output_adapter@_W@__crt_stdio_output@@V?$format_validation_base@_WV?$stream_output_adapter@_W@__crt_stdio_output@@@2@@__crt_stdio_output@@AAEX_K_N@Z 00428713 f i libucrt:output.obj
 0001:000277bb       ??$type_case_integer_parse_into_buffer@_K$07@?$output_processor@_WV?$stream_output_adapter@_W@__crt_stdio_output@@V?$positional_parameter_base@_WV?$stream_output_adapter@_W@__crt_stdio_output@@@2@@__crt_stdio_output@@AAEX_K_N@Z 004287bb f i libucrt:output.obj
 0001:00027863       ??$type_case_integer_parse_into_buffer@_K$07@?$output_processor@_WV?$stream_output_adapter@_W@__crt_stdio_output@@V?$standard_base@_WV?$stream_output_adapter@_W@__crt_stdio_output@@@2@@__crt_stdio_output@@AAEX_K_N@Z 00428863 f i libucrt:output.obj
 0001:0002790b       ??$type_case_integer_parse_into_buffer@_K$07@?$output_processor@_WV?$string_output_adapter@_W@__crt_stdio_output@@V?$format_validation_base@_WV?$string_output_adapter@_W@__crt_stdio_output@@@2@@__crt_stdio_output@@AAEX_K_N@Z 0042890b f i libucrt:output.obj
 0001:000279b3       ??$type_case_integer_parse_into_buffer@_K$07@?$output_processor@_WV?$string_output_adapter@_W@__crt_stdio_output@@V?$positional_parameter_base@_WV?$string_output_adapter@_W@__crt_stdio_output@@@2@@__crt_stdio_output@@AAEX_K_N@Z 004289b3 f i libucrt:output.obj
 0001:00027a5b       ??$type_case_integer_parse_into_buffer@_K$07@?$output_processor@_WV?$string_output_adapter@_W@__crt_stdio_output@@V?$standard_base@_WV?$string_output_adapter@_W@__crt_stdio_output@@@2@@__crt_stdio_output@@AAEX_K_N@Z 00428a5b f i libucrt:output.obj
 0001:00027b03       ??$type_case_integer_parse_into_buffer@_K$09@?$output_processor@DV?$stream_output_adapter@D@__crt_stdio_output@@V?$format_validation_base@DV?$stream_output_adapter@D@__crt_stdio_output@@@2@@__crt_stdio_output@@AAEX_K_N@Z 00428b03 f i libucrt:output.obj
 0001:00027bd3       ??$type_case_integer_parse_into_buffer@_K$09@?$output_processor@DV?$stream_output_adapter@D@__crt_stdio_output@@V?$positional_parameter_base@DV?$stream_output_adapter@D@__crt_stdio_output@@@2@@__crt_stdio_output@@AAEX_K_N@Z 00428bd3 f i libucrt:output.obj
 0001:00027ca3       ??$type_case_integer_parse_into_buffer@_K$09@?$output_processor@DV?$stream_output_adapter@D@__crt_stdio_output@@V?$standard_base@DV?$stream_output_adapter@D@__crt_stdio_output@@@2@@__crt_stdio_output@@AAEX_K_N@Z 00428ca3 f i libucrt:output.obj
 0001:00027d73       ??$type_case_integer_parse_into_buffer@_K$09@?$output_processor@DV?$string_output_adapter@D@__crt_stdio_output@@V?$format_validation_base@DV?$string_output_adapter@D@__crt_stdio_output@@@2@@__crt_stdio_output@@AAEX_K_N@Z 00428d73 f i libucrt:output.obj
 0001:00027e43       ??$type_case_integer_parse_into_buffer@_K$09@?$output_processor@DV?$string_output_adapter@D@__crt_stdio_output@@V?$positional_parameter_base@DV?$string_output_adapter@D@__crt_stdio_output@@@2@@__crt_stdio_output@@AAEX_K_N@Z 00428e43 f i libucrt:output.obj
 0001:00027f13       ??$type_case_integer_parse_into_buffer@_K$09@?$output_processor@DV?$string_output_adapter@D@__crt_stdio_output@@V?$standard_base@DV?$string_output_adapter@D@__crt_stdio_output@@@2@@__crt_stdio_output@@AAEX_K_N@Z 00428f13 f i libucrt:output.obj
 0001:00027fe3       ??$type_case_integer_parse_into_buffer@_K$09@?$output_processor@_WV?$stream_output_adapter@_W@__crt_stdio_output@@V?$format_validation_base@_WV?$stream_output_adapter@_W@__crt_stdio_output@@@2@@__crt_stdio_output@@AAEX_K_N@Z 00428fe3 f i libucrt:output.obj
 0001:000280cf       ??$type_case_integer_parse_into_buffer@_K$09@?$output_processor@_WV?$stream_output_adapter@_W@__crt_stdio_output@@V?$positional_parameter_base@_WV?$stream_output_adapter@_W@__crt_stdio_output@@@2@@__crt_stdio_output@@AAEX_K_N@Z 004290cf f i libucrt:output.obj
 0001:000281bb       ??$type_case_integer_parse_into_buffer@_K$09@?$output_processor@_WV?$stream_output_adapter@_W@__crt_stdio_output@@V?$standard_base@_WV?$stream_output_adapter@_W@__crt_stdio_output@@@2@@__crt_stdio_output@@AAEX_K_N@Z 004291bb f i libucrt:output.obj
 0001:000282a7       ??$type_case_integer_parse_into_buffer@_K$09@?$output_processor@_WV?$string_output_adapter@_W@__crt_stdio_output@@V?$format_validation_base@_WV?$string_output_adapter@_W@__crt_stdio_output@@@2@@__crt_stdio_output@@AAEX_K_N@Z 004292a7 f i libucrt:output.obj
 0001:00028393       ??$type_case_integer_parse_into_buffer@_K$09@?$output_processor@_WV?$string_output_adapter@_W@__crt_stdio_output@@V?$positional_parameter_base@_WV?$string_output_adapter@_W@__crt_stdio_output@@@2@@__crt_stdio_output@@AAEX_K_N@Z 00429393 f i libucrt:output.obj
 0001:0002847f       ??$type_case_integer_parse_into_buffer@_K$09@?$output_processor@_WV?$string_output_adapter@_W@__crt_stdio_output@@V?$standard_base@_WV?$string_output_adapter@_W@__crt_stdio_output@@@2@@__crt_stdio_output@@AAEX_K_N@Z 0042947f f i libucrt:output.obj
 0001:0002856b       ??$type_case_integer_parse_into_buffer@_K$0BA@@?$output_processor@DV?$stream_output_adapter@D@__crt_stdio_output@@V?$format_validation_base@DV?$stream_output_adapter@D@__crt_stdio_output@@@2@@__crt_stdio_output@@AAEX_K_N@Z 0042956b f i libucrt:output.obj
 0001:00028617       ??$type_case_integer_parse_into_buffer@_K$0BA@@?$output_processor@DV?$stream_output_adapter@D@__crt_stdio_output@@V?$positional_parameter_base@DV?$stream_output_adapter@D@__crt_stdio_output@@@2@@__crt_stdio_output@@AAEX_K_N@Z 00429617 f i libucrt:output.obj
 0001:000286c3       ??$type_case_integer_parse_into_buffer@_K$0BA@@?$output_processor@DV?$stream_output_adapter@D@__crt_stdio_output@@V?$standard_base@DV?$stream_output_adapter@D@__crt_stdio_output@@@2@@__crt_stdio_output@@AAEX_K_N@Z 004296c3 f i libucrt:output.obj
 0001:0002876f       ??$type_case_integer_parse_into_buffer@_K$0BA@@?$output_processor@DV?$string_output_adapter@D@__crt_stdio_output@@V?$format_validation_base@DV?$string_output_adapter@D@__crt_stdio_output@@@2@@__crt_stdio_output@@AAEX_K_N@Z 0042976f f i libucrt:output.obj
 0001:0002881b       ??$type_case_integer_parse_into_buffer@_K$0BA@@?$output_processor@DV?$string_output_adapter@D@__crt_stdio_output@@V?$positional_parameter_base@DV?$string_output_adapter@D@__crt_stdio_output@@@2@@__crt_stdio_output@@AAEX_K_N@Z 0042981b f i libucrt:output.obj
 0001:000288c7       ??$type_case_integer_parse_into_buffer@_K$0BA@@?$output_processor@DV?$string_output_adapter@D@__crt_stdio_output@@V?$standard_base@DV?$string_output_adapter@D@__crt_stdio_output@@@2@@__crt_stdio_output@@AAEX_K_N@Z 004298c7 f i libucrt:output.obj
 0001:00028973       ??$type_case_integer_parse_into_buffer@_K$0BA@@?$output_processor@_WV?$stream_output_adapter@_W@__crt_stdio_output@@V?$format_validation_base@_WV?$stream_output_adapter@_W@__crt_stdio_output@@@2@@__crt_stdio_output@@AAEX_K_N@Z 00429973 f i libucrt:output.obj
 0001:00028a2e       ??$type_case_integer_parse_into_buffer@_K$0BA@@?$output_processor@_WV?$stream_output_adapter@_W@__crt_stdio_output@@V?$positional_parameter_base@_WV?$stream_output_adapter@_W@__crt_stdio_output@@@2@@__crt_stdio_output@@AAEX_K_N@Z 00429a2e f i libucrt:output.obj
 0001:00028ae9       ??$type_case_integer_parse_into_buffer@_K$0BA@@?$output_processor@_WV?$stream_output_adapter@_W@__crt_stdio_output@@V?$standard_base@_WV?$stream_output_adapter@_W@__crt_stdio_output@@@2@@__crt_stdio_output@@AAEX_K_N@Z 00429ae9 f i libucrt:output.obj
 0001:00028ba4       ??$type_case_integer_parse_into_buffer@_K$0BA@@?$output_processor@_WV?$string_output_adapter@_W@__crt_stdio_output@@V?$format_validation_base@_WV?$string_output_adapter@_W@__crt_stdio_output@@@2@@__crt_stdio_output@@AAEX_K_N@Z 00429ba4 f i libucrt:output.obj
 0001:00028c5f       ??$type_case_integer_parse_into_buffer@_K$0BA@@?$output_processor@_WV?$string_output_adapter@_W@__crt_stdio_output@@V?$positional_parameter_base@_WV?$string_output_adapter@_W@__crt_stdio_output@@@2@@__crt_stdio_output@@AAEX_K_N@Z 00429c5f f i libucrt:output.obj
 0001:00028d1a       ??$type_case_integer_parse_into_buffer@_K$0BA@@?$output_processor@_WV?$string_output_adapter@_W@__crt_stdio_output@@V?$standard_base@_WV?$string_output_adapter@_W@__crt_stdio_output@@@2@@__crt_stdio_output@@AAEX_K_N@Z 00429d1a f i libucrt:output.obj
 0001:00028dd5       ??$write_multiple_characters@V?$stream_output_adapter@D@__crt_stdio_output@@D@__crt_stdio_output@@YAXABV?$stream_output_adapter@D@0@DHQAHAAV__crt_cached_ptd_host@@@Z 00429dd5 f i libucrt:output.obj
 0001:00028e0f       ??$write_multiple_characters@V?$stream_output_adapter@_W@__crt_stdio_output@@D@__crt_stdio_output@@YAXABV?$stream_output_adapter@_W@0@DHQAHAAV__crt_cached_ptd_host@@@Z 00429e0f f i libucrt:output.obj
 0001:00028e50       ??$write_multiple_characters@V?$string_output_adapter@D@__crt_stdio_output@@D@__crt_stdio_output@@YAXABV?$string_output_adapter@D@0@DHQAHAAV__crt_cached_ptd_host@@@Z 00429e50 f i libucrt:output.obj
 0001:00028ecb       ??$write_multiple_characters@V?$string_output_adapter@_W@__crt_stdio_output@@D@__crt_stdio_output@@YAXABV?$string_output_adapter@_W@0@DHQAHAAV__crt_cached_ptd_host@@@Z 00429ecb f i libucrt:output.obj
 0001:0002917f       ??0?$common_data@D@__crt_stdio_output@@IAE@AAV__crt_cached_ptd_host@@@Z 0042a17f f i libucrt:output.obj
 0001:000291d7       ??0?$common_data@_W@__crt_stdio_output@@IAE@AAV__crt_cached_ptd_host@@@Z 0042a1d7 f i libucrt:output.obj
 0001:00029236       ??0?$output_adapter_data@DV?$stream_output_adapter@D@__crt_stdio_output@@@__crt_stdio_output@@IAE@ABV?$stream_output_adapter@D@1@_KQBDAAV__crt_cached_ptd_host@@QAD@Z 0042a236 f i libucrt:output.obj
 0001:000292b6       ??0?$output_adapter_data@DV?$string_output_adapter@D@__crt_stdio_output@@@__crt_stdio_output@@IAE@ABV?$string_output_adapter@D@1@_KQBDAAV__crt_cached_ptd_host@@QAD@Z 0042a2b6 f i libucrt:output.obj
 0001:00029336       ??0?$output_adapter_data@_WV?$stream_output_adapter@_W@__crt_stdio_output@@@__crt_stdio_output@@IAE@ABV?$stream_output_adapter@_W@1@_KQB_WAAV__crt_cached_ptd_host@@QAD@Z 0042a336 f i libucrt:output.obj
 0001:000293bd       ??0?$output_adapter_data@_WV?$string_output_adapter@_W@__crt_stdio_output@@@__crt_stdio_output@@IAE@ABV?$string_output_adapter@_W@1@_KQB_WAAV__crt_cached_ptd_host@@QAD@Z 0042a3bd f i libucrt:output.obj
 0001:00029444       ??0?$output_processor@DV?$stream_output_adapter@D@__crt_stdio_output@@V?$format_validation_base@DV?$stream_output_adapter@D@__crt_stdio_output@@@2@@__crt_stdio_output@@QAE@ABV?$stream_output_adapter@D@1@_KQBDAAV__crt_cached_ptd_host@@QAD@Z 0042a444 f i libucrt:output.obj
 0001:0002947c       ??0?$output_processor@DV?$stream_output_adapter@D@__crt_stdio_output@@V?$positional_parameter_base@DV?$stream_output_adapter@D@__crt_stdio_output@@@2@@__crt_stdio_output@@QAE@ABV?$stream_output_adapter@D@1@_KQBDAAV__crt_cached_ptd_host@@QAD@Z 0042a47c f i libucrt:output.obj
 0001:000294ab       ??0?$output_processor@DV?$stream_output_adapter@D@__crt_stdio_output@@V?$standard_base@DV?$stream_output_adapter@D@__crt_stdio_output@@@2@@__crt_stdio_output@@QAE@ABV?$stream_output_adapter@D@1@_KQBDAAV__crt_cached_ptd_host@@QAD@Z 0042a4ab f i libucrt:output.obj
 0001:000294e3       ??0?$output_processor@DV?$string_output_adapter@D@__crt_stdio_output@@V?$format_validation_base@DV?$string_output_adapter@D@__crt_stdio_output@@@2@@__crt_stdio_output@@QAE@ABV?$string_output_adapter@D@1@_KQBDAAV__crt_cached_ptd_host@@QAD@Z 0042a4e3 f i libucrt:output.obj
 0001:0002951b       ??0?$output_processor@DV?$string_output_adapter@D@__crt_stdio_output@@V?$positional_parameter_base@DV?$string_output_adapter@D@__crt_stdio_output@@@2@@__crt_stdio_output@@QAE@ABV?$string_output_adapter@D@1@_KQBDAAV__crt_cached_ptd_host@@QAD@Z 0042a51b f i libucrt:output.obj
 0001:0002954a       ??0?$output_processor@DV?$string_output_adapter@D@__crt_stdio_output@@V?$standard_base@DV?$string_output_adapter@D@__crt_stdio_output@@@2@@__crt_stdio_output@@QAE@ABV?$string_output_adapter@D@1@_KQBDAAV__crt_cached_ptd_host@@QAD@Z 0042a54a f i libucrt:output.obj
 0001:00029582       ??0?$output_processor@_WV?$stream_output_adapter@_W@__crt_stdio_output@@V?$format_validation_base@_WV?$stream_output_adapter@_W@__crt_stdio_output@@@2@@__crt_stdio_output@@QAE@ABV?$stream_output_adapter@_W@1@_KQB_WAAV__crt_cached_ptd_host@@QAD@Z 0042a582 f i libucrt:output.obj
 0001:000295ba       ??0?$output_processor@_WV?$stream_output_adapter@_W@__crt_stdio_output@@V?$positional_parameter_base@_WV?$stream_output_adapter@_W@__crt_stdio_output@@@2@@__crt_stdio_output@@QAE@ABV?$stream_output_adapter@_W@1@_KQB_WAAV__crt_cached_ptd_host@@QAD@Z 0042a5ba f i libucrt:output.obj
 0001:000295e9       ??0?$output_processor@_WV?$stream_output_adapter@_W@__crt_stdio_output@@V?$standard_base@_WV?$stream_output_adapter@_W@__crt_stdio_output@@@2@@__crt_stdio_output@@QAE@ABV?$stream_output_adapter@_W@1@_KQB_WAAV__crt_cached_ptd_host@@QAD@Z 0042a5e9 f i libucrt:output.obj
 0001:00029621       ??0?$output_processor@_WV?$string_output_adapter@_W@__crt_stdio_output@@V?$format_validation_base@_WV?$string_output_adapter@_W@__crt_stdio_output@@@2@@__crt_stdio_output@@QAE@ABV?$string_output_adapter@_W@1@_KQB_WAAV__crt_cached_ptd_host@@QAD@Z 0042a621 f i libucrt:output.obj
 0001:00029659       ??0?$output_processor@_WV?$string_output_adapter@_W@__crt_stdio_output@@V?$positional_parameter_base@_WV?$string_output_adapter@_W@__crt_stdio_output@@@2@@__crt_stdio_output@@QAE@ABV?$string_output_adapter@_W@1@_KQB_WAAV__crt_cached_ptd_host@@QAD@Z 0042a659 f i libucrt:output.obj
 0001:00029688       ??0?$output_processor@_WV?$string_output_adapter@_W@__crt_stdio_output@@V?$standard_base@_WV?$string_output_adapter@_W@__crt_stdio_output@@@2@@__crt_stdio_output@@QAE@ABV?$string_output_adapter@_W@1@_KQB_WAAV__crt_cached_ptd_host@@QAD@Z 0042a688 f i libucrt:output.obj
 0001:000296c0       ??0?$stream_output_adapter@D@__crt_stdio_output@@QAE@QAU_iobuf@@@Z 0042a6c0 f i libucrt:output.obj
 0001:000296d4       ??0?$stream_output_adapter@_W@__crt_stdio_output@@QAE@QAU_iobuf@@@Z 0042a6d4 f i libucrt:output.obj
 0001:000296e8       ??0?$string_output_adapter@D@__crt_stdio_output@@QAE@QAU?$string_output_adapter_context@D@1@@Z 0042a6e8 f i libucrt:output.obj
 0001:000296fc       ??0?$string_output_adapter@_W@__crt_stdio_output@@QAE@QAU?$string_output_adapter_context@_W@1@@Z 0042a6fc f i libucrt:output.obj
 0001:00029710       ??0__acrt_stdio_temporary_buffering_guard@@QAE@QAU_iobuf@@AAV__crt_cached_ptd_host@@@Z 0042a710 f i libucrt:output.obj
 0001:0002973d       ??0formatting_buffer@__crt_stdio_output@@QAE@XZ 0042a73d f i libucrt:output.obj
 0001:00029752       ??0guard@?$cached@H@__crt_cached_ptd_host@@QAE@AAU12@@Z 0042a752 f i libucrt:output.obj
 0001:00029778       ??1?$common_data@D@__crt_stdio_output@@QAE@XZ 0042a778 f i libucrt:output.obj
 0001:00029782       ??1?$common_data@_W@__crt_stdio_output@@QAE@XZ 0042a782 f i libucrt:output.obj
 0001:0002978c       ??1?$format_validation_base@DV?$stream_output_adapter@D@__crt_stdio_output@@@__crt_stdio_output@@QAE@XZ 0042a78c f i libucrt:output.obj
 0001:00029796       ??1?$format_validation_base@DV?$string_output_adapter@D@__crt_stdio_output@@@__crt_stdio_output@@QAE@XZ 0042a796 f i libucrt:output.obj
 0001:000297a0       ??1?$format_validation_base@_WV?$stream_output_adapter@_W@__crt_stdio_output@@@__crt_stdio_output@@QAE@XZ 0042a7a0 f i libucrt:output.obj
 0001:000297aa       ??1?$format_validation_base@_WV?$string_output_adapter@_W@__crt_stdio_output@@@__crt_stdio_output@@QAE@XZ 0042a7aa f i libucrt:output.obj
 0001:000297b4       ??1?$output_adapter_data@DV?$stream_output_adapter@D@__crt_stdio_output@@@__crt_stdio_output@@QAE@XZ 0042a7b4 f i libucrt:output.obj
 0001:000297be       ??1?$output_adapter_data@DV?$string_output_adapter@D@__crt_stdio_output@@@__crt_stdio_output@@QAE@XZ 0042a7be f i libucrt:output.obj
 0001:000297c8       ??1?$output_adapter_data@_WV?$stream_output_adapter@_W@__crt_stdio_output@@@__crt_stdio_output@@QAE@XZ 0042a7c8 f i libucrt:output.obj
 0001:000297d2       ??1?$output_adapter_data@_WV?$string_output_adapter@_W@__crt_stdio_output@@@__crt_stdio_output@@QAE@XZ 0042a7d2 f i libucrt:output.obj
 0001:000297dc       ??1?$output_processor@DV?$stream_output_adapter@D@__crt_stdio_output@@V?$format_validation_base@DV?$stream_output_adapter@D@__crt_stdio_output@@@2@@__crt_stdio_output@@QAE@XZ 0042a7dc f i libucrt:output.obj
 0001:000297e6       ??1?$output_processor@DV?$stream_output_adapter@D@__crt_stdio_output@@V?$positional_parameter_base@DV?$stream_output_adapter@D@__crt_stdio_output@@@2@@__crt_stdio_output@@QAE@XZ 0042a7e6 f i libucrt:output.obj
 0001:000297f0       ??1?$output_processor@DV?$stream_output_adapter@D@__crt_stdio_output@@V?$standard_base@DV?$stream_output_adapter@D@__crt_stdio_output@@@2@@__crt_stdio_output@@QAE@XZ 0042a7f0 f i libucrt:output.obj
 0001:000297fa       ??1?$output_processor@DV?$string_output_adapter@D@__crt_stdio_output@@V?$format_validation_base@DV?$string_output_adapter@D@__crt_stdio_output@@@2@@__crt_stdio_output@@QAE@XZ 0042a7fa f i libucrt:output.obj
 0001:00029804       ??1?$output_processor@DV?$string_output_adapter@D@__crt_stdio_output@@V?$positional_parameter_base@DV?$string_output_adapter@D@__crt_stdio_output@@@2@@__crt_stdio_output@@QAE@XZ 0042a804 f i libucrt:output.obj
 0001:0002980e       ??1?$output_processor@DV?$string_output_adapter@D@__crt_stdio_output@@V?$standard_base@DV?$string_output_adapter@D@__crt_stdio_output@@@2@@__crt_stdio_output@@QAE@XZ 0042a80e f i libucrt:output.obj
 0001:00029818       ??1?$output_processor@_WV?$stream_output_adapter@_W@__crt_stdio_output@@V?$format_validation_base@_WV?$stream_output_adapter@_W@__crt_stdio_output@@@2@@__crt_stdio_output@@QAE@XZ 0042a818 f i libucrt:output.obj
 0001:00029822       ??1?$output_processor@_WV?$stream_output_adapter@_W@__crt_stdio_output@@V?$positional_parameter_base@_WV?$stream_output_adapter@_W@__crt_stdio_output@@@2@@__crt_stdio_output@@QAE@XZ 0042a822 f i libucrt:output.obj
 0001:0002982c       ??1?$output_processor@_WV?$stream_output_adapter@_W@__crt_stdio_output@@V?$standard_base@_WV?$stream_output_adapter@_W@__crt_stdio_output@@@2@@__crt_stdio_output@@QAE@XZ 0042a82c f i libucrt:output.obj
 0001:00029836       ??1?$output_processor@_WV?$string_output_adapter@_W@__crt_stdio_output@@V?$format_validation_base@_WV?$string_output_adapter@_W@__crt_stdio_output@@@2@@__crt_stdio_output@@QAE@XZ 0042a836 f i libucrt:output.obj
 0001:00029840       ??1?$output_processor@_WV?$string_output_adapter@_W@__crt_stdio_output@@V?$positional_parameter_base@_WV?$string_output_adapter@_W@__crt_stdio_output@@@2@@__crt_stdio_output@@QAE@XZ 0042a840 f i libucrt:output.obj
 0001:0002984a       ??1?$output_processor@_WV?$string_output_adapter@_W@__crt_stdio_output@@V?$standard_base@_WV?$string_output_adapter@_W@__crt_stdio_output@@@2@@__crt_stdio_output@@QAE@XZ 0042a84a f i libucrt:output.obj
 0001:00029854       ??1?$positional_parameter_base@DV?$stream_output_adapter@D@__crt_stdio_output@@@__crt_stdio_output@@QAE@XZ 0042a854 f i libucrt:output.obj
 0001:0002985e       ??1?$positional_parameter_base@DV?$string_output_adapter@D@__crt_stdio_output@@@__crt_stdio_output@@QAE@XZ 0042a85e f i libucrt:output.obj
 0001:00029868       ??1?$positional_parameter_base@_WV?$stream_output_adapter@_W@__crt_stdio_output@@@__crt_stdio_output@@QAE@XZ 0042a868 f i libucrt:output.obj
 0001:00029872       ??1?$positional_parameter_base@_WV?$string_output_adapter@_W@__crt_stdio_output@@@__crt_stdio_output@@QAE@XZ 0042a872 f i libucrt:output.obj
 0001:0002987c       ??1?$standard_base@DV?$stream_output_adapter@D@__crt_stdio_output@@@__crt_stdio_output@@QAE@XZ 0042a87c f i libucrt:output.obj
 0001:00029886       ??1?$standard_base@DV?$string_output_adapter@D@__crt_stdio_output@@@__crt_stdio_output@@QAE@XZ 0042a886 f i libucrt:output.obj
 0001:00029890       ??1?$standard_base@_WV?$stream_output_adapter@_W@__crt_stdio_output@@@__crt_stdio_output@@QAE@XZ 0042a890 f i libucrt:output.obj
 0001:0002989a       ??1?$standard_base@_WV?$string_output_adapter@_W@__crt_stdio_output@@@__crt_stdio_output@@QAE@XZ 0042a89a f i libucrt:output.obj
 0001:000298a4       ??1__acrt_stdio_temporary_buffering_guard@@QAE@XZ 0042a8a4 f i libucrt:output.obj
 0001:000298bb       ??1formatting_buffer@__crt_stdio_output@@QAE@XZ 0042a8bb f i libucrt:output.obj
 0001:000298db       ??1guard@?$cached@H@__crt_cached_ptd_host@@QAE@XZ 0042a8db f i libucrt:output.obj
 0001:000298f6       ??4?$__crt_unique_heap_ptr@DU__crt_internal_free_policy@@@@QAEAAV0@$$QAV0@@Z 0042a8f6 f i libucrt:output.obj
 0001:00029923       ??A?$spectre_mitigated_lookup_table@Ustate_transition_pair@__crt_stdio_output@@$0IA@@__crt_stdio_output@@QBEABUstate_transition_pair@1@I@Z 0042a923 f i libucrt:output.obj
 0001:00029eb5       ?adjust_hexit@?$output_processor@DV?$stream_output_adapter@D@__crt_stdio_output@@V?$format_validation_base@DV?$stream_output_adapter@D@__crt_stdio_output@@@2@@__crt_stdio_output@@CADH_N@Z 0042aeb5 f i libucrt:output.obj
 0001:00029ece       ?adjust_hexit@?$output_processor@DV?$stream_output_adapter@D@__crt_stdio_output@@V?$positional_parameter_base@DV?$stream_output_adapter@D@__crt_stdio_output@@@2@@__crt_stdio_output@@CADH_N@Z 0042aece f i libucrt:output.obj
 0001:00029ee7       ?adjust_hexit@?$output_processor@DV?$stream_output_adapter@D@__crt_stdio_output@@V?$standard_base@DV?$stream_output_adapter@D@__crt_stdio_output@@@2@@__crt_stdio_output@@CADH_N@Z 0042aee7 f i libucrt:output.obj
 0001:00029f00       ?adjust_hexit@?$output_processor@DV?$string_output_adapter@D@__crt_stdio_output@@V?$format_validation_base@DV?$string_output_adapter@D@__crt_stdio_output@@@2@@__crt_stdio_output@@CADH_N@Z 0042af00 f i libucrt:output.obj
 0001:00029f19       ?adjust_hexit@?$output_processor@DV?$string_output_adapter@D@__crt_stdio_output@@V?$positional_parameter_base@DV?$string_output_adapter@D@__crt_stdio_output@@@2@@__crt_stdio_output@@CADH_N@Z 0042af19 f i libucrt:output.obj
 0001:00029f32       ?adjust_hexit@?$output_processor@DV?$string_output_adapter@D@__crt_stdio_output@@V?$standard_base@DV?$string_output_adapter@D@__crt_stdio_output@@@2@@__crt_stdio_output@@CADH_N@Z 0042af32 f i libucrt:output.obj
 0001:00029f4b       ?adjust_hexit@?$output_processor@_WV?$stream_output_adapter@_W@__crt_stdio_output@@V?$format_validation_base@_WV?$stream_output_adapter@_W@__crt_stdio_output@@@2@@__crt_stdio_output@@CADH_N@Z 0042af4b f i libucrt:output.obj
 0001:00029f64       ?adjust_hexit@?$output_processor@_WV?$stream_output_adapter@_W@__crt_stdio_output@@V?$positional_parameter_base@_WV?$stream_output_adapter@_W@__crt_stdio_output@@@2@@__crt_stdio_output@@CADH_N@Z 0042af64 f i libucrt:output.obj
 0001:00029f7d       ?adjust_hexit@?$output_processor@_WV?$stream_output_adapter@_W@__crt_stdio_output@@V?$standard_base@_WV?$stream_output_adapter@_W@__crt_stdio_output@@@2@@__crt_stdio_output@@CADH_N@Z 0042af7d f i libucrt:output.obj
 0001:00029f96       ?adjust_hexit@?$output_processor@_WV?$string_output_adapter@_W@__crt_stdio_output@@V?$format_validation_base@_WV?$string_output_adapter@_W@__crt_stdio_output@@@2@@__crt_stdio_output@@CADH_N@Z 0042af96 f i libucrt:output.obj
 0001:00029faf       ?adjust_hexit@?$output_processor@_WV?$string_output_adapter@_W@__crt_stdio_output@@V?$positional_parameter_base@_WV?$string_output_adapter@_W@__crt_stdio_output@@@2@@__crt_stdio_output@@CADH_N@Z 0042afaf f i libucrt:output.obj
 0001:00029fc8       ?adjust_hexit@?$output_processor@_WV?$string_output_adapter@_W@__crt_stdio_output@@V?$standard_base@_WV?$string_output_adapter@_W@__crt_stdio_output@@@2@@__crt_stdio_output@@CADH_N@Z 0042afc8 f i libucrt:output.obj
 0001:00029fe1       ?advance_to_next_pass@?$positional_parameter_base@DV?$stream_output_adapter@D@__crt_stdio_output@@@__crt_stdio_output@@IAE_NXZ 0042afe1 f i libucrt:output.obj
 0001:0002a042       ?advance_to_next_pass@?$positional_parameter_base@DV?$string_output_adapter@D@__crt_stdio_output@@@__crt_stdio_output@@IAE_NXZ 0042b042 f i libucrt:output.obj
 0001:0002a0a3       ?advance_to_next_pass@?$positional_parameter_base@_WV?$stream_output_adapter@_W@__crt_stdio_output@@@__crt_stdio_output@@IAE_NXZ 0042b0a3 f i libucrt:output.obj
 0001:0002a104       ?advance_to_next_pass@?$positional_parameter_base@_WV?$string_output_adapter@_W@__crt_stdio_output@@@__crt_stdio_output@@IAE_NXZ 0042b104 f i libucrt:output.obj
 0001:0002a165       ?advance_to_next_pass@?$standard_base@DV?$stream_output_adapter@D@__crt_stdio_output@@@__crt_stdio_output@@IAE_NXZ 0042b165 f i libucrt:output.obj
 0001:0002a17a       ?advance_to_next_pass@?$standard_base@DV?$string_output_adapter@D@__crt_stdio_output@@@__crt_stdio_output@@IAE_NXZ 0042b17a f i libucrt:output.obj
 0001:0002a18f       ?advance_to_next_pass@?$standard_base@_WV?$stream_output_adapter@_W@__crt_stdio_output@@@__crt_stdio_output@@IAE_NXZ 0042b18f f i libucrt:output.obj
 0001:0002a1a4       ?advance_to_next_pass@?$standard_base@_WV?$string_output_adapter@_W@__crt_stdio_output@@@__crt_stdio_output@@IAE_NXZ 0042b1a4 f i libucrt:output.obj
 0001:0002a1b9       ?check@?$cached@H@__crt_cached_ptd_host@@QBE_NH@Z 0042b1b9 f i libucrt:output.obj
 0001:0002a1dc       ?create_guard@?$cached@H@__crt_cached_ptd_host@@QAE?AVguard@12@XZ 0042b1dc f i libucrt:output.obj
 0001:0002a200       ?crop_zeroes@__crt_stdio_output@@YAXPADQAU__crt_locale_pointers@@@Z 0042b200 f i libucrt:output.obj
 0001:0002a278       ?disable@guard@?$cached@H@__crt_cached_ptd_host@@QAEXXZ 0042b278 f i libucrt:output.obj
 0001:0002a27d       ?enable@guard@?$cached@H@__crt_cached_ptd_host@@QAEXXZ 0042b27d f i libucrt:output.obj
 0001:0002a282       ?find_next_state@?$output_processor@DV?$stream_output_adapter@D@__crt_stdio_output@@V?$format_validation_base@DV?$stream_output_adapter@D@__crt_stdio_output@@@2@@__crt_stdio_output@@ABE?AW4state@2@DW432@@Z 0042b282 f i libucrt:output.obj
 0001:0002a2ce       ?find_next_state@?$output_processor@DV?$stream_output_adapter@D@__crt_stdio_output@@V?$positional_parameter_base@DV?$stream_output_adapter@D@__crt_stdio_output@@@2@@__crt_stdio_output@@ABE?AW4state@2@DW432@@Z 0042b2ce f i libucrt:output.obj
 0001:0002a31a       ?find_next_state@?$output_processor@DV?$stream_output_adapter@D@__crt_stdio_output@@V?$standard_base@DV?$stream_output_adapter@D@__crt_stdio_output@@@2@@__crt_stdio_output@@ABE?AW4state@2@DW432@@Z 0042b31a f i libucrt:output.obj
 0001:0002a363       ?find_next_state@?$output_processor@DV?$string_output_adapter@D@__crt_stdio_output@@V?$format_validation_base@DV?$string_output_adapter@D@__crt_stdio_output@@@2@@__crt_stdio_output@@ABE?AW4state@2@DW432@@Z 0042b363 f i libucrt:output.obj
 0001:0002a3af       ?find_next_state@?$output_processor@DV?$string_output_adapter@D@__crt_stdio_output@@V?$positional_parameter_base@DV?$string_output_adapter@D@__crt_stdio_output@@@2@@__crt_stdio_output@@ABE?AW4state@2@DW432@@Z 0042b3af f i libucrt:output.obj
 0001:0002a3fb       ?find_next_state@?$output_processor@DV?$string_output_adapter@D@__crt_stdio_output@@V?$standard_base@DV?$string_output_adapter@D@__crt_stdio_output@@@2@@__crt_stdio_output@@ABE?AW4state@2@DW432@@Z 0042b3fb f i libucrt:output.obj
 0001:0002a444       ?find_next_state@?$output_processor@_WV?$stream_output_adapter@_W@__crt_stdio_output@@V?$format_validation_base@_WV?$stream_output_adapter@_W@__crt_stdio_output@@@2@@__crt_stdio_output@@ABE?AW4state@2@_WW432@@Z 0042b444 f i libucrt:output.obj
 0001:0002a48f       ?find_next_state@?$output_processor@_WV?$stream_output_adapter@_W@__crt_stdio_output@@V?$positional_parameter_base@_WV?$stream_output_adapter@_W@__crt_stdio_output@@@2@@__crt_stdio_output@@ABE?AW4state@2@_WW432@@Z 0042b48f f i libucrt:output.obj
 0001:0002a4da       ?find_next_state@?$output_processor@_WV?$stream_output_adapter@_W@__crt_stdio_output@@V?$standard_base@_WV?$stream_output_adapter@_W@__crt_stdio_output@@@2@@__crt_stdio_output@@ABE?AW4state@2@_WW432@@Z 0042b4da f i libucrt:output.obj
 0001:0002a522       ?find_next_state@?$output_processor@_WV?$string_output_adapter@_W@__crt_stdio_output@@V?$format_validation_base@_WV?$string_output_adapter@_W@__crt_stdio_output@@@2@@__crt_stdio_output@@ABE?AW4state@2@_WW432@@Z 0042b522 f i libucrt:output.obj
 0001:0002a56d       ?find_next_state@?$output_processor@_WV?$string_output_adapter@_W@__crt_stdio_output@@V?$positional_parameter_base@_WV?$string_output_adapter@_W@__crt_stdio_output@@@2@@__crt_stdio_output@@ABE?AW4state@2@_WW432@@Z 0042b56d f i libucrt:output.obj
 0001:0002a5b8       ?find_next_state@?$output_processor@_WV?$string_output_adapter@_W@__crt_stdio_output@@V?$standard_base@_WV?$string_output_adapter@_W@__crt_stdio_output@@@2@@__crt_stdio_output@@ABE?AW4state@2@_WW432@@Z 0042b5b8 f i libucrt:output.obj
 0001:0002a600       ?force_decimal_point@__crt_stdio_output@@YAXPADQAU__crt_locale_pointers@@@Z 0042b600 f i libucrt:output.obj
 0001:0002a673       ?get_parameter_type@?$positional_parameter_base@DV?$stream_output_adapter@D@__crt_stdio_output@@@__crt_stdio_output@@CA?AW4parameter_type@12@F@Z 0042b673 f i libucrt:output.obj
 0001:0002a677       ?get_parameter_type@?$positional_parameter_base@DV?$stream_output_adapter@D@__crt_stdio_output@@@__crt_stdio_output@@CA?AW4parameter_type@12@G@Z 0042b677 f i libucrt:output.obj
 0001:0002a67b       ?get_parameter_type@?$positional_parameter_base@DV?$stream_output_adapter@D@__crt_stdio_output@@@__crt_stdio_output@@CA?AW4parameter_type@12@H@Z 0042b67b f i libucrt:output.obj
 0001:0002a67f       ?get_parameter_type@?$positional_parameter_base@DV?$stream_output_adapter@D@__crt_stdio_output@@@__crt_stdio_output@@CA?AW4parameter_type@12@I@Z 0042b67f f i libucrt:output.obj
 0001:0002a683       ?get_parameter_type@?$positional_parameter_base@DV?$stream_output_adapter@D@__crt_stdio_output@@@__crt_stdio_output@@CA?AW4parameter_type@12@U_CRT_DOUBLE@@@Z 0042b683 f i libucrt:output.obj
 0001:0002a687       ?get_parameter_type@?$positional_parameter_base@DV?$stream_output_adapter@D@__crt_stdio_output@@@__crt_stdio_output@@CA?AW4parameter_type@12@_J@Z 0042b687 f i libucrt:output.obj
 0001:0002a68b       ?get_parameter_type@?$positional_parameter_base@DV?$stream_output_adapter@D@__crt_stdio_output@@@__crt_stdio_output@@CA?AW4parameter_type@12@_K@Z 0042b68b f i libucrt:output.obj
 0001:0002a68f       ?get_parameter_type@?$positional_parameter_base@DV?$stream_output_adapter@D@__crt_stdio_output@@@__crt_stdio_output@@CA?AW4parameter_type@12@_W@Z 0042b68f f i libucrt:output.obj
 0001:0002a693       ?get_parameter_type@?$positional_parameter_base@DV?$string_output_adapter@D@__crt_stdio_output@@@__crt_stdio_output@@CA?AW4parameter_type@12@F@Z 0042b693 f i libucrt:output.obj
 0001:0002a697       ?get_parameter_type@?$positional_parameter_base@DV?$string_output_adapter@D@__crt_stdio_output@@@__crt_stdio_output@@CA?AW4parameter_type@12@G@Z 0042b697 f i libucrt:output.obj
 0001:0002a69b       ?get_parameter_type@?$positional_parameter_base@DV?$string_output_adapter@D@__crt_stdio_output@@@__crt_stdio_output@@CA?AW4parameter_type@12@H@Z 0042b69b f i libucrt:output.obj
 0001:0002a69f       ?get_parameter_type@?$positional_parameter_base@DV?$string_output_adapter@D@__crt_stdio_output@@@__crt_stdio_output@@CA?AW4parameter_type@12@I@Z 0042b69f f i libucrt:output.obj
 0001:0002a6a3       ?get_parameter_type@?$positional_parameter_base@DV?$string_output_adapter@D@__crt_stdio_output@@@__crt_stdio_output@@CA?AW4parameter_type@12@U_CRT_DOUBLE@@@Z 0042b6a3 f i libucrt:output.obj
 0001:0002a6a7       ?get_parameter_type@?$positional_parameter_base@DV?$string_output_adapter@D@__crt_stdio_output@@@__crt_stdio_output@@CA?AW4parameter_type@12@_J@Z 0042b6a7 f i libucrt:output.obj
 0001:0002a6ab       ?get_parameter_type@?$positional_parameter_base@DV?$string_output_adapter@D@__crt_stdio_output@@@__crt_stdio_output@@CA?AW4parameter_type@12@_K@Z 0042b6ab f i libucrt:output.obj
 0001:0002a6af       ?get_parameter_type@?$positional_parameter_base@DV?$string_output_adapter@D@__crt_stdio_output@@@__crt_stdio_output@@CA?AW4parameter_type@12@_W@Z 0042b6af f i libucrt:output.obj
 0001:0002a6b3       ?get_parameter_type@?$positional_parameter_base@_WV?$stream_output_adapter@_W@__crt_stdio_output@@@__crt_stdio_output@@CA?AW4parameter_type@12@F@Z 0042b6b3 f i libucrt:output.obj
 0001:0002a6b7       ?get_parameter_type@?$positional_parameter_base@_WV?$stream_output_adapter@_W@__crt_stdio_output@@@__crt_stdio_output@@CA?AW4parameter_type@12@G@Z 0042b6b7 f i libucrt:output.obj
 0001:0002a6bb       ?get_parameter_type@?$positional_parameter_base@_WV?$stream_output_adapter@_W@__crt_stdio_output@@@__crt_stdio_output@@CA?AW4parameter_type@12@H@Z 0042b6bb f i libucrt:output.obj
 0001:0002a6bf       ?get_parameter_type@?$positional_parameter_base@_WV?$stream_output_adapter@_W@__crt_stdio_output@@@__crt_stdio_output@@CA?AW4parameter_type@12@I@Z 0042b6bf f i libucrt:output.obj
 0001:0002a6c3       ?get_parameter_type@?$positional_parameter_base@_WV?$stream_output_adapter@_W@__crt_stdio_output@@@__crt_stdio_output@@CA?AW4parameter_type@12@U_CRT_DOUBLE@@@Z 0042b6c3 f i libucrt:output.obj
 0001:0002a6c7       ?get_parameter_type@?$positional_parameter_base@_WV?$stream_output_adapter@_W@__crt_stdio_output@@@__crt_stdio_output@@CA?AW4parameter_type@12@_J@Z 0042b6c7 f i libucrt:output.obj
 0001:0002a6cb       ?get_parameter_type@?$positional_parameter_base@_WV?$stream_output_adapter@_W@__crt_stdio_output@@@__crt_stdio_output@@CA?AW4parameter_type@12@_K@Z 0042b6cb f i libucrt:output.obj
 0001:0002a6cf       ?get_parameter_type@?$positional_parameter_base@_WV?$stream_output_adapter@_W@__crt_stdio_output@@@__crt_stdio_output@@CA?AW4parameter_type@12@_W@Z 0042b6cf f i libucrt:output.obj
 0001:0002a6d3       ?get_parameter_type@?$positional_parameter_base@_WV?$string_output_adapter@_W@__crt_stdio_output@@@__crt_stdio_output@@CA?AW4parameter_type@12@F@Z 0042b6d3 f i libucrt:output.obj
 0001:0002a6d7       ?get_parameter_type@?$positional_parameter_base@_WV?$string_output_adapter@_W@__crt_stdio_output@@@__crt_stdio_output@@CA?AW4parameter_type@12@G@Z 0042b6d7 f i libucrt:output.obj
 0001:0002a6db       ?get_parameter_type@?$positional_parameter_base@_WV?$string_output_adapter@_W@__crt_stdio_output@@@__crt_stdio_output@@CA?AW4parameter_type@12@H@Z 0042b6db f i libucrt:output.obj
 0001:0002a6df       ?get_parameter_type@?$positional_parameter_base@_WV?$string_output_adapter@_W@__crt_stdio_output@@@__crt_stdio_output@@CA?AW4parameter_type@12@I@Z 0042b6df f i libucrt:output.obj
 0001:0002a6e3       ?get_parameter_type@?$positional_parameter_base@_WV?$string_output_adapter@_W@__crt_stdio_output@@@__crt_stdio_output@@CA?AW4parameter_type@12@U_CRT_DOUBLE@@@Z 0042b6e3 f i libucrt:output.obj
 0001:0002a6e7       ?get_parameter_type@?$positional_parameter_base@_WV?$string_output_adapter@_W@__crt_stdio_output@@@__crt_stdio_output@@CA?AW4parameter_type@12@_J@Z 0042b6e7 f i libucrt:output.obj
 0001:0002a6eb       ?get_parameter_type@?$positional_parameter_base@_WV?$string_output_adapter@_W@__crt_stdio_output@@@__crt_stdio_output@@CA?AW4parameter_type@12@_K@Z 0042b6eb f i libucrt:output.obj
 0001:0002a6ef       ?get_parameter_type@?$positional_parameter_base@_WV?$string_output_adapter@_W@__crt_stdio_output@@@__crt_stdio_output@@CA?AW4parameter_type@12@_W@Z 0042b6ef f i libucrt:output.obj
 0001:0002a6f3       ?has_flag@?$output_processor@DV?$stream_output_adapter@D@__crt_stdio_output@@V?$format_validation_base@DV?$stream_output_adapter@D@__crt_stdio_output@@@2@@__crt_stdio_output@@ABE_NI@Z 0042b6f3 f i libucrt:output.obj
 0001:0002a709       ?has_flag@?$output_processor@DV?$stream_output_adapter@D@__crt_stdio_output@@V?$positional_parameter_base@DV?$stream_output_adapter@D@__crt_stdio_output@@@2@@__crt_stdio_output@@ABE_NI@Z 0042b709 f i libucrt:output.obj
 0001:0002a71f       ?has_flag@?$output_processor@DV?$stream_output_adapter@D@__crt_stdio_output@@V?$standard_base@DV?$stream_output_adapter@D@__crt_stdio_output@@@2@@__crt_stdio_output@@ABE_NI@Z 0042b71f f i libucrt:output.obj
 0001:0002a735       ?has_flag@?$output_processor@DV?$string_output_adapter@D@__crt_stdio_output@@V?$format_validation_base@DV?$string_output_adapter@D@__crt_stdio_output@@@2@@__crt_stdio_output@@ABE_NI@Z 0042b735 f i libucrt:output.obj
 0001:0002a74b       ?has_flag@?$output_processor@DV?$string_output_adapter@D@__crt_stdio_output@@V?$positional_parameter_base@DV?$string_output_adapter@D@__crt_stdio_output@@@2@@__crt_stdio_output@@ABE_NI@Z 0042b74b f i libucrt:output.obj
 0001:0002a761       ?has_flag@?$output_processor@DV?$string_output_adapter@D@__crt_stdio_output@@V?$standard_base@DV?$string_output_adapter@D@__crt_stdio_output@@@2@@__crt_stdio_output@@ABE_NI@Z 0042b761 f i libucrt:output.obj
 0001:0002a777       ?has_flag@?$output_processor@_WV?$stream_output_adapter@_W@__crt_stdio_output@@V?$format_validation_base@_WV?$stream_output_adapter@_W@__crt_stdio_output@@@2@@__crt_stdio_output@@ABE_NI@Z 0042b777 f i libucrt:output.obj
 0001:0002a78d       ?has_flag@?$output_processor@_WV?$stream_output_adapter@_W@__crt_stdio_output@@V?$positional_parameter_base@_WV?$stream_output_adapter@_W@__crt_stdio_output@@@2@@__crt_stdio_output@@ABE_NI@Z 0042b78d f i libucrt:output.obj
 0001:0002a7a3       ?has_flag@?$output_processor@_WV?$stream_output_adapter@_W@__crt_stdio_output@@V?$standard_base@_WV?$stream_output_adapter@_W@__crt_stdio_output@@@2@@__crt_stdio_output@@ABE_NI@Z 0042b7a3 f i libucrt:output.obj
 0001:0002a7b9       ?has_flag@?$output_processor@_WV?$string_output_adapter@_W@__crt_stdio_output@@V?$format_validation_base@_WV?$string_output_adapter@_W@__crt_stdio_output@@@2@@__crt_stdio_output@@ABE_NI@Z 0042b7b9 f i libucrt:output.obj
 0001:0002a7cf       ?has_flag@?$output_processor@_WV?$string_output_adapter@_W@__crt_stdio_output@@V?$positional_parameter_base@_WV?$string_output_adapter@_W@__crt_stdio_output@@@2@@__crt_stdio_output@@ABE_NI@Z 0042b7cf f i libucrt:output.obj
 0001:0002a7e5       ?has_flag@?$output_processor@_WV?$string_output_adapter@_W@__crt_stdio_output@@V?$standard_base@_WV?$string_output_adapter@_W@__crt_stdio_output@@@2@@__crt_stdio_output@@ABE_NI@Z 0042b7e5 f i libucrt:output.obj
 0001:0002a7fb       ?is_positional_parameter_reappearance_consistent@?$positional_parameter_base@DV?$stream_output_adapter@D@__crt_stdio_output@@@__crt_stdio_output@@AAE_NABUparameter_data@12@W4parameter_type@12@DW4length_modifier@2@@Z 0042b7fb f i libucrt:output.obj
 0001:0002a95b       ?is_positional_parameter_reappearance_consistent@?$positional_parameter_base@DV?$string_output_adapter@D@__crt_stdio_output@@@__crt_stdio_output@@AAE_NABUparameter_data@12@W4parameter_type@12@DW4length_modifier@2@@Z 0042b95b f i libucrt:output.obj
 0001:0002aabb       ?is_positional_parameter_reappearance_consistent@?$positional_parameter_base@_WV?$stream_output_adapter@_W@__crt_stdio_output@@@__crt_stdio_output@@AAE_NABUparameter_data@12@W4parameter_type@12@_WW4length_modifier@2@@Z 0042babb f i libucrt:output.obj
 0001:0002ac1c       ?is_positional_parameter_reappearance_consistent@?$positional_parameter_base@_WV?$string_output_adapter@_W@__crt_stdio_output@@@__crt_stdio_output@@AAE_NABUparameter_data@12@W4parameter_type@12@_WW4length_modifier@2@@Z 0042bc1c f i libucrt:output.obj
 0001:0002ad7d       ?narrow_null_string@?$output_processor@DV?$stream_output_adapter@D@__crt_stdio_output@@V?$format_validation_base@DV?$stream_output_adapter@D@__crt_stdio_output@@@2@@__crt_stdio_output@@CAPADXZ 0042bd7d f i libucrt:output.obj
 0001:0002ad83       ?narrow_null_string@?$output_processor@DV?$stream_output_adapter@D@__crt_stdio_output@@V?$positional_parameter_base@DV?$stream_output_adapter@D@__crt_stdio_output@@@2@@__crt_stdio_output@@CAPADXZ 0042bd83 f i libucrt:output.obj
 0001:0002ad89       ?narrow_null_string@?$output_processor@DV?$stream_output_adapter@D@__crt_stdio_output@@V?$standard_base@DV?$stream_output_adapter@D@__crt_stdio_output@@@2@@__crt_stdio_output@@CAPADXZ 0042bd89 f i libucrt:output.obj
 0001:0002ad8f       ?narrow_null_string@?$output_processor@DV?$string_output_adapter@D@__crt_stdio_output@@V?$format_validation_base@DV?$string_output_adapter@D@__crt_stdio_output@@@2@@__crt_stdio_output@@CAPADXZ 0042bd8f f i libucrt:output.obj
 0001:0002ad95       ?narrow_null_string@?$output_processor@DV?$string_output_adapter@D@__crt_stdio_output@@V?$positional_parameter_base@DV?$string_output_adapter@D@__crt_stdio_output@@@2@@__crt_stdio_output@@CAPADXZ 0042bd95 f i libucrt:output.obj
 0001:0002ad9b       ?narrow_null_string@?$output_processor@DV?$string_output_adapter@D@__crt_stdio_output@@V?$standard_base@DV?$string_output_adapter@D@__crt_stdio_output@@@2@@__crt_stdio_output@@CAPADXZ 0042bd9b f i libucrt:output.obj
 0001:0002ada1       ?narrow_null_string@?$output_processor@_WV?$stream_output_adapter@_W@__crt_stdio_output@@V?$format_validation_base@_WV?$stream_output_adapter@_W@__crt_stdio_output@@@2@@__crt_stdio_output@@CAPADXZ 0042bda1 f i libucrt:output.obj
 0001:0002ada7       ?narrow_null_string@?$output_processor@_WV?$stream_output_adapter@_W@__crt_stdio_output@@V?$positional_parameter_base@_WV?$stream_output_adapter@_W@__crt_stdio_output@@@2@@__crt_stdio_output@@CAPADXZ 0042bda7 f i libucrt:output.obj
 0001:0002adad       ?narrow_null_string@?$output_processor@_WV?$stream_output_adapter@_W@__crt_stdio_output@@V?$standard_base@_WV?$stream_output_adapter@_W@__crt_stdio_output@@@2@@__crt_stdio_output@@CAPADXZ 0042bdad f i libucrt:output.obj
 0001:0002adb3       ?narrow_null_string@?$output_processor@_WV?$string_output_adapter@_W@__crt_stdio_output@@V?$format_validation_base@_WV?$string_output_adapter@_W@__crt_stdio_output@@@2@@__crt_stdio_output@@CAPADXZ 0042bdb3 f i libucrt:output.obj
 0001:0002adb9       ?narrow_null_string@?$output_processor@_WV?$string_output_adapter@_W@__crt_stdio_output@@V?$positional_parameter_base@_WV?$string_output_adapter@_W@__crt_stdio_output@@@2@@__crt_stdio_output@@CAPADXZ 0042bdb9 f i libucrt:output.obj
 0001:0002adbf       ?narrow_null_string@?$output_processor@_WV?$string_output_adapter@_W@__crt_stdio_output@@V?$standard_base@_WV?$string_output_adapter@_W@__crt_stdio_output@@@2@@__crt_stdio_output@@CAPADXZ 0042bdbf f i libucrt:output.obj
 0001:0002adc5       ?parse_int_from_format_string@?$output_processor@DV?$stream_output_adapter@D@__crt_stdio_output@@V?$format_validation_base@DV?$stream_output_adapter@D@__crt_stdio_output@@@2@@__crt_stdio_output@@AAE_NQAH@Z 0042bdc5 f i libucrt:output.obj
 0001:0002ae5b       ?parse_int_from_format_string@?$output_processor@DV?$stream_output_adapter@D@__crt_stdio_output@@V?$positional_parameter_base@DV?$stream_output_adapter@D@__crt_stdio_output@@@2@@__crt_stdio_output@@AAE_NQAH@Z 0042be5b f i libucrt:output.obj
 0001:0002aef1       ?parse_int_from_format_string@?$output_processor@DV?$stream_output_adapter@D@__crt_stdio_output@@V?$standard_base@DV?$stream_output_adapter@D@__crt_stdio_output@@@2@@__crt_stdio_output@@AAE_NQAH@Z 0042bef1 f i libucrt:output.obj
 0001:0002af87       ?parse_int_from_format_string@?$output_processor@DV?$string_output_adapter@D@__crt_stdio_output@@V?$format_validation_base@DV?$string_output_adapter@D@__crt_stdio_output@@@2@@__crt_stdio_output@@AAE_NQAH@Z 0042bf87 f i libucrt:output.obj
 0001:0002b01d       ?parse_int_from_format_string@?$output_processor@DV?$string_output_adapter@D@__crt_stdio_output@@V?$positional_parameter_base@DV?$string_output_adapter@D@__crt_stdio_output@@@2@@__crt_stdio_output@@AAE_NQAH@Z 0042c01d f i libucrt:output.obj
 0001:0002b0b3       ?parse_int_from_format_string@?$output_processor@DV?$string_output_adapter@D@__crt_stdio_output@@V?$standard_base@DV?$string_output_adapter@D@__crt_stdio_output@@@2@@__crt_stdio_output@@AAE_NQAH@Z 0042c0b3 f i libucrt:output.obj
 0001:0002b149       ?parse_int_from_format_string@?$output_processor@_WV?$stream_output_adapter@_W@__crt_stdio_output@@V?$format_validation_base@_WV?$stream_output_adapter@_W@__crt_stdio_output@@@2@@__crt_stdio_output@@AAE_NQAH@Z 0042c149 f i libucrt:output.obj
 0001:0002b1e1       ?parse_int_from_format_string@?$output_processor@_WV?$stream_output_adapter@_W@__crt_stdio_output@@V?$positional_parameter_base@_WV?$stream_output_adapter@_W@__crt_stdio_output@@@2@@__crt_stdio_output@@AAE_NQAH@Z 0042c1e1 f i libucrt:output.obj
 0001:0002b279       ?parse_int_from_format_string@?$output_processor@_WV?$stream_output_adapter@_W@__crt_stdio_output@@V?$standard_base@_WV?$stream_output_adapter@_W@__crt_stdio_output@@@2@@__crt_stdio_output@@AAE_NQAH@Z 0042c279 f i libucrt:output.obj
 0001:0002b311       ?parse_int_from_format_string@?$output_processor@_WV?$string_output_adapter@_W@__crt_stdio_output@@V?$format_validation_base@_WV?$string_output_adapter@_W@__crt_stdio_output@@@2@@__crt_stdio_output@@AAE_NQAH@Z 0042c311 f i libucrt:output.obj
 0001:0002b3a9       ?parse_int_from_format_string@?$output_processor@_WV?$string_output_adapter@_W@__crt_stdio_output@@V?$positional_parameter_base@_WV?$string_output_adapter@_W@__crt_stdio_output@@@2@@__crt_stdio_output@@AAE_NQAH@Z 0042c3a9 f i libucrt:output.obj
 0001:0002b441       ?parse_int_from_format_string@?$output_processor@_WV?$string_output_adapter@_W@__crt_stdio_output@@V?$standard_base@_WV?$string_output_adapter@_W@__crt_stdio_output@@@2@@__crt_stdio_output@@AAE_NQAH@Z 0042c441 f i libucrt:output.obj
 0001:0002b4d9       ?process@?$output_processor@DV?$stream_output_adapter@D@__crt_stdio_output@@V?$format_validation_base@DV?$stream_output_adapter@D@__crt_stdio_output@@@2@@__crt_stdio_output@@QAEHXZ 0042c4d9 f i libucrt:output.obj
 0001:0002b849       ?process@?$output_processor@DV?$stream_output_adapter@D@__crt_stdio_output@@V?$positional_parameter_base@DV?$stream_output_adapter@D@__crt_stdio_output@@@2@@__crt_stdio_output@@QAEHXZ 0042c849 f i libucrt:output.obj
 0001:0002bbd2       ?process@?$output_processor@DV?$stream_output_adapter@D@__crt_stdio_output@@V?$standard_base@DV?$stream_output_adapter@D@__crt_stdio_output@@@2@@__crt_stdio_output@@QAEHXZ 0042cbd2 f i libucrt:output.obj
 0001:0002bf2e       ?process@?$output_processor@DV?$string_output_adapter@D@__crt_stdio_output@@V?$format_validation_base@DV?$string_output_adapter@D@__crt_stdio_output@@@2@@__crt_stdio_output@@QAEHXZ 0042cf2e f i libucrt:output.obj
 0001:0002c2cb       ?process@?$output_processor@DV?$string_output_adapter@D@__crt_stdio_output@@V?$positional_parameter_base@DV?$string_output_adapter@D@__crt_stdio_output@@@2@@__crt_stdio_output@@QAEHXZ 0042d2cb f i libucrt:output.obj
 0001:0002c68b       ?process@?$output_processor@DV?$string_output_adapter@D@__crt_stdio_output@@V?$standard_base@DV?$string_output_adapter@D@__crt_stdio_output@@@2@@__crt_stdio_output@@QAEHXZ 0042d68b f i libucrt:output.obj
 0001:0002ca14       ?process@?$output_processor@_WV?$stream_output_adapter@_W@__crt_stdio_output@@V?$format_validation_base@_WV?$stream_output_adapter@_W@__crt_stdio_output@@@2@@__crt_stdio_output@@QAEHXZ 0042da14 f i libucrt:output.obj
 0001:0002ccb7       ?process@?$output_processor@_WV?$stream_output_adapter@_W@__crt_stdio_output@@V?$positional_parameter_base@_WV?$stream_output_adapter@_W@__crt_stdio_output@@@2@@__crt_stdio_output@@QAEHXZ 0042dcb7 f i libucrt:output.obj
 0001:0002cfa0       ?process@?$output_processor@_WV?$stream_output_adapter@_W@__crt_stdio_output@@V?$standard_base@_WV?$stream_output_adapter@_W@__crt_stdio_output@@@2@@__crt_stdio_output@@QAEHXZ 0042dfa0 f i libucrt:output.obj
 0001:0002d234       ?process@?$output_processor@_WV?$string_output_adapter@_W@__crt_stdio_output@@V?$format_validation_base@_WV?$string_output_adapter@_W@__crt_stdio_output@@@2@@__crt_stdio_output@@QAEHXZ 0042e234 f i libucrt:output.obj
 0001:0002d504       ?process@?$output_processor@_WV?$string_output_adapter@_W@__crt_stdio_output@@V?$positional_parameter_base@_WV?$string_output_adapter@_W@__crt_stdio_output@@@2@@__crt_stdio_output@@QAEHXZ 0042e504 f i libucrt:output.obj
 0001:0002d806       ?process@?$output_processor@_WV?$string_output_adapter@_W@__crt_stdio_output@@V?$standard_base@_WV?$string_output_adapter@_W@__crt_stdio_output@@@2@@__crt_stdio_output@@QAEHXZ 0042e806 f i libucrt:output.obj
 0001:0002dad1       ?set_flag@?$output_processor@DV?$stream_output_adapter@D@__crt_stdio_output@@V?$format_validation_base@DV?$stream_output_adapter@D@__crt_stdio_output@@@2@@__crt_stdio_output@@AAEXI@Z 0042ead1 f i libucrt:output.obj
 0001:0002dae3       ?set_flag@?$output_processor@DV?$stream_output_adapter@D@__crt_stdio_output@@V?$positional_parameter_base@DV?$stream_output_adapter@D@__crt_stdio_output@@@2@@__crt_stdio_output@@AAEXI@Z 0042eae3 f i libucrt:output.obj
 0001:0002daf5       ?set_flag@?$output_processor@DV?$stream_output_adapter@D@__crt_stdio_output@@V?$standard_base@DV?$stream_output_adapter@D@__crt_stdio_output@@@2@@__crt_stdio_output@@AAEXI@Z 0042eaf5 f i libucrt:output.obj
 0001:0002db07       ?set_flag@?$output_processor@DV?$string_output_adapter@D@__crt_stdio_output@@V?$format_validation_base@DV?$string_output_adapter@D@__crt_stdio_output@@@2@@__crt_stdio_output@@AAEXI@Z 0042eb07 f i libucrt:output.obj
 0001:0002db19       ?set_flag@?$output_processor@DV?$string_output_adapter@D@__crt_stdio_output@@V?$positional_parameter_base@DV?$string_output_adapter@D@__crt_stdio_output@@@2@@__crt_stdio_output@@AAEXI@Z 0042eb19 f i libucrt:output.obj
 0001:0002db2b       ?set_flag@?$output_processor@DV?$string_output_adapter@D@__crt_stdio_output@@V?$standard_base@DV?$string_output_adapter@D@__crt_stdio_output@@@2@@__crt_stdio_output@@AAEXI@Z 0042eb2b f i libucrt:output.obj
 0001:0002db3d       ?set_flag@?$output_processor@_WV?$stream_output_adapter@_W@__crt_stdio_output@@V?$format_validation_base@_WV?$stream_output_adapter@_W@__crt_stdio_output@@@2@@__crt_stdio_output@@AAEXI@Z 0042eb3d f i libucrt:output.obj
 0001:0002db4f       ?set_flag@?$output_processor@_WV?$stream_output_adapter@_W@__crt_stdio_output@@V?$positional_parameter_base@_WV?$stream_output_adapter@_W@__crt_stdio_output@@@2@@__crt_stdio_output@@AAEXI@Z 0042eb4f f i libucrt:output.obj
 0001:0002db61       ?set_flag@?$output_processor@_WV?$stream_output_adapter@_W@__crt_stdio_output@@V?$standard_base@_WV?$stream_output_adapter@_W@__crt_stdio_output@@@2@@__crt_stdio_output@@AAEXI@Z 0042eb61 f i libucrt:output.obj
 0001:0002db73       ?set_flag@?$output_processor@_WV?$string_output_adapter@_W@__crt_stdio_output@@V?$format_validation_base@_WV?$string_output_adapter@_W@__crt_stdio_output@@@2@@__crt_stdio_output@@AAEXI@Z 0042eb73 f i libucrt:output.obj
 0001:0002db85       ?set_flag@?$output_processor@_WV?$string_output_adapter@_W@__crt_stdio_output@@V?$positional_parameter_base@_WV?$string_output_adapter@_W@__crt_stdio_output@@@2@@__crt_stdio_output@@AAEXI@Z 0042eb85 f i libucrt:output.obj
 0001:0002db97       ?set_flag@?$output_processor@_WV?$string_output_adapter@_W@__crt_stdio_output@@V?$standard_base@_WV?$string_output_adapter@_W@__crt_stdio_output@@@2@@__crt_stdio_output@@AAEXI@Z 0042eb97 f i libucrt:output.obj
 0001:0002dba9       ?should_format@?$positional_parameter_base@DV?$stream_output_adapter@D@__crt_stdio_output@@@__crt_stdio_output@@IAE_NXZ 0042eba9 f i libucrt:output.obj
 0001:0002dbc4       ?should_format@?$positional_parameter_base@DV?$string_output_adapter@D@__crt_stdio_output@@@__crt_stdio_output@@IAE_NXZ 0042ebc4 f i libucrt:output.obj
 0001:0002dbdf       ?should_format@?$positional_parameter_base@_WV?$stream_output_adapter@_W@__crt_stdio_output@@@__crt_stdio_output@@IAE_NXZ 0042ebdf f i libucrt:output.obj
 0001:0002dbfa       ?should_format@?$positional_parameter_base@_WV?$string_output_adapter@_W@__crt_stdio_output@@@__crt_stdio_output@@IAE_NXZ 0042ebfa f i libucrt:output.obj
 0001:0002dc15       ?should_format@?$standard_base@DV?$stream_output_adapter@D@__crt_stdio_output@@@__crt_stdio_output@@IAE_NXZ 0042ec15 f i libucrt:output.obj
 0001:0002dc18       ?should_format@?$standard_base@DV?$string_output_adapter@D@__crt_stdio_output@@@__crt_stdio_output@@IAE_NXZ 0042ec18 f i libucrt:output.obj
 0001:0002dc1b       ?should_format@?$standard_base@_WV?$stream_output_adapter@_W@__crt_stdio_output@@@__crt_stdio_output@@IAE_NXZ 0042ec1b f i libucrt:output.obj
 0001:0002dc1e       ?should_format@?$standard_base@_WV?$string_output_adapter@_W@__crt_stdio_output@@@__crt_stdio_output@@IAE_NXZ 0042ec1e f i libucrt:output.obj
 0001:0002dc21       ?should_skip_normal_state_processing@?$positional_parameter_base@DV?$stream_output_adapter@D@__crt_stdio_output@@@__crt_stdio_output@@IAE_NXZ 0042ec21 f i libucrt:output.obj
 0001:0002dc55       ?should_skip_normal_state_processing@?$positional_parameter_base@DV?$string_output_adapter@D@__crt_stdio_output@@@__crt_stdio_output@@IAE_NXZ 0042ec55 f i libucrt:output.obj
 0001:0002dc89       ?should_skip_normal_state_processing@?$positional_parameter_base@_WV?$stream_output_adapter@_W@__crt_stdio_output@@@__crt_stdio_output@@IAE_NXZ 0042ec89 f i libucrt:output.obj
 0001:0002dcbd       ?should_skip_normal_state_processing@?$positional_parameter_base@_WV?$string_output_adapter@_W@__crt_stdio_output@@@__crt_stdio_output@@IAE_NXZ 0042ecbd f i libucrt:output.obj
 0001:0002dcf1       ?should_skip_normal_state_processing@?$standard_base@DV?$stream_output_adapter@D@__crt_stdio_output@@@__crt_stdio_output@@IAE_NXZ 0042ecf1 f i libucrt:output.obj
 0001:0002dcf4       ?should_skip_normal_state_processing@?$standard_base@DV?$string_output_adapter@D@__crt_stdio_output@@@__crt_stdio_output@@IAE_NXZ 0042ecf4 f i libucrt:output.obj
 0001:0002dcf7       ?should_skip_normal_state_processing@?$standard_base@_WV?$stream_output_adapter@_W@__crt_stdio_output@@@__crt_stdio_output@@IAE_NXZ 0042ecf7 f i libucrt:output.obj
 0001:0002dcfa       ?should_skip_normal_state_processing@?$standard_base@_WV?$string_output_adapter@_W@__crt_stdio_output@@@__crt_stdio_output@@IAE_NXZ 0042ecfa f i libucrt:output.obj
 0001:0002dcfd       ?should_skip_type_state_output@?$positional_parameter_base@DV?$stream_output_adapter@D@__crt_stdio_output@@@__crt_stdio_output@@IBE_NXZ 0042ecfd f i libucrt:output.obj
 0001:0002dd19       ?should_skip_type_state_output@?$positional_parameter_base@DV?$string_output_adapter@D@__crt_stdio_output@@@__crt_stdio_output@@IBE_NXZ 0042ed19 f i libucrt:output.obj
 0001:0002dd35       ?should_skip_type_state_output@?$positional_parameter_base@_WV?$stream_output_adapter@_W@__crt_stdio_output@@@__crt_stdio_output@@IBE_NXZ 0042ed35 f i libucrt:output.obj
 0001:0002dd51       ?should_skip_type_state_output@?$positional_parameter_base@_WV?$string_output_adapter@_W@__crt_stdio_output@@@__crt_stdio_output@@IBE_NXZ 0042ed51 f i libucrt:output.obj
 0001:0002dd6d       ?should_skip_type_state_output@?$standard_base@DV?$stream_output_adapter@D@__crt_stdio_output@@@__crt_stdio_output@@IBE_NXZ 0042ed6d f i libucrt:output.obj
 0001:0002dd70       ?should_skip_type_state_output@?$standard_base@DV?$string_output_adapter@D@__crt_stdio_output@@@__crt_stdio_output@@IBE_NXZ 0042ed70 f i libucrt:output.obj
 0001:0002dd73       ?should_skip_type_state_output@?$standard_base@_WV?$stream_output_adapter@_W@__crt_stdio_output@@@__crt_stdio_output@@IBE_NXZ 0042ed73 f i libucrt:output.obj
 0001:0002dd76       ?should_skip_type_state_output@?$standard_base@_WV?$string_output_adapter@_W@__crt_stdio_output@@@__crt_stdio_output@@IBE_NXZ 0042ed76 f i libucrt:output.obj
 0001:0002dd79       ?state_case_dot@?$output_processor@DV?$stream_output_adapter@D@__crt_stdio_output@@V?$format_validation_base@DV?$stream_output_adapter@D@__crt_stdio_output@@@2@@__crt_stdio_output@@AAE_NXZ 0042ed79 f i libucrt:output.obj
 0001:0002dd80       ?state_case_dot@?$output_processor@DV?$stream_output_adapter@D@__crt_stdio_output@@V?$positional_parameter_base@DV?$stream_output_adapter@D@__crt_stdio_output@@@2@@__crt_stdio_output@@AAE_NXZ 0042ed80 f i libucrt:output.obj
 0001:0002dd87       ?state_case_dot@?$output_processor@DV?$stream_output_adapter@D@__crt_stdio_output@@V?$standard_base@DV?$stream_output_adapter@D@__crt_stdio_output@@@2@@__crt_stdio_output@@AAE_NXZ 0042ed87 f i libucrt:output.obj
 0001:0002dd8e       ?state_case_dot@?$output_processor@DV?$string_output_adapter@D@__crt_stdio_output@@V?$format_validation_base@DV?$string_output_adapter@D@__crt_stdio_output@@@2@@__crt_stdio_output@@AAE_NXZ 0042ed8e f i libucrt:output.obj
 0001:0002dd95       ?state_case_dot@?$output_processor@DV?$string_output_adapter@D@__crt_stdio_output@@V?$positional_parameter_base@DV?$string_output_adapter@D@__crt_stdio_output@@@2@@__crt_stdio_output@@AAE_NXZ 0042ed95 f i libucrt:output.obj
 0001:0002dd9c       ?state_case_dot@?$output_processor@DV?$string_output_adapter@D@__crt_stdio_output@@V?$standard_base@DV?$string_output_adapter@D@__crt_stdio_output@@@2@@__crt_stdio_output@@AAE_NXZ 0042ed9c f i libucrt:output.obj
 0001:0002dda3       ?state_case_dot@?$output_processor@_WV?$stream_output_adapter@_W@__crt_stdio_output@@V?$format_validation_base@_WV?$stream_output_adapter@_W@__crt_stdio_output@@@2@@__crt_stdio_output@@AAE_NXZ 0042eda3 f i libucrt:output.obj
 0001:0002ddaa       ?state_case_dot@?$output_processor@_WV?$stream_output_adapter@_W@__crt_stdio_output@@V?$positional_parameter_base@_WV?$stream_output_adapter@_W@__crt_stdio_output@@@2@@__crt_stdio_output@@AAE_NXZ 0042edaa f i libucrt:output.obj
 0001:0002ddb1       ?state_case_dot@?$output_processor@_WV?$stream_output_adapter@_W@__crt_stdio_output@@V?$standard_base@_WV?$stream_output_adapter@_W@__crt_stdio_output@@@2@@__crt_stdio_output@@AAE_NXZ 0042edb1 f i libucrt:output.obj
 0001:0002ddb8       ?state_case_dot@?$output_processor@_WV?$string_output_adapter@_W@__crt_stdio_output@@V?$format_validation_base@_WV?$string_output_adapter@_W@__crt_stdio_output@@@2@@__crt_stdio_output@@AAE_NXZ 0042edb8 f i libucrt:output.obj
 0001:0002ddbf       ?state_case_dot@?$output_processor@_WV?$string_output_adapter@_W@__crt_stdio_output@@V?$positional_parameter_base@_WV?$string_output_adapter@_W@__crt_stdio_output@@@2@@__crt_stdio_output@@AAE_NXZ 0042edbf f i libucrt:output.obj
 0001:0002ddc6       ?state_case_dot@?$output_processor@_WV?$string_output_adapter@_W@__crt_stdio_output@@V?$standard_base@_WV?$string_output_adapter@_W@__crt_stdio_output@@@2@@__crt_stdio_output@@AAE_NXZ 0042edc6 f i libucrt:output.obj
 0001:0002ddcd       ?state_case_flag@?$output_processor@DV?$stream_output_adapter@D@__crt_stdio_output@@V?$format_validation_base@DV?$stream_output_adapter@D@__crt_stdio_output@@@2@@__crt_stdio_output@@AAE_NXZ 0042edcd f i libucrt:output.obj
 0001:0002de19       ?state_case_flag@?$output_processor@DV?$stream_output_adapter@D@__crt_stdio_output@@V?$positional_parameter_base@DV?$stream_output_adapter@D@__crt_stdio_output@@@2@@__crt_stdio_output@@AAE_NXZ 0042ee19 f i libucrt:output.obj
 0001:0002de65       ?state_case_flag@?$output_processor@DV?$stream_output_adapter@D@__crt_stdio_output@@V?$standard_base@DV?$stream_output_adapter@D@__crt_stdio_output@@@2@@__crt_stdio_output@@AAE_NXZ 0042ee65 f i libucrt:output.obj
 0001:0002deb1       ?state_case_flag@?$output_processor@DV?$string_output_adapter@D@__crt_stdio_output@@V?$format_validation_base@DV?$string_output_adapter@D@__crt_stdio_output@@@2@@__crt_stdio_output@@AAE_NXZ 0042eeb1 f i libucrt:output.obj
 0001:0002defd       ?state_case_flag@?$output_processor@DV?$string_output_adapter@D@__crt_stdio_output@@V?$positional_parameter_base@DV?$string_output_adapter@D@__crt_stdio_output@@@2@@__crt_stdio_output@@AAE_NXZ 0042eefd f i libucrt:output.obj
 0001:0002df49       ?state_case_flag@?$output_processor@DV?$string_output_adapter@D@__crt_stdio_output@@V?$standard_base@DV?$string_output_adapter@D@__crt_stdio_output@@@2@@__crt_stdio_output@@AAE_NXZ 0042ef49 f i libucrt:output.obj
 0001:0002df95       ?state_case_flag@?$output_processor@_WV?$stream_output_adapter@_W@__crt_stdio_output@@V?$format_validation_base@_WV?$stream_output_adapter@_W@__crt_stdio_output@@@2@@__crt_stdio_output@@AAE_NXZ 0042ef95 f i libucrt:output.obj
 0001:0002dfe1       ?state_case_flag@?$output_processor@_WV?$stream_output_adapter@_W@__crt_stdio_output@@V?$positional_parameter_base@_WV?$stream_output_adapter@_W@__crt_stdio_output@@@2@@__crt_stdio_output@@AAE_NXZ 0042efe1 f i libucrt:output.obj
 0001:0002e02d       ?state_case_flag@?$output_processor@_WV?$stream_output_adapter@_W@__crt_stdio_output@@V?$standard_base@_WV?$stream_output_adapter@_W@__crt_stdio_output@@@2@@__crt_stdio_output@@AAE_NXZ 0042f02d f i libucrt:output.obj
 0001:0002e079       ?state_case_flag@?$output_processor@_WV?$string_output_adapter@_W@__crt_stdio_output@@V?$format_validation_base@_WV?$string_output_adapter@_W@__crt_stdio_output@@@2@@__crt_stdio_output@@AAE_NXZ 0042f079 f i libucrt:output.obj
 0001:0002e0c5       ?state_case_flag@?$output_processor@_WV?$string_output_adapter@_W@__crt_stdio_output@@V?$positional_parameter_base@_WV?$string_output_adapter@_W@__crt_stdio_output@@@2@@__crt_stdio_output@@AAE_NXZ 0042f0c5 f i libucrt:output.obj
 0001:0002e111       ?state_case_flag@?$output_processor@_WV?$string_output_adapter@_W@__crt_stdio_output@@V?$standard_base@_WV?$string_output_adapter@_W@__crt_stdio_output@@@2@@__crt_stdio_output@@AAE_NXZ 0042f111 f i libucrt:output.obj
 0001:0002e15d       ?state_case_normal@?$output_processor@DV?$stream_output_adapter@D@__crt_stdio_output@@V?$format_validation_base@DV?$stream_output_adapter@D@__crt_stdio_output@@@2@@__crt_stdio_output@@AAE_NXZ 0042f15d f i libucrt:output.obj
 0001:0002e249       ?state_case_normal@?$output_processor@DV?$stream_output_adapter@D@__crt_stdio_output@@V?$positional_parameter_base@DV?$stream_output_adapter@D@__crt_stdio_output@@@2@@__crt_stdio_output@@AAE_NXZ 0042f249 f i libucrt:output.obj
 0001:0002e343       ?state_case_normal@?$output_processor@DV?$stream_output_adapter@D@__crt_stdio_output@@V?$standard_base@DV?$stream_output_adapter@D@__crt_stdio_output@@@2@@__crt_stdio_output@@AAE_NXZ 0042f343 f i libucrt:output.obj
 0001:0002e42f       ?state_case_normal@?$output_processor@DV?$string_output_adapter@D@__crt_stdio_output@@V?$format_validation_base@DV?$string_output_adapter@D@__crt_stdio_output@@@2@@__crt_stdio_output@@AAE_NXZ 0042f42f f i libucrt:output.obj
 0001:0002e56a       ?state_case_normal@?$output_processor@DV?$string_output_adapter@D@__crt_stdio_output@@V?$positional_parameter_base@DV?$string_output_adapter@D@__crt_stdio_output@@@2@@__crt_stdio_output@@AAE_NXZ 0042f56a f i libucrt:output.obj
 0001:0002e6b2       ?state_case_normal@?$output_processor@DV?$string_output_adapter@D@__crt_stdio_output@@V?$standard_base@DV?$string_output_adapter@D@__crt_stdio_output@@@2@@__crt_stdio_output@@AAE_NXZ 0042f6b2 f i libucrt:output.obj
 0001:0002e7ed       ?state_case_normal@?$output_processor@_WV?$stream_output_adapter@_W@__crt_stdio_output@@V?$format_validation_base@_WV?$stream_output_adapter@_W@__crt_stdio_output@@@2@@__crt_stdio_output@@AAE_NXZ 0042f7ed f i libucrt:output.obj
 0001:0002e812       ?state_case_normal@?$output_processor@_WV?$stream_output_adapter@_W@__crt_stdio_output@@V?$positional_parameter_base@_WV?$stream_output_adapter@_W@__crt_stdio_output@@@2@@__crt_stdio_output@@AAE_NXZ 0042f812 f i libucrt:output.obj
 0001:0002e84a       ?state_case_normal@?$output_processor@_WV?$stream_output_adapter@_W@__crt_stdio_output@@V?$standard_base@_WV?$stream_output_adapter@_W@__crt_stdio_output@@@2@@__crt_stdio_output@@AAE_NXZ 0042f84a f i libucrt:output.obj
 0001:0002e86f       ?state_case_normal@?$output_processor@_WV?$string_output_adapter@_W@__crt_stdio_output@@V?$format_validation_base@_WV?$string_output_adapter@_W@__crt_stdio_output@@@2@@__crt_stdio_output@@AAE_NXZ 0042f86f f i libucrt:output.obj
 0001:0002e8c9       ?state_case_normal@?$output_processor@_WV?$string_output_adapter@_W@__crt_stdio_output@@V?$positional_parameter_base@_WV?$string_output_adapter@_W@__crt_stdio_output@@@2@@__crt_stdio_output@@AAE_NXZ 0042f8c9 f i libucrt:output.obj
 0001:0002e930       ?state_case_normal@?$output_processor@_WV?$string_output_adapter@_W@__crt_stdio_output@@V?$standard_base@_WV?$string_output_adapter@_W@__crt_stdio_output@@@2@@__crt_stdio_output@@AAE_NXZ 0042f930 f i libucrt:output.obj
 0001:0002e98a       ?state_case_normal_common@?$output_processor@DV?$stream_output_adapter@D@__crt_stdio_output@@V?$format_validation_base@DV?$stream_output_adapter@D@__crt_stdio_output@@@2@@__crt_stdio_output@@AAE_NXZ 0042f98a f i libucrt:output.obj
 0001:0002ea48       ?state_case_normal_common@?$output_processor@DV?$stream_output_adapter@D@__crt_stdio_output@@V?$positional_parameter_base@DV?$stream_output_adapter@D@__crt_stdio_output@@@2@@__crt_stdio_output@@AAE_NXZ 0042fa48 f i libucrt:output.obj
 0001:0002eb06       ?state_case_normal_common@?$output_processor@DV?$stream_output_adapter@D@__crt_stdio_output@@V?$standard_base@DV?$stream_output_adapter@D@__crt_stdio_output@@@2@@__crt_stdio_output@@AAE_NXZ 0042fb06 f i libucrt:output.obj
 0001:0002ebc4       ?state_case_normal_common@?$output_processor@DV?$string_output_adapter@D@__crt_stdio_output@@V?$format_validation_base@DV?$string_output_adapter@D@__crt_stdio_output@@@2@@__crt_stdio_output@@AAE_NXZ 0042fbc4 f i libucrt:output.obj
 0001:0002ecdc       ?state_case_normal_common@?$output_processor@DV?$string_output_adapter@D@__crt_stdio_output@@V?$positional_parameter_base@DV?$string_output_adapter@D@__crt_stdio_output@@@2@@__crt_stdio_output@@AAE_NXZ 0042fcdc f i libucrt:output.obj
 0001:0002edf4       ?state_case_normal_common@?$output_processor@DV?$string_output_adapter@D@__crt_stdio_output@@V?$standard_base@DV?$string_output_adapter@D@__crt_stdio_output@@@2@@__crt_stdio_output@@AAE_NXZ 0042fdf4 f i libucrt:output.obj
 0001:0002ef0c       ?state_case_normal_common@?$output_processor@_WV?$stream_output_adapter@_W@__crt_stdio_output@@V?$format_validation_base@_WV?$stream_output_adapter@_W@__crt_stdio_output@@@2@@__crt_stdio_output@@AAE_NXZ 0042ff0c f i libucrt:output.obj
 0001:0002ef31       ?state_case_normal_common@?$output_processor@_WV?$stream_output_adapter@_W@__crt_stdio_output@@V?$positional_parameter_base@_WV?$stream_output_adapter@_W@__crt_stdio_output@@@2@@__crt_stdio_output@@AAE_NXZ 0042ff31 f i libucrt:output.obj
 0001:0002ef56       ?state_case_normal_common@?$output_processor@_WV?$stream_output_adapter@_W@__crt_stdio_output@@V?$standard_base@_WV?$stream_output_adapter@_W@__crt_stdio_output@@@2@@__crt_stdio_output@@AAE_NXZ 0042ff56 f i libucrt:output.obj
 0001:0002ef7b       ?state_case_normal_common@?$output_processor@_WV?$string_output_adapter@_W@__crt_stdio_output@@V?$format_validation_base@_WV?$string_output_adapter@_W@__crt_stdio_output@@@2@@__crt_stdio_output@@AAE_NXZ 0042ff7b f i libucrt:output.obj
 0001:0002efd5       ?state_case_normal_common@?$output_processor@_WV?$string_output_adapter@_W@__crt_stdio_output@@V?$positional_parameter_base@_WV?$string_output_adapter@_W@__crt_stdio_output@@@2@@__crt_stdio_output@@AAE_NXZ 0042ffd5 f i libucrt:output.obj
 0001:0002f02f       ?state_case_normal_common@?$output_processor@_WV?$string_output_adapter@_W@__crt_stdio_output@@V?$standard_base@_WV?$string_output_adapter@_W@__crt_stdio_output@@@2@@__crt_stdio_output@@AAE_NXZ 0043002f f i libucrt:output.obj
 0001:0002f089       ?state_case_normal_tchar@?$output_processor@DV?$stream_output_adapter@D@__crt_stdio_output@@V?$format_validation_base@DV?$stream_output_adapter@D@__crt_stdio_output@@@2@@__crt_stdio_output@@AAE_ND@Z 00430089 f i libucrt:output.obj
 0001:0002f131       ?state_case_normal_tchar@?$output_processor@DV?$stream_output_adapter@D@__crt_stdio_output@@V?$positional_parameter_base@DV?$stream_output_adapter@D@__crt_stdio_output@@@2@@__crt_stdio_output@@AAE_ND@Z 00430131 f i libucrt:output.obj
 0001:0002f1d9       ?state_case_normal_tchar@?$output_processor@DV?$stream_output_adapter@D@__crt_stdio_output@@V?$standard_base@DV?$stream_output_adapter@D@__crt_stdio_output@@@2@@__crt_stdio_output@@AAE_ND@Z 004301d9 f i libucrt:output.obj
 0001:0002f281       ?state_case_normal_tchar@?$output_processor@DV?$string_output_adapter@D@__crt_stdio_output@@V?$format_validation_base@DV?$string_output_adapter@D@__crt_stdio_output@@@2@@__crt_stdio_output@@AAE_ND@Z 00430281 f i libucrt:output.obj
 0001:0002f356       ?state_case_normal_tchar@?$output_processor@DV?$string_output_adapter@D@__crt_stdio_output@@V?$positional_parameter_base@DV?$string_output_adapter@D@__crt_stdio_output@@@2@@__crt_stdio_output@@AAE_ND@Z 00430356 f i libucrt:output.obj
 0001:0002f42b       ?state_case_normal_tchar@?$output_processor@DV?$string_output_adapter@D@__crt_stdio_output@@V?$standard_base@DV?$string_output_adapter@D@__crt_stdio_output@@@2@@__crt_stdio_output@@AAE_ND@Z 0043042b f i libucrt:output.obj
 0001:0002f500       ?state_case_normal_tchar@?$output_processor@_WV?$stream_output_adapter@_W@__crt_stdio_output@@V?$format_validation_base@_WV?$stream_output_adapter@_W@__crt_stdio_output@@@2@@__crt_stdio_output@@AAE_N_W@Z 00430500 f i libucrt:output.obj
 0001:0002f50b       ?state_case_normal_tchar@?$output_processor@_WV?$stream_output_adapter@_W@__crt_stdio_output@@V?$positional_parameter_base@_WV?$stream_output_adapter@_W@__crt_stdio_output@@@2@@__crt_stdio_output@@AAE_N_W@Z 0043050b f i libucrt:output.obj
 0001:0002f516       ?state_case_normal_tchar@?$output_processor@_WV?$stream_output_adapter@_W@__crt_stdio_output@@V?$standard_base@_WV?$stream_output_adapter@_W@__crt_stdio_output@@@2@@__crt_stdio_output@@AAE_N_W@Z 00430516 f i libucrt:output.obj
 0001:0002f521       ?state_case_normal_tchar@?$output_processor@_WV?$string_output_adapter@_W@__crt_stdio_output@@V?$format_validation_base@_WV?$string_output_adapter@_W@__crt_stdio_output@@@2@@__crt_stdio_output@@AAE_N_W@Z 00430521 f i libucrt:output.obj
 0001:0002f52c       ?state_case_normal_tchar@?$output_processor@_WV?$string_output_adapter@_W@__crt_stdio_output@@V?$positional_parameter_base@_WV?$string_output_adapter@_W@__crt_stdio_output@@@2@@__crt_stdio_output@@AAE_N_W@Z 0043052c f i libucrt:output.obj
 0001:0002f537       ?state_case_normal_tchar@?$output_processor@_WV?$string_output_adapter@_W@__crt_stdio_output@@V?$standard_base@_WV?$string_output_adapter@_W@__crt_stdio_output@@@2@@__crt_stdio_output@@AAE_N_W@Z 00430537 f i libucrt:output.obj
 0001:0002f542       ?state_case_percent@?$output_processor@DV?$stream_output_adapter@D@__crt_stdio_output@@V?$format_validation_base@DV?$stream_output_adapter@D@__crt_stdio_output@@@2@@__crt_stdio_output@@AAE_NXZ 00430542 f i libucrt:output.obj
 0001:0002f560       ?state_case_percent@?$output_processor@DV?$stream_output_adapter@D@__crt_stdio_output@@V?$positional_parameter_base@DV?$stream_output_adapter@D@__crt_stdio_output@@@2@@__crt_stdio_output@@AAE_NXZ 00430560 f i libucrt:output.obj
 0001:0002f57e       ?state_case_percent@?$output_processor@DV?$stream_output_adapter@D@__crt_stdio_output@@V?$standard_base@DV?$stream_output_adapter@D@__crt_stdio_output@@@2@@__crt_stdio_output@@AAE_NXZ 0043057e f i libucrt:output.obj
 0001:0002f59c       ?state_case_percent@?$output_processor@DV?$string_output_adapter@D@__crt_stdio_output@@V?$format_validation_base@DV?$string_output_adapter@D@__crt_stdio_output@@@2@@__crt_stdio_output@@AAE_NXZ 0043059c f i libucrt:output.obj
 0001:0002f5ba       ?state_case_percent@?$output_processor@DV?$string_output_adapter@D@__crt_stdio_output@@V?$positional_parameter_base@DV?$string_output_adapter@D@__crt_stdio_output@@@2@@__crt_stdio_output@@AAE_NXZ 004305ba f i libucrt:output.obj
 0001:0002f5d8       ?state_case_percent@?$output_processor@DV?$string_output_adapter@D@__crt_stdio_output@@V?$standard_base@DV?$string_output_adapter@D@__crt_stdio_output@@@2@@__crt_stdio_output@@AAE_NXZ 004305d8 f i libucrt:output.obj
 0001:0002f5f6       ?state_case_percent@?$output_processor@_WV?$stream_output_adapter@_W@__crt_stdio_output@@V?$format_validation_base@_WV?$stream_output_adapter@_W@__crt_stdio_output@@@2@@__crt_stdio_output@@AAE_NXZ 004305f6 f i libucrt:output.obj
 0001:0002f614       ?state_case_percent@?$output_processor@_WV?$stream_output_adapter@_W@__crt_stdio_output@@V?$positional_parameter_base@_WV?$stream_output_adapter@_W@__crt_stdio_output@@@2@@__crt_stdio_output@@AAE_NXZ 00430614 f i libucrt:output.obj
 0001:0002f632       ?state_case_percent@?$output_processor@_WV?$stream_output_adapter@_W@__crt_stdio_output@@V?$standard_base@_WV?$stream_output_adapter@_W@__crt_stdio_output@@@2@@__crt_stdio_output@@AAE_NXZ 00430632 f i libucrt:output.obj
 0001:0002f650       ?state_case_percent@?$output_processor@_WV?$string_output_adapter@_W@__crt_stdio_output@@V?$format_validation_base@_WV?$string_output_adapter@_W@__crt_stdio_output@@@2@@__crt_stdio_output@@AAE_NXZ 00430650 f i libucrt:output.obj
 0001:0002f66e       ?state_case_percent@?$output_processor@_WV?$string_output_adapter@_W@__crt_stdio_output@@V?$positional_parameter_base@_WV?$string_output_adapter@_W@__crt_stdio_output@@@2@@__crt_stdio_output@@AAE_NXZ 0043066e f i libucrt:output.obj
 0001:0002f68c       ?state_case_percent@?$output_processor@_WV?$string_output_adapter@_W@__crt_stdio_output@@V?$standard_base@_WV?$string_output_adapter@_W@__crt_stdio_output@@@2@@__crt_stdio_output@@AAE_NXZ 0043068c f i libucrt:output.obj
 0001:0002f6aa       ?state_case_precision@?$output_processor@DV?$stream_output_adapter@D@__crt_stdio_output@@V?$format_validation_base@DV?$stream_output_adapter@D@__crt_stdio_output@@@2@@__crt_stdio_output@@AAE_NXZ 004306aa f i libucrt:output.obj
 0001:0002f6e1       ?state_case_precision@?$output_processor@DV?$stream_output_adapter@D@__crt_stdio_output@@V?$positional_parameter_base@DV?$stream_output_adapter@D@__crt_stdio_output@@@2@@__crt_stdio_output@@AAE_NXZ 004306e1 f i libucrt:output.obj
 0001:0002f729       ?state_case_precision@?$output_processor@DV?$stream_output_adapter@D@__crt_stdio_output@@V?$standard_base@DV?$stream_output_adapter@D@__crt_stdio_output@@@2@@__crt_stdio_output@@AAE_NXZ 00430729 f i libucrt:output.obj
 0001:0002f760       ?state_case_precision@?$output_processor@DV?$string_output_adapter@D@__crt_stdio_output@@V?$format_validation_base@DV?$string_output_adapter@D@__crt_stdio_output@@@2@@__crt_stdio_output@@AAE_NXZ 00430760 f i libucrt:output.obj
 0001:0002f797       ?state_case_precision@?$output_processor@DV?$string_output_adapter@D@__crt_stdio_output@@V?$positional_parameter_base@DV?$string_output_adapter@D@__crt_stdio_output@@@2@@__crt_stdio_output@@AAE_NXZ 00430797 f i libucrt:output.obj
 0001:0002f7df       ?state_case_precision@?$output_processor@DV?$string_output_adapter@D@__crt_stdio_output@@V?$standard_base@DV?$string_output_adapter@D@__crt_stdio_output@@@2@@__crt_stdio_output@@AAE_NXZ 004307df f i libucrt:output.obj
 0001:0002f816       ?state_case_precision@?$output_processor@_WV?$stream_output_adapter@_W@__crt_stdio_output@@V?$format_validation_base@_WV?$stream_output_adapter@_W@__crt_stdio_output@@@2@@__crt_stdio_output@@AAE_NXZ 00430816 f i libucrt:output.obj
 0001:0002f84e       ?state_case_precision@?$output_processor@_WV?$stream_output_adapter@_W@__crt_stdio_output@@V?$positional_parameter_base@_WV?$stream_output_adapter@_W@__crt_stdio_output@@@2@@__crt_stdio_output@@AAE_NXZ 0043084e f i libucrt:output.obj
 0001:0002f897       ?state_case_precision@?$output_processor@_WV?$stream_output_adapter@_W@__crt_stdio_output@@V?$standard_base@_WV?$stream_output_adapter@_W@__crt_stdio_output@@@2@@__crt_stdio_output@@AAE_NXZ 00430897 f i libucrt:output.obj
 0001:0002f8cf       ?state_case_precision@?$output_processor@_WV?$string_output_adapter@_W@__crt_stdio_output@@V?$format_validation_base@_WV?$string_output_adapter@_W@__crt_stdio_output@@@2@@__crt_stdio_output@@AAE_NXZ 004308cf f i libucrt:output.obj
 0001:0002f907       ?state_case_precision@?$output_processor@_WV?$string_output_adapter@_W@__crt_stdio_output@@V?$positional_parameter_base@_WV?$string_output_adapter@_W@__crt_stdio_output@@@2@@__crt_stdio_output@@AAE_NXZ 00430907 f i libucrt:output.obj
 0001:0002f950       ?state_case_precision@?$output_processor@_WV?$string_output_adapter@_W@__crt_stdio_output@@V?$standard_base@_WV?$string_output_adapter@_W@__crt_stdio_output@@@2@@__crt_stdio_output@@AAE_NXZ 00430950 f i libucrt:output.obj
 0001:0002f988       ?state_case_size@?$output_processor@DV?$stream_output_adapter@D@__crt_stdio_output@@V?$format_validation_base@DV?$stream_output_adapter@D@__crt_stdio_output@@@2@@__crt_stdio_output@@AAE_NXZ 00430988 f i libucrt:output.obj
 0001:0002fb37       ?state_case_size@?$output_processor@DV?$stream_output_adapter@D@__crt_stdio_output@@V?$positional_parameter_base@DV?$stream_output_adapter@D@__crt_stdio_output@@@2@@__crt_stdio_output@@AAE_NXZ 00430b37 f i libucrt:output.obj
 0001:0002fce6       ?state_case_size@?$output_processor@DV?$stream_output_adapter@D@__crt_stdio_output@@V?$standard_base@DV?$stream_output_adapter@D@__crt_stdio_output@@@2@@__crt_stdio_output@@AAE_NXZ 00430ce6 f i libucrt:output.obj
 0001:0002fe95       ?state_case_size@?$output_processor@DV?$string_output_adapter@D@__crt_stdio_output@@V?$format_validation_base@DV?$string_output_adapter@D@__crt_stdio_output@@@2@@__crt_stdio_output@@AAE_NXZ 00430e95 f i libucrt:output.obj
 0001:00030044       ?state_case_size@?$output_processor@DV?$string_output_adapter@D@__crt_stdio_output@@V?$positional_parameter_base@DV?$string_output_adapter@D@__crt_stdio_output@@@2@@__crt_stdio_output@@AAE_NXZ 00431044 f i libucrt:output.obj
 0001:000301f3       ?state_case_size@?$output_processor@DV?$string_output_adapter@D@__crt_stdio_output@@V?$standard_base@DV?$string_output_adapter@D@__crt_stdio_output@@@2@@__crt_stdio_output@@AAE_NXZ 004311f3 f i libucrt:output.obj
 0001:000303a2       ?state_case_size@?$output_processor@_WV?$stream_output_adapter@_W@__crt_stdio_output@@V?$format_validation_base@_WV?$stream_output_adapter@_W@__crt_stdio_output@@@2@@__crt_stdio_output@@AAE_NXZ 004313a2 f i libucrt:output.obj
 0001:0003058e       ?state_case_size@?$output_processor@_WV?$stream_output_adapter@_W@__crt_stdio_output@@V?$positional_parameter_base@_WV?$stream_output_adapter@_W@__crt_stdio_output@@@2@@__crt_stdio_output@@AAE_NXZ 0043158e f i libucrt:output.obj
 0001:0003077a       ?state_case_size@?$output_processor@_WV?$stream_output_adapter@_W@__crt_stdio_output@@V?$standard_base@_WV?$stream_output_adapter@_W@__crt_stdio_output@@@2@@__crt_stdio_output@@AAE_NXZ 0043177a f i libucrt:output.obj
 0001:00030966       ?state_case_size@?$output_processor@_WV?$string_output_adapter@_W@__crt_stdio_output@@V?$format_validation_base@_WV?$string_output_adapter@_W@__crt_stdio_output@@@2@@__crt_stdio_output@@AAE_NXZ 00431966 f i libucrt:output.obj
 0001:00030b52       ?state_case_size@?$output_processor@_WV?$string_output_adapter@_W@__crt_stdio_output@@V?$positional_parameter_base@_WV?$string_output_adapter@_W@__crt_stdio_output@@@2@@__crt_stdio_output@@AAE_NXZ 00431b52 f i libucrt:output.obj
 0001:00030d3e       ?state_case_size@?$output_processor@_WV?$string_output_adapter@_W@__crt_stdio_output@@V?$standard_base@_WV?$string_output_adapter@_W@__crt_stdio_output@@@2@@__crt_stdio_output@@AAE_NXZ 00431d3e f i libucrt:output.obj
 0001:00030f2a       ?state_case_type@?$output_processor@DV?$stream_output_adapter@D@__crt_stdio_output@@V?$format_validation_base@DV?$stream_output_adapter@D@__crt_stdio_output@@@2@@__crt_stdio_output@@AAE_NXZ 00431f2a f i libucrt:output.obj
 0001:0003133c       ?state_case_type@?$output_processor@DV?$stream_output_adapter@D@__crt_stdio_output@@V?$positional_parameter_base@DV?$stream_output_adapter@D@__crt_stdio_output@@@2@@__crt_stdio_output@@AAE_NXZ 0043233c f i libucrt:output.obj
 0001:00031761       ?state_case_type@?$output_processor@DV?$stream_output_adapter@D@__crt_stdio_output@@V?$standard_base@DV?$stream_output_adapter@D@__crt_stdio_output@@@2@@__crt_stdio_output@@AAE_NXZ 00432761 f i libucrt:output.obj
 0001:00031b73       ?state_case_type@?$output_processor@DV?$string_output_adapter@D@__crt_stdio_output@@V?$format_validation_base@DV?$string_output_adapter@D@__crt_stdio_output@@@2@@__crt_stdio_output@@AAE_NXZ 00432b73 f i libucrt:output.obj
 0001:00031fa9       ?state_case_type@?$output_processor@DV?$string_output_adapter@D@__crt_stdio_output@@V?$positional_parameter_base@DV?$string_output_adapter@D@__crt_stdio_output@@@2@@__crt_stdio_output@@AAE_NXZ 00432fa9 f i libucrt:output.obj
 0001:000323f2       ?state_case_type@?$output_processor@DV?$string_output_adapter@D@__crt_stdio_output@@V?$standard_base@DV?$string_output_adapter@D@__crt_stdio_output@@@2@@__crt_stdio_output@@AAE_NXZ 004333f2 f i libucrt:output.obj
 0001:00032828       ?state_case_type@?$output_processor@_WV?$stream_output_adapter@_W@__crt_stdio_output@@V?$format_validation_base@_WV?$stream_output_adapter@_W@__crt_stdio_output@@@2@@__crt_stdio_output@@AAE_NXZ 00433828 f i libucrt:output.obj
 0001:00032c5d       ?state_case_type@?$output_processor@_WV?$stream_output_adapter@_W@__crt_stdio_output@@V?$positional_parameter_base@_WV?$stream_output_adapter@_W@__crt_stdio_output@@@2@@__crt_stdio_output@@AAE_NXZ 00433c5d f i libucrt:output.obj
 0001:000330a5       ?state_case_type@?$output_processor@_WV?$stream_output_adapter@_W@__crt_stdio_output@@V?$standard_base@_WV?$stream_output_adapter@_W@__crt_stdio_output@@@2@@__crt_stdio_output@@AAE_NXZ 004340a5 f i libucrt:output.obj
 0001:000334da       ?state_case_type@?$output_processor@_WV?$string_output_adapter@_W@__crt_stdio_output@@V?$format_validation_base@_WV?$string_output_adapter@_W@__crt_stdio_output@@@2@@__crt_stdio_output@@AAE_NXZ 004344da f i libucrt:output.obj
 0001:000339cb       ?state_case_type@?$output_processor@_WV?$string_output_adapter@_W@__crt_stdio_output@@V?$positional_parameter_base@_WV?$string_output_adapter@_W@__crt_stdio_output@@@2@@__crt_stdio_output@@AAE_NXZ 004349cb f i libucrt:output.obj
 0001:00033ece       ?state_case_type@?$output_processor@_WV?$string_output_adapter@_W@__crt_stdio_output@@V?$standard_base@_WV?$string_output_adapter@_W@__crt_stdio_output@@@2@@__crt_stdio_output@@AAE_NXZ 00434ece f i libucrt:output.obj
 0001:000343bf       ?state_case_width@?$output_processor@DV?$stream_output_adapter@D@__crt_stdio_output@@V?$format_validation_base@DV?$stream_output_adapter@D@__crt_stdio_output@@@2@@__crt_stdio_output@@AAE_NXZ 004353bf f i libucrt:output.obj
 0001:000343fc       ?state_case_width@?$output_processor@DV?$stream_output_adapter@D@__crt_stdio_output@@V?$positional_parameter_base@DV?$stream_output_adapter@D@__crt_stdio_output@@@2@@__crt_stdio_output@@AAE_NXZ 004353fc f i libucrt:output.obj
 0001:0003444c       ?state_case_width@?$output_processor@DV?$stream_output_adapter@D@__crt_stdio_output@@V?$standard_base@DV?$stream_output_adapter@D@__crt_stdio_output@@@2@@__crt_stdio_output@@AAE_NXZ 0043544c f i libucrt:output.obj
 0001:00034489       ?state_case_width@?$output_processor@DV?$string_output_adapter@D@__crt_stdio_output@@V?$format_validation_base@DV?$string_output_adapter@D@__crt_stdio_output@@@2@@__crt_stdio_output@@AAE_NXZ 00435489 f i libucrt:output.obj
 0001:000344c6       ?state_case_width@?$output_processor@DV?$string_output_adapter@D@__crt_stdio_output@@V?$positional_parameter_base@DV?$string_output_adapter@D@__crt_stdio_output@@@2@@__crt_stdio_output@@AAE_NXZ 004354c6 f i libucrt:output.obj
 0001:00034516       ?state_case_width@?$output_processor@DV?$string_output_adapter@D@__crt_stdio_output@@V?$standard_base@DV?$string_output_adapter@D@__crt_stdio_output@@@2@@__crt_stdio_output@@AAE_NXZ 00435516 f i libucrt:output.obj
 0001:00034553       ?state_case_width@?$output_processor@_WV?$stream_output_adapter@_W@__crt_stdio_output@@V?$format_validation_base@_WV?$stream_output_adapter@_W@__crt_stdio_output@@@2@@__crt_stdio_output@@AAE_NXZ 00435553 f i libucrt:output.obj
 0001:00034591       ?state_case_width@?$output_processor@_WV?$stream_output_adapter@_W@__crt_stdio_output@@V?$positional_parameter_base@_WV?$stream_output_adapter@_W@__crt_stdio_output@@@2@@__crt_stdio_output@@AAE_NXZ 00435591 f i libucrt:output.obj
 0001:000345e2       ?state_case_width@?$output_processor@_WV?$stream_output_adapter@_W@__crt_stdio_output@@V?$standard_base@_WV?$stream_output_adapter@_W@__crt_stdio_output@@@2@@__crt_stdio_output@@AAE_NXZ 004355e2 f i libucrt:output.obj
 0001:00034620       ?state_case_width@?$output_processor@_WV?$string_output_adapter@_W@__crt_stdio_output@@V?$format_validation_base@_WV?$string_output_adapter@_W@__crt_stdio_output@@@2@@__crt_stdio_output@@AAE_NXZ 00435620 f i libucrt:output.obj
 0001:0003465e       ?state_case_width@?$output_processor@_WV?$string_output_adapter@_W@__crt_stdio_output@@V?$positional_parameter_base@_WV?$string_output_adapter@_W@__crt_stdio_output@@@2@@__crt_stdio_output@@AAE_NXZ 0043565e f i libucrt:output.obj
 0001:000346af       ?state_case_width@?$output_processor@_WV?$string_output_adapter@_W@__crt_stdio_output@@V?$standard_base@_WV?$string_output_adapter@_W@__crt_stdio_output@@@2@@__crt_stdio_output@@AAE_NXZ 004356af f i libucrt:output.obj
 0001:000346ed       ?state_count@?$format_validation_base@DV?$stream_output_adapter@D@__crt_stdio_output@@@__crt_stdio_output@@KAIXZ 004356ed f i libucrt:output.obj
 0001:000346f1       ?state_count@?$format_validation_base@DV?$string_output_adapter@D@__crt_stdio_output@@@__crt_stdio_output@@KAIXZ 004356f1 f i libucrt:output.obj
 0001:000346f5       ?state_count@?$format_validation_base@_WV?$stream_output_adapter@_W@__crt_stdio_output@@@__crt_stdio_output@@KAIXZ 004356f5 f i libucrt:output.obj
 0001:000346f9       ?state_count@?$format_validation_base@_WV?$string_output_adapter@_W@__crt_stdio_output@@@__crt_stdio_output@@KAIXZ 004356f9 f i libucrt:output.obj
 0001:000346fd       ?state_count@?$standard_base@DV?$stream_output_adapter@D@__crt_stdio_output@@@__crt_stdio_output@@KAIXZ 004356fd f i libucrt:output.obj
 0001:00034701       ?state_count@?$standard_base@DV?$string_output_adapter@D@__crt_stdio_output@@@__crt_stdio_output@@KAIXZ 00435701 f i libucrt:output.obj
 0001:00034705       ?state_count@?$standard_base@_WV?$stream_output_adapter@_W@__crt_stdio_output@@@__crt_stdio_output@@KAIXZ 00435705 f i libucrt:output.obj
 0001:00034709       ?state_count@?$standard_base@_WV?$string_output_adapter@_W@__crt_stdio_output@@@__crt_stdio_output@@KAIXZ 00435709 f i libucrt:output.obj
 0001:0003470d       ?state_transition_table@?$format_validation_base@DV?$stream_output_adapter@D@__crt_stdio_output@@@__crt_stdio_output@@KAABV?$spectre_mitigated_lookup_table@Ustate_transition_pair@__crt_stdio_output@@$0IA@@2@XZ 0043570d f i libucrt:output.obj
 0001:00034713       ?state_transition_table@?$format_validation_base@DV?$string_output_adapter@D@__crt_stdio_output@@@__crt_stdio_output@@KAABV?$spectre_mitigated_lookup_table@Ustate_transition_pair@__crt_stdio_output@@$0IA@@2@XZ 00435713 f i libucrt:output.obj
 0001:00034719       ?state_transition_table@?$format_validation_base@_WV?$stream_output_adapter@_W@__crt_stdio_output@@@__crt_stdio_output@@KAABV?$spectre_mitigated_lookup_table@Ustate_transition_pair@__crt_stdio_output@@$0IA@@2@XZ 00435719 f i libucrt:output.obj
 0001:0003471f       ?state_transition_table@?$format_validation_base@_WV?$string_output_adapter@_W@__crt_stdio_output@@@__crt_stdio_output@@KAABV?$spectre_mitigated_lookup_table@Ustate_transition_pair@__crt_stdio_output@@$0IA@@2@XZ 0043571f f i libucrt:output.obj
 0001:00034725       ?state_transition_table@?$standard_base@DV?$stream_output_adapter@D@__crt_stdio_output@@@__crt_stdio_output@@KAABV?$spectre_mitigated_lookup_table@Ustate_transition_pair@__crt_stdio_output@@$0IA@@2@XZ 00435725 f i libucrt:output.obj
 0001:0003472b       ?state_transition_table@?$standard_base@DV?$string_output_adapter@D@__crt_stdio_output@@@__crt_stdio_output@@KAABV?$spectre_mitigated_lookup_table@Ustate_transition_pair@__crt_stdio_output@@$0IA@@2@XZ 0043572b f i libucrt:output.obj
 0001:00034731       ?state_transition_table@?$standard_base@_WV?$stream_output_adapter@_W@__crt_stdio_output@@@__crt_stdio_output@@KAABV?$spectre_mitigated_lookup_table@Ustate_transition_pair@__crt_stdio_output@@$0IA@@2@XZ 00435731 f i libucrt:output.obj
 0001:00034737       ?state_transition_table@?$standard_base@_WV?$string_output_adapter@_W@__crt_stdio_output@@@__crt_stdio_output@@KAABV?$spectre_mitigated_lookup_table@Ustate_transition_pair@__crt_stdio_output@@$0IA@@2@XZ 00435737 f i libucrt:output.obj
 0001:0003473d       ?tchar_string@?$common_data@D@__crt_stdio_output@@IAEAAPADD@Z 0043573d f i libucrt:output.obj
 0001:00034743       ?tchar_string@?$common_data@D@__crt_stdio_output@@IAEAAPADXZ 00435743 f i libucrt:output.obj
 0001:00034747       ?tchar_string@?$common_data@_W@__crt_stdio_output@@IAEAAPA_WXZ 00435747 f i libucrt:output.obj
 0001:0003474b       ?tchar_string@?$common_data@_W@__crt_stdio_output@@IAEAAPA_W_W@Z 0043574b f i libucrt:output.obj
 0001:00034751       ?to_integer_size@__crt_stdio_output@@YAIW4length_modifier@1@@Z 00435751 f i libucrt:output.obj
 0001:000347ba       ?type_case_X@?$output_processor@DV?$stream_output_adapter@D@__crt_stdio_output@@V?$format_validation_base@DV?$stream_output_adapter@D@__crt_stdio_output@@@2@@__crt_stdio_output@@AAE_NXZ 004357ba f i libucrt:output.obj
 0001:000347c4       ?type_case_X@?$output_processor@DV?$stream_output_adapter@D@__crt_stdio_output@@V?$positional_parameter_base@DV?$stream_output_adapter@D@__crt_stdio_output@@@2@@__crt_stdio_output@@AAE_NXZ 004357c4 f i libucrt:output.obj
 0001:000347ce       ?type_case_X@?$output_processor@DV?$stream_output_adapter@D@__crt_stdio_output@@V?$standard_base@DV?$stream_output_adapter@D@__crt_stdio_output@@@2@@__crt_stdio_output@@AAE_NXZ 004357ce f i libucrt:output.obj
 0001:000347d8       ?type_case_X@?$output_processor@DV?$string_output_adapter@D@__crt_stdio_output@@V?$format_validation_base@DV?$string_output_adapter@D@__crt_stdio_output@@@2@@__crt_stdio_output@@AAE_NXZ 004357d8 f i libucrt:output.obj
 0001:000347e2       ?type_case_X@?$output_processor@DV?$string_output_adapter@D@__crt_stdio_output@@V?$positional_parameter_base@DV?$string_output_adapter@D@__crt_stdio_output@@@2@@__crt_stdio_output@@AAE_NXZ 004357e2 f i libucrt:output.obj
 0001:000347ec       ?type_case_X@?$output_processor@DV?$string_output_adapter@D@__crt_stdio_output@@V?$standard_base@DV?$string_output_adapter@D@__crt_stdio_output@@@2@@__crt_stdio_output@@AAE_NXZ 004357ec f i libucrt:output.obj
 0001:000347f6       ?type_case_X@?$output_processor@_WV?$stream_output_adapter@_W@__crt_stdio_output@@V?$format_validation_base@_WV?$stream_output_adapter@_W@__crt_stdio_output@@@2@@__crt_stdio_output@@AAE_NXZ 004357f6 f i libucrt:output.obj
 0001:00034800       ?type_case_X@?$output_processor@_WV?$stream_output_adapter@_W@__crt_stdio_output@@V?$positional_parameter_base@_WV?$stream_output_adapter@_W@__crt_stdio_output@@@2@@__crt_stdio_output@@AAE_NXZ 00435800 f i libucrt:output.obj
 0001:0003480a       ?type_case_X@?$output_processor@_WV?$stream_output_adapter@_W@__crt_stdio_output@@V?$standard_base@_WV?$stream_output_adapter@_W@__crt_stdio_output@@@2@@__crt_stdio_output@@AAE_NXZ 0043580a f i libucrt:output.obj
 0001:00034814       ?type_case_X@?$output_processor@_WV?$string_output_adapter@_W@__crt_stdio_output@@V?$format_validation_base@_WV?$string_output_adapter@_W@__crt_stdio_output@@@2@@__crt_stdio_output@@AAE_NXZ 00435814 f i libucrt:output.obj
 0001:0003481e       ?type_case_X@?$output_processor@_WV?$string_output_adapter@_W@__crt_stdio_output@@V?$positional_parameter_base@_WV?$string_output_adapter@_W@__crt_stdio_output@@@2@@__crt_stdio_output@@AAE_NXZ 0043581e f i libucrt:output.obj
 0001:00034828       ?type_case_X@?$output_processor@_WV?$string_output_adapter@_W@__crt_stdio_output@@V?$standard_base@_WV?$string_output_adapter@_W@__crt_stdio_output@@@2@@__crt_stdio_output@@AAE_NXZ 00435828 f i libucrt:output.obj
 0001:00034832       ?type_case_Z@?$output_processor@DV?$stream_output_adapter@D@__crt_stdio_output@@V?$format_validation_base@DV?$stream_output_adapter@D@__crt_stdio_output@@@2@@__crt_stdio_output@@AAE_NXZ 00435832 f i libucrt:output.obj
 0001:000348ad       ?type_case_Z@?$output_processor@DV?$stream_output_adapter@D@__crt_stdio_output@@V?$positional_parameter_base@DV?$stream_output_adapter@D@__crt_stdio_output@@@2@@__crt_stdio_output@@AAE_NXZ 004358ad f i libucrt:output.obj
 0001:00034945       ?type_case_Z@?$output_processor@DV?$stream_output_adapter@D@__crt_stdio_output@@V?$standard_base@DV?$stream_output_adapter@D@__crt_stdio_output@@@2@@__crt_stdio_output@@AAE_NXZ 00435945 f i libucrt:output.obj
 0001:000349c0       ?type_case_Z@?$output_processor@DV?$string_output_adapter@D@__crt_stdio_output@@V?$format_validation_base@DV?$string_output_adapter@D@__crt_stdio_output@@@2@@__crt_stdio_output@@AAE_NXZ 004359c0 f i libucrt:output.obj
 0001:00034a3b       ?type_case_Z@?$output_processor@DV?$string_output_adapter@D@__crt_stdio_output@@V?$positional_parameter_base@DV?$string_output_adapter@D@__crt_stdio_output@@@2@@__crt_stdio_output@@AAE_NXZ 00435a3b f i libucrt:output.obj
 0001:00034ad3       ?type_case_Z@?$output_processor@DV?$string_output_adapter@D@__crt_stdio_output@@V?$standard_base@DV?$string_output_adapter@D@__crt_stdio_output@@@2@@__crt_stdio_output@@AAE_NXZ 00435ad3 f i libucrt:output.obj
 0001:00034b4e       ?type_case_Z@?$output_processor@_WV?$stream_output_adapter@_W@__crt_stdio_output@@V?$format_validation_base@_WV?$stream_output_adapter@_W@__crt_stdio_output@@@2@@__crt_stdio_output@@AAE_NXZ 00435b4e f i libucrt:output.obj
 0001:00034bc9       ?type_case_Z@?$output_processor@_WV?$stream_output_adapter@_W@__crt_stdio_output@@V?$positional_parameter_base@_WV?$stream_output_adapter@_W@__crt_stdio_output@@@2@@__crt_stdio_output@@AAE_NXZ 00435bc9 f i libucrt:output.obj
 0001:00034c61       ?type_case_Z@?$output_processor@_WV?$stream_output_adapter@_W@__crt_stdio_output@@V?$standard_base@_WV?$stream_output_adapter@_W@__crt_stdio_output@@@2@@__crt_stdio_output@@AAE_NXZ 00435c61 f i libucrt:output.obj
 0001:00034cdc       ?type_case_Z@?$output_processor@_WV?$string_output_adapter@_W@__crt_stdio_output@@V?$format_validation_base@_WV?$string_output_adapter@_W@__crt_stdio_output@@@2@@__crt_stdio_output@@AAE_NXZ 00435cdc f i libucrt:output.obj
 0001:00034d57       ?type_case_Z@?$output_processor@_WV?$string_output_adapter@_W@__crt_stdio_output@@V?$positional_parameter_base@_WV?$string_output_adapter@_W@__crt_stdio_output@@@2@@__crt_stdio_output@@AAE_NXZ 00435d57 f i libucrt:output.obj
 0001:00034def       ?type_case_Z@?$output_processor@_WV?$string_output_adapter@_W@__crt_stdio_output@@V?$standard_base@_WV?$string_output_adapter@_W@__crt_stdio_output@@@2@@__crt_stdio_output@@AAE_NXZ 00435def f i libucrt:output.obj
 0001:00034e6a       ?type_case_a@?$output_processor@DV?$stream_output_adapter@D@__crt_stdio_output@@V?$format_validation_base@DV?$stream_output_adapter@D@__crt_stdio_output@@@2@@__crt_stdio_output@@AAE_NXZ 00435e6a f i libucrt:output.obj
 0001:0003505f       ?type_case_a@?$output_processor@DV?$stream_output_adapter@D@__crt_stdio_output@@V?$positional_parameter_base@DV?$stream_output_adapter@D@__crt_stdio_output@@@2@@__crt_stdio_output@@AAE_NXZ 0043605f f i libucrt:output.obj
 0001:00035278       ?type_case_a@?$output_processor@DV?$stream_output_adapter@D@__crt_stdio_output@@V?$standard_base@DV?$stream_output_adapter@D@__crt_stdio_output@@@2@@__crt_stdio_output@@AAE_NXZ 00436278 f i libucrt:output.obj
 0001:0003546d       ?type_case_a@?$output_processor@DV?$string_output_adapter@D@__crt_stdio_output@@V?$format_validation_base@DV?$string_output_adapter@D@__crt_stdio_output@@@2@@__crt_stdio_output@@AAE_NXZ 0043646d f i libucrt:output.obj
 0001:00035662       ?type_case_a@?$output_processor@DV?$string_output_adapter@D@__crt_stdio_output@@V?$positional_parameter_base@DV?$string_output_adapter@D@__crt_stdio_output@@@2@@__crt_stdio_output@@AAE_NXZ 00436662 f i libucrt:output.obj
 0001:0003587b       ?type_case_a@?$output_processor@DV?$string_output_adapter@D@__crt_stdio_output@@V?$standard_base@DV?$string_output_adapter@D@__crt_stdio_output@@@2@@__crt_stdio_output@@AAE_NXZ 0043687b f i libucrt:output.obj
 0001:00035a70       ?type_case_a@?$output_processor@_WV?$stream_output_adapter@_W@__crt_stdio_output@@V?$format_validation_base@_WV?$stream_output_adapter@_W@__crt_stdio_output@@@2@@__crt_stdio_output@@AAE_NXZ 00436a70 f i libucrt:output.obj
 0001:00035c80       ?type_case_a@?$output_processor@_WV?$stream_output_adapter@_W@__crt_stdio_output@@V?$positional_parameter_base@_WV?$stream_output_adapter@_W@__crt_stdio_output@@@2@@__crt_stdio_output@@AAE_NXZ 00436c80 f i libucrt:output.obj
 0001:00035eb5       ?type_case_a@?$output_processor@_WV?$stream_output_adapter@_W@__crt_stdio_output@@V?$standard_base@_WV?$stream_output_adapter@_W@__crt_stdio_output@@@2@@__crt_stdio_output@@AAE_NXZ 00436eb5 f i libucrt:output.obj
 0001:000360c5       ?type_case_a@?$output_processor@_WV?$string_output_adapter@_W@__crt_stdio_output@@V?$format_validation_base@_WV?$string_output_adapter@_W@__crt_stdio_output@@@2@@__crt_stdio_output@@AAE_NXZ 004370c5 f i libucrt:output.obj
 0001:000362d5       ?type_case_a@?$output_processor@_WV?$string_output_adapter@_W@__crt_stdio_output@@V?$positional_parameter_base@_WV?$string_output_adapter@_W@__crt_stdio_output@@@2@@__crt_stdio_output@@AAE_NXZ 004372d5 f i libucrt:output.obj
 0001:0003650a       ?type_case_a@?$output_processor@_WV?$string_output_adapter@_W@__crt_stdio_output@@V?$standard_base@_WV?$string_output_adapter@_W@__crt_stdio_output@@@2@@__crt_stdio_output@@AAE_NXZ 0043750a f i libucrt:output.obj
 0001:0003671a       ?type_case_c@?$output_processor@DV?$stream_output_adapter@D@__crt_stdio_output@@V?$format_validation_base@DV?$stream_output_adapter@D@__crt_stdio_output@@@2@@__crt_stdio_output@@AAE_NXZ 0043771a f i libucrt:output.obj
 0001:00036724       ?type_case_c@?$output_processor@DV?$stream_output_adapter@D@__crt_stdio_output@@V?$positional_parameter_base@DV?$stream_output_adapter@D@__crt_stdio_output@@@2@@__crt_stdio_output@@AAE_NXZ 00437724 f i libucrt:output.obj
 0001:0003672e       ?type_case_c@?$output_processor@DV?$stream_output_adapter@D@__crt_stdio_output@@V?$standard_base@DV?$stream_output_adapter@D@__crt_stdio_output@@@2@@__crt_stdio_output@@AAE_NXZ 0043772e f i libucrt:output.obj
 0001:00036738       ?type_case_c@?$output_processor@DV?$string_output_adapter@D@__crt_stdio_output@@V?$format_validation_base@DV?$string_output_adapter@D@__crt_stdio_output@@@2@@__crt_stdio_output@@AAE_NXZ 00437738 f i libucrt:output.obj
 0001:00036742       ?type_case_c@?$output_processor@DV?$string_output_adapter@D@__crt_stdio_output@@V?$positional_parameter_base@DV?$string_output_adapter@D@__crt_stdio_output@@@2@@__crt_stdio_output@@AAE_NXZ 00437742 f i libucrt:output.obj
 0001:0003674c       ?type_case_c@?$output_processor@DV?$string_output_adapter@D@__crt_stdio_output@@V?$standard_base@DV?$string_output_adapter@D@__crt_stdio_output@@@2@@__crt_stdio_output@@AAE_NXZ 0043774c f i libucrt:output.obj
 0001:00036756       ?type_case_c@?$output_processor@_WV?$stream_output_adapter@_W@__crt_stdio_output@@V?$format_validation_base@_WV?$stream_output_adapter@_W@__crt_stdio_output@@@2@@__crt_stdio_output@@AAE_NXZ 00437756 f i libucrt:output.obj
 0001:00036760       ?type_case_c@?$output_processor@_WV?$stream_output_adapter@_W@__crt_stdio_output@@V?$positional_parameter_base@_WV?$stream_output_adapter@_W@__crt_stdio_output@@@2@@__crt_stdio_output@@AAE_NXZ 00437760 f i libucrt:output.obj
 0001:0003676a       ?type_case_c@?$output_processor@_WV?$stream_output_adapter@_W@__crt_stdio_output@@V?$standard_base@_WV?$stream_output_adapter@_W@__crt_stdio_output@@@2@@__crt_stdio_output@@AAE_NXZ 0043776a f i libucrt:output.obj
 0001:00036774       ?type_case_c@?$output_processor@_WV?$string_output_adapter@_W@__crt_stdio_output@@V?$format_validation_base@_WV?$string_output_adapter@_W@__crt_stdio_output@@@2@@__crt_stdio_output@@AAE_NXZ 00437774 f i libucrt:output.obj
 0001:0003677e       ?type_case_c@?$output_processor@_WV?$string_output_adapter@_W@__crt_stdio_output@@V?$positional_parameter_base@_WV?$string_output_adapter@_W@__crt_stdio_output@@@2@@__crt_stdio_output@@AAE_NXZ 0043777e f i libucrt:output.obj
 0001:00036788       ?type_case_c@?$output_processor@_WV?$string_output_adapter@_W@__crt_stdio_output@@V?$standard_base@_WV?$string_output_adapter@_W@__crt_stdio_output@@@2@@__crt_stdio_output@@AAE_NXZ 00437788 f i libucrt:output.obj
 0001:00036792       ?type_case_c_tchar@?$output_processor@DV?$stream_output_adapter@D@__crt_stdio_output@@V?$format_validation_base@DV?$stream_output_adapter@D@__crt_stdio_output@@@2@@__crt_stdio_output@@AAE_ND@Z 00437792 f i libucrt:output.obj
 0001:0003684c       ?type_case_c_tchar@?$output_processor@DV?$stream_output_adapter@D@__crt_stdio_output@@V?$positional_parameter_base@DV?$stream_output_adapter@D@__crt_stdio_output@@@2@@__crt_stdio_output@@AAE_ND@Z 0043784c f i libucrt:output.obj
 0001:0003693a       ?type_case_c_tchar@?$output_processor@DV?$stream_output_adapter@D@__crt_stdio_output@@V?$standard_base@DV?$stream_output_adapter@D@__crt_stdio_output@@@2@@__crt_stdio_output@@AAE_ND@Z 0043793a f i libucrt:output.obj
 0001:000369f4       ?type_case_c_tchar@?$output_processor@DV?$string_output_adapter@D@__crt_stdio_output@@V?$format_validation_base@DV?$string_output_adapter@D@__crt_stdio_output@@@2@@__crt_stdio_output@@AAE_ND@Z 004379f4 f i libucrt:output.obj
 0001:00036aae       ?type_case_c_tchar@?$output_processor@DV?$string_output_adapter@D@__crt_stdio_output@@V?$positional_parameter_base@DV?$string_output_adapter@D@__crt_stdio_output@@@2@@__crt_stdio_output@@AAE_ND@Z 00437aae f i libucrt:output.obj
 0001:00036b9c       ?type_case_c_tchar@?$output_processor@DV?$string_output_adapter@D@__crt_stdio_output@@V?$standard_base@DV?$string_output_adapter@D@__crt_stdio_output@@@2@@__crt_stdio_output@@AAE_ND@Z 00437b9c f i libucrt:output.obj
 0001:00036c56       ?type_case_c_tchar@?$output_processor@_WV?$stream_output_adapter@_W@__crt_stdio_output@@V?$format_validation_base@_WV?$stream_output_adapter@_W@__crt_stdio_output@@@2@@__crt_stdio_output@@AAE_N_W@Z 00437c56 f i libucrt:output.obj
 0001:00036d28       ?type_case_c_tchar@?$output_processor@_WV?$stream_output_adapter@_W@__crt_stdio_output@@V?$positional_parameter_base@_WV?$stream_output_adapter@_W@__crt_stdio_output@@@2@@__crt_stdio_output@@AAE_N_W@Z 00437d28 f i libucrt:output.obj
 0001:00036e25       ?type_case_c_tchar@?$output_processor@_WV?$stream_output_adapter@_W@__crt_stdio_output@@V?$standard_base@_WV?$stream_output_adapter@_W@__crt_stdio_output@@@2@@__crt_stdio_output@@AAE_N_W@Z 00437e25 f i libucrt:output.obj
 0001:00036ef7       ?type_case_c_tchar@?$output_processor@_WV?$string_output_adapter@_W@__crt_stdio_output@@V?$format_validation_base@_WV?$string_output_adapter@_W@__crt_stdio_output@@@2@@__crt_stdio_output@@AAE_N_W@Z 00437ef7 f i libucrt:output.obj
 0001:00036fc9       ?type_case_c_tchar@?$output_processor@_WV?$string_output_adapter@_W@__crt_stdio_output@@V?$positional_parameter_base@_WV?$string_output_adapter@_W@__crt_stdio_output@@@2@@__crt_stdio_output@@AAE_N_W@Z 00437fc9 f i libucrt:output.obj
 0001:000370c6       ?type_case_c_tchar@?$output_processor@_WV?$string_output_adapter@_W@__crt_stdio_output@@V?$standard_base@_WV?$string_output_adapter@_W@__crt_stdio_output@@@2@@__crt_stdio_output@@AAE_N_W@Z 004380c6 f i libucrt:output.obj
 0001:00037198       ?type_case_d@?$output_processor@DV?$stream_output_adapter@D@__crt_stdio_output@@V?$format_validation_base@DV?$stream_output_adapter@D@__crt_stdio_output@@@2@@__crt_stdio_output@@AAE_NXZ 00438198 f i libucrt:output.obj
 0001:000371a7       ?type_case_d@?$output_processor@DV?$stream_output_adapter@D@__crt_stdio_output@@V?$positional_parameter_base@DV?$stream_output_adapter@D@__crt_stdio_output@@@2@@__crt_stdio_output@@AAE_NXZ 004381a7 f i libucrt:output.obj
 0001:000371b6       ?type_case_d@?$output_processor@DV?$stream_output_adapter@D@__crt_stdio_output@@V?$standard_base@DV?$stream_output_adapter@D@__crt_stdio_output@@@2@@__crt_stdio_output@@AAE_NXZ 004381b6 f i libucrt:output.obj
 0001:000371c5       ?type_case_d@?$output_processor@DV?$string_output_adapter@D@__crt_stdio_output@@V?$format_validation_base@DV?$string_output_adapter@D@__crt_stdio_output@@@2@@__crt_stdio_output@@AAE_NXZ 004381c5 f i libucrt:output.obj
 0001:000371d4       ?type_case_d@?$output_processor@DV?$string_output_adapter@D@__crt_stdio_output@@V?$positional_parameter_base@DV?$string_output_adapter@D@__crt_stdio_output@@@2@@__crt_stdio_output@@AAE_NXZ 004381d4 f i libucrt:output.obj
 0001:000371e3       ?type_case_d@?$output_processor@DV?$string_output_adapter@D@__crt_stdio_output@@V?$standard_base@DV?$string_output_adapter@D@__crt_stdio_output@@@2@@__crt_stdio_output@@AAE_NXZ 004381e3 f i libucrt:output.obj
 0001:000371f2       ?type_case_d@?$output_processor@_WV?$stream_output_adapter@_W@__crt_stdio_output@@V?$format_validation_base@_WV?$stream_output_adapter@_W@__crt_stdio_output@@@2@@__crt_stdio_output@@AAE_NXZ 004381f2 f i libucrt:output.obj
 0001:00037201       ?type_case_d@?$output_processor@_WV?$stream_output_adapter@_W@__crt_stdio_output@@V?$positional_parameter_base@_WV?$stream_output_adapter@_W@__crt_stdio_output@@@2@@__crt_stdio_output@@AAE_NXZ 00438201 f i libucrt:output.obj
 0001:00037210       ?type_case_d@?$output_processor@_WV?$stream_output_adapter@_W@__crt_stdio_output@@V?$standard_base@_WV?$stream_output_adapter@_W@__crt_stdio_output@@@2@@__crt_stdio_output@@AAE_NXZ 00438210 f i libucrt:output.obj
 0001:0003721f       ?type_case_d@?$output_processor@_WV?$string_output_adapter@_W@__crt_stdio_output@@V?$format_validation_base@_WV?$string_output_adapter@_W@__crt_stdio_output@@@2@@__crt_stdio_output@@AAE_NXZ 0043821f f i libucrt:output.obj
 0001:0003722e       ?type_case_d@?$output_processor@_WV?$string_output_adapter@_W@__crt_stdio_output@@V?$positional_parameter_base@_WV?$string_output_adapter@_W@__crt_stdio_output@@@2@@__crt_stdio_output@@AAE_NXZ 0043822e f i libucrt:output.obj
 0001:0003723d       ?type_case_d@?$output_processor@_WV?$string_output_adapter@_W@__crt_stdio_output@@V?$standard_base@_WV?$string_output_adapter@_W@__crt_stdio_output@@@2@@__crt_stdio_output@@AAE_NXZ 0043823d f i libucrt:output.obj
 0001:0003724c       ?type_case_n@?$output_processor@DV?$stream_output_adapter@D@__crt_stdio_output@@V?$format_validation_base@DV?$stream_output_adapter@D@__crt_stdio_output@@@2@@__crt_stdio_output@@AAE_NXZ 0043824c f i libucrt:output.obj
 0001:000372f2       ?type_case_n@?$output_processor@DV?$stream_output_adapter@D@__crt_stdio_output@@V?$positional_parameter_base@DV?$stream_output_adapter@D@__crt_stdio_output@@@2@@__crt_stdio_output@@AAE_NXZ 004382f2 f i libucrt:output.obj
 0001:000373ca       ?type_case_n@?$output_processor@DV?$stream_output_adapter@D@__crt_stdio_output@@V?$standard_base@DV?$stream_output_adapter@D@__crt_stdio_output@@@2@@__crt_stdio_output@@AAE_NXZ 004383ca f i libucrt:output.obj
 0001:00037470       ?type_case_n@?$output_processor@DV?$string_output_adapter@D@__crt_stdio_output@@V?$format_validation_base@DV?$string_output_adapter@D@__crt_stdio_output@@@2@@__crt_stdio_output@@AAE_NXZ 00438470 f i libucrt:output.obj
 0001:00037516       ?type_case_n@?$output_processor@DV?$string_output_adapter@D@__crt_stdio_output@@V?$positional_parameter_base@DV?$string_output_adapter@D@__crt_stdio_output@@@2@@__crt_stdio_output@@AAE_NXZ 00438516 f i libucrt:output.obj
 0001:000375ee       ?type_case_n@?$output_processor@DV?$string_output_adapter@D@__crt_stdio_output@@V?$standard_base@DV?$string_output_adapter@D@__crt_stdio_output@@@2@@__crt_stdio_output@@AAE_NXZ 004385ee f i libucrt:output.obj
 0001:00037694       ?type_case_n@?$output_processor@_WV?$stream_output_adapter@_W@__crt_stdio_output@@V?$format_validation_base@_WV?$stream_output_adapter@_W@__crt_stdio_output@@@2@@__crt_stdio_output@@AAE_NXZ 00438694 f i libucrt:output.obj
 0001:0003773a       ?type_case_n@?$output_processor@_WV?$stream_output_adapter@_W@__crt_stdio_output@@V?$positional_parameter_base@_WV?$stream_output_adapter@_W@__crt_stdio_output@@@2@@__crt_stdio_output@@AAE_NXZ 0043873a f i libucrt:output.obj
 0001:00037812       ?type_case_n@?$output_processor@_WV?$stream_output_adapter@_W@__crt_stdio_output@@V?$standard_base@_WV?$stream_output_adapter@_W@__crt_stdio_output@@@2@@__crt_stdio_output@@AAE_NXZ 00438812 f i libucrt:output.obj
 0001:000378b8       ?type_case_n@?$output_processor@_WV?$string_output_adapter@_W@__crt_stdio_output@@V?$format_validation_base@_WV?$string_output_adapter@_W@__crt_stdio_output@@@2@@__crt_stdio_output@@AAE_NXZ 004388b8 f i libucrt:output.obj
 0001:0003795e       ?type_case_n@?$output_processor@_WV?$string_output_adapter@_W@__crt_stdio_output@@V?$positional_parameter_base@_WV?$string_output_adapter@_W@__crt_stdio_output@@@2@@__crt_stdio_output@@AAE_NXZ 0043895e f i libucrt:output.obj
 0001:00037a36       ?type_case_n@?$output_processor@_WV?$string_output_adapter@_W@__crt_stdio_output@@V?$standard_base@_WV?$string_output_adapter@_W@__crt_stdio_output@@@2@@__crt_stdio_output@@AAE_NXZ 00438a36 f i libucrt:output.obj
 0001:00037adc       ?type_case_o@?$output_processor@DV?$stream_output_adapter@D@__crt_stdio_output@@V?$format_validation_base@DV?$stream_output_adapter@D@__crt_stdio_output@@@2@@__crt_stdio_output@@AAE_NXZ 00438adc f i libucrt:output.obj
 0001:00037b00       ?type_case_o@?$output_processor@DV?$stream_output_adapter@D@__crt_stdio_output@@V?$positional_parameter_base@DV?$stream_output_adapter@D@__crt_stdio_output@@@2@@__crt_stdio_output@@AAE_NXZ 00438b00 f i libucrt:output.obj
 0001:00037b24       ?type_case_o@?$output_processor@DV?$stream_output_adapter@D@__crt_stdio_output@@V?$standard_base@DV?$stream_output_adapter@D@__crt_stdio_output@@@2@@__crt_stdio_output@@AAE_NXZ 00438b24 f i libucrt:output.obj
 0001:00037b48       ?type_case_o@?$output_processor@DV?$string_output_adapter@D@__crt_stdio_output@@V?$format_validation_base@DV?$string_output_adapter@D@__crt_stdio_output@@@2@@__crt_stdio_output@@AAE_NXZ 00438b48 f i libucrt:output.obj
 0001:00037b6c       ?type_case_o@?$output_processor@DV?$string_output_adapter@D@__crt_stdio_output@@V?$positional_parameter_base@DV?$string_output_adapter@D@__crt_stdio_output@@@2@@__crt_stdio_output@@AAE_NXZ 00438b6c f i libucrt:output.obj
 0001:00037b90       ?type_case_o@?$output_processor@DV?$string_output_adapter@D@__crt_stdio_output@@V?$standard_base@DV?$string_output_adapter@D@__crt_stdio_output@@@2@@__crt_stdio_output@@AAE_NXZ 00438b90 f i libucrt:output.obj
 0001:00037bb4       ?type_case_o@?$output_processor@_WV?$stream_output_adapter@_W@__crt_stdio_output@@V?$format_validation_base@_WV?$stream_output_adapter@_W@__crt_stdio_output@@@2@@__crt_stdio_output@@AAE_NXZ 00438bb4 f i libucrt:output.obj
 0001:00037bd8       ?type_case_o@?$output_processor@_WV?$stream_output_adapter@_W@__crt_stdio_output@@V?$positional_parameter_base@_WV?$stream_output_adapter@_W@__crt_stdio_output@@@2@@__crt_stdio_output@@AAE_NXZ 00438bd8 f i libucrt:output.obj
 0001:00037bfc       ?type_case_o@?$output_processor@_WV?$stream_output_adapter@_W@__crt_stdio_output@@V?$standard_base@_WV?$stream_output_adapter@_W@__crt_stdio_output@@@2@@__crt_stdio_output@@AAE_NXZ 00438bfc f i libucrt:output.obj
 0001:00037c20       ?type_case_o@?$output_processor@_WV?$string_output_adapter@_W@__crt_stdio_output@@V?$format_validation_base@_WV?$string_output_adapter@_W@__crt_stdio_output@@@2@@__crt_stdio_output@@AAE_NXZ 00438c20 f i libucrt:output.obj
 0001:00037c44       ?type_case_o@?$output_processor@_WV?$string_output_adapter@_W@__crt_stdio_output@@V?$positional_parameter_base@_WV?$string_output_adapter@_W@__crt_stdio_output@@@2@@__crt_stdio_output@@AAE_NXZ 00438c44 f i libucrt:output.obj
 0001:00037c68       ?type_case_o@?$output_processor@_WV?$string_output_adapter@_W@__crt_stdio_output@@V?$standard_base@_WV?$string_output_adapter@_W@__crt_stdio_output@@@2@@__crt_stdio_output@@AAE_NXZ 00438c68 f i libucrt:output.obj
 0001:00037c8c       ?type_case_p@?$output_processor@DV?$stream_output_adapter@D@__crt_stdio_output@@V?$format_validation_base@DV?$stream_output_adapter@D@__crt_stdio_output@@@2@@__crt_stdio_output@@AAE_NXZ 00438c8c f i libucrt:output.obj
 0001:00037ca7       ?type_case_p@?$output_processor@DV?$stream_output_adapter@D@__crt_stdio_output@@V?$positional_parameter_base@DV?$stream_output_adapter@D@__crt_stdio_output@@@2@@__crt_stdio_output@@AAE_NXZ 00438ca7 f i libucrt:output.obj
 0001:00037cc2       ?type_case_p@?$output_processor@DV?$stream_output_adapter@D@__crt_stdio_output@@V?$standard_base@DV?$stream_output_adapter@D@__crt_stdio_output@@@2@@__crt_stdio_output@@AAE_NXZ 00438cc2 f i libucrt:output.obj
 0001:00037cdd       ?type_case_p@?$output_processor@DV?$string_output_adapter@D@__crt_stdio_output@@V?$format_validation_base@DV?$string_output_adapter@D@__crt_stdio_output@@@2@@__crt_stdio_output@@AAE_NXZ 00438cdd f i libucrt:output.obj
 0001:00037cf8       ?type_case_p@?$output_processor@DV?$string_output_adapter@D@__crt_stdio_output@@V?$positional_parameter_base@DV?$string_output_adapter@D@__crt_stdio_output@@@2@@__crt_stdio_output@@AAE_NXZ 00438cf8 f i libucrt:output.obj
 0001:00037d13       ?type_case_p@?$output_processor@DV?$string_output_adapter@D@__crt_stdio_output@@V?$standard_base@DV?$string_output_adapter@D@__crt_stdio_output@@@2@@__crt_stdio_output@@AAE_NXZ 00438d13 f i libucrt:output.obj
 0001:00037d2e       ?type_case_p@?$output_processor@_WV?$stream_output_adapter@_W@__crt_stdio_output@@V?$format_validation_base@_WV?$stream_output_adapter@_W@__crt_stdio_output@@@2@@__crt_stdio_output@@AAE_NXZ 00438d2e f i libucrt:output.obj
 0001:00037d49       ?type_case_p@?$output_processor@_WV?$stream_output_adapter@_W@__crt_stdio_output@@V?$positional_parameter_base@_WV?$stream_output_adapter@_W@__crt_stdio_output@@@2@@__crt_stdio_output@@AAE_NXZ 00438d49 f i libucrt:output.obj
 0001:00037d64       ?type_case_p@?$output_processor@_WV?$stream_output_adapter@_W@__crt_stdio_output@@V?$standard_base@_WV?$stream_output_adapter@_W@__crt_stdio_output@@@2@@__crt_stdio_output@@AAE_NXZ 00438d64 f i libucrt:output.obj
 0001:00037d7f       ?type_case_p@?$output_processor@_WV?$string_output_adapter@_W@__crt_stdio_output@@V?$format_validation_base@_WV?$string_output_adapter@_W@__crt_stdio_output@@@2@@__crt_stdio_output@@AAE_NXZ 00438d7f f i libucrt:output.obj
 0001:00037d9a       ?type_case_p@?$output_processor@_WV?$string_output_adapter@_W@__crt_stdio_output@@V?$positional_parameter_base@_WV?$string_output_adapter@_W@__crt_stdio_output@@@2@@__crt_stdio_output@@AAE_NXZ 00438d9a f i libucrt:output.obj
 0001:00037db5       ?type_case_p@?$output_processor@_WV?$string_output_adapter@_W@__crt_stdio_output@@V?$standard_base@_WV?$string_output_adapter@_W@__crt_stdio_output@@@2@@__crt_stdio_output@@AAE_NXZ 00438db5 f i libucrt:output.obj
 0001:00037dd0       ?type_case_s@?$output_processor@DV?$stream_output_adapter@D@__crt_stdio_output@@V?$format_validation_base@DV?$stream_output_adapter@D@__crt_stdio_output@@@2@@__crt_stdio_output@@AAE_NXZ 00438dd0 f i libucrt:output.obj
 0001:00037e5e       ?type_case_s@?$output_processor@DV?$stream_output_adapter@D@__crt_stdio_output@@V?$positional_parameter_base@DV?$stream_output_adapter@D@__crt_stdio_output@@@2@@__crt_stdio_output@@AAE_NXZ 00438e5e f i libucrt:output.obj
 0001:00037efb       ?type_case_s@?$output_processor@DV?$stream_output_adapter@D@__crt_stdio_output@@V?$standard_base@DV?$stream_output_adapter@D@__crt_stdio_output@@@2@@__crt_stdio_output@@AAE_NXZ 00438efb f i libucrt:output.obj
 0001:00037f89       ?type_case_s@?$output_processor@DV?$string_output_adapter@D@__crt_stdio_output@@V?$format_validation_base@DV?$string_output_adapter@D@__crt_stdio_output@@@2@@__crt_stdio_output@@AAE_NXZ 00438f89 f i libucrt:output.obj
 0001:00038017       ?type_case_s@?$output_processor@DV?$string_output_adapter@D@__crt_stdio_output@@V?$positional_parameter_base@DV?$string_output_adapter@D@__crt_stdio_output@@@2@@__crt_stdio_output@@AAE_NXZ 00439017 f i libucrt:output.obj
 0001:000380b4       ?type_case_s@?$output_processor@DV?$string_output_adapter@D@__crt_stdio_output@@V?$standard_base@DV?$string_output_adapter@D@__crt_stdio_output@@@2@@__crt_stdio_output@@AAE_NXZ 004390b4 f i libucrt:output.obj
 0001:00038142       ?type_case_s@?$output_processor@_WV?$stream_output_adapter@_W@__crt_stdio_output@@V?$format_validation_base@_WV?$stream_output_adapter@_W@__crt_stdio_output@@@2@@__crt_stdio_output@@AAE_NXZ 00439142 f i libucrt:output.obj
 0001:000381d3       ?type_case_s@?$output_processor@_WV?$stream_output_adapter@_W@__crt_stdio_output@@V?$positional_parameter_base@_WV?$stream_output_adapter@_W@__crt_stdio_output@@@2@@__crt_stdio_output@@AAE_NXZ 004391d3 f i libucrt:output.obj
 0001:00038273       ?type_case_s@?$output_processor@_WV?$stream_output_adapter@_W@__crt_stdio_output@@V?$standard_base@_WV?$stream_output_adapter@_W@__crt_stdio_output@@@2@@__crt_stdio_output@@AAE_NXZ 00439273 f i libucrt:output.obj
 0001:00038304       ?type_case_s@?$output_processor@_WV?$string_output_adapter@_W@__crt_stdio_output@@V?$format_validation_base@_WV?$string_output_adapter@_W@__crt_stdio_output@@@2@@__crt_stdio_output@@AAE_NXZ 00439304 f i libucrt:output.obj
 0001:00038395       ?type_case_s@?$output_processor@_WV?$string_output_adapter@_W@__crt_stdio_output@@V?$positional_parameter_base@_WV?$string_output_adapter@_W@__crt_stdio_output@@@2@@__crt_stdio_output@@AAE_NXZ 00439395 f i libucrt:output.obj
 0001:00038435       ?type_case_s@?$output_processor@_WV?$string_output_adapter@_W@__crt_stdio_output@@V?$standard_base@_WV?$string_output_adapter@_W@__crt_stdio_output@@@2@@__crt_stdio_output@@AAE_NXZ 00439435 f i libucrt:output.obj
 0001:000384c6       ?type_case_s_compute_narrow_string_length@?$output_processor@DV?$stream_output_adapter@D@__crt_stdio_output@@V?$format_validation_base@DV?$stream_output_adapter@D@__crt_stdio_output@@@2@@__crt_stdio_output@@AAEHHD@Z 004394c6 f i libucrt:output.obj
 0001:000384e1       ?type_case_s_compute_narrow_string_length@?$output_processor@DV?$stream_output_adapter@D@__crt_stdio_output@@V?$positional_parameter_base@DV?$stream_output_adapter@D@__crt_stdio_output@@@2@@__crt_stdio_output@@AAEHHD@Z 004394e1 f i libucrt:output.obj
 0001:000384fc       ?type_case_s_compute_narrow_string_length@?$output_processor@DV?$stream_output_adapter@D@__crt_stdio_output@@V?$standard_base@DV?$stream_output_adapter@D@__crt_stdio_output@@@2@@__crt_stdio_output@@AAEHHD@Z 004394fc f i libucrt:output.obj
 0001:00038517       ?type_case_s_compute_narrow_string_length@?$output_processor@DV?$string_output_adapter@D@__crt_stdio_output@@V?$format_validation_base@DV?$string_output_adapter@D@__crt_stdio_output@@@2@@__crt_stdio_output@@AAEHHD@Z 00439517 f i libucrt:output.obj
 0001:00038532       ?type_case_s_compute_narrow_string_length@?$output_processor@DV?$string_output_adapter@D@__crt_stdio_output@@V?$positional_parameter_base@DV?$string_output_adapter@D@__crt_stdio_output@@@2@@__crt_stdio_output@@AAEHHD@Z 00439532 f i libucrt:output.obj
 0001:0003854d       ?type_case_s_compute_narrow_string_length@?$output_processor@DV?$string_output_adapter@D@__crt_stdio_output@@V?$standard_base@DV?$string_output_adapter@D@__crt_stdio_output@@@2@@__crt_stdio_output@@AAEHHD@Z 0043954d f i libucrt:output.obj
 0001:00038568       ?type_case_s_compute_narrow_string_length@?$output_processor@_WV?$stream_output_adapter@_W@__crt_stdio_output@@V?$format_validation_base@_WV?$stream_output_adapter@_W@__crt_stdio_output@@@2@@__crt_stdio_output@@AAEHH_W@Z 00439568 f i libucrt:output.obj
 0001:000385d2       ?type_case_s_compute_narrow_string_length@?$output_processor@_WV?$stream_output_adapter@_W@__crt_stdio_output@@V?$positional_parameter_base@_WV?$stream_output_adapter@_W@__crt_stdio_output@@@2@@__crt_stdio_output@@AAEHH_W@Z 004395d2 f i libucrt:output.obj
 0001:0003863c       ?type_case_s_compute_narrow_string_length@?$output_processor@_WV?$stream_output_adapter@_W@__crt_stdio_output@@V?$standard_base@_WV?$stream_output_adapter@_W@__crt_stdio_output@@@2@@__crt_stdio_output@@AAEHH_W@Z 0043963c f i libucrt:output.obj
 0001:000386a6       ?type_case_s_compute_narrow_string_length@?$output_processor@_WV?$string_output_adapter@_W@__crt_stdio_output@@V?$format_validation_base@_WV?$string_output_adapter@_W@__crt_stdio_output@@@2@@__crt_stdio_output@@AAEHH_W@Z 004396a6 f i libucrt:output.obj
 0001:00038710       ?type_case_s_compute_narrow_string_length@?$output_processor@_WV?$string_output_adapter@_W@__crt_stdio_output@@V?$positional_parameter_base@_WV?$string_output_adapter@_W@__crt_stdio_output@@@2@@__crt_stdio_output@@AAEHH_W@Z 00439710 f i libucrt:output.obj
 0001:0003877a       ?type_case_s_compute_narrow_string_length@?$output_processor@_WV?$string_output_adapter@_W@__crt_stdio_output@@V?$standard_base@_WV?$string_output_adapter@_W@__crt_stdio_output@@@2@@__crt_stdio_output@@AAEHH_W@Z 0043977a f i libucrt:output.obj
 0001:000387e4       ?type_case_u@?$output_processor@DV?$stream_output_adapter@D@__crt_stdio_output@@V?$format_validation_base@DV?$stream_output_adapter@D@__crt_stdio_output@@@2@@__crt_stdio_output@@AAE_NXZ 004397e4 f i libucrt:output.obj
 0001:000387ee       ?type_case_u@?$output_processor@DV?$stream_output_adapter@D@__crt_stdio_output@@V?$positional_parameter_base@DV?$stream_output_adapter@D@__crt_stdio_output@@@2@@__crt_stdio_output@@AAE_NXZ 004397ee f i libucrt:output.obj
 0001:000387f8       ?type_case_u@?$output_processor@DV?$stream_output_adapter@D@__crt_stdio_output@@V?$standard_base@DV?$stream_output_adapter@D@__crt_stdio_output@@@2@@__crt_stdio_output@@AAE_NXZ 004397f8 f i libucrt:output.obj
 0001:00038802       ?type_case_u@?$output_processor@DV?$string_output_adapter@D@__crt_stdio_output@@V?$format_validation_base@DV?$string_output_adapter@D@__crt_stdio_output@@@2@@__crt_stdio_output@@AAE_NXZ 00439802 f i libucrt:output.obj
 0001:0003880c       ?type_case_u@?$output_processor@DV?$string_output_adapter@D@__crt_stdio_output@@V?$positional_parameter_base@DV?$string_output_adapter@D@__crt_stdio_output@@@2@@__crt_stdio_output@@AAE_NXZ 0043980c f i libucrt:output.obj
 0001:00038816       ?type_case_u@?$output_processor@DV?$string_output_adapter@D@__crt_stdio_output@@V?$standard_base@DV?$string_output_adapter@D@__crt_stdio_output@@@2@@__crt_stdio_output@@AAE_NXZ 00439816 f i libucrt:output.obj
 0001:00038820       ?type_case_u@?$output_processor@_WV?$stream_output_adapter@_W@__crt_stdio_output@@V?$format_validation_base@_WV?$stream_output_adapter@_W@__crt_stdio_output@@@2@@__crt_stdio_output@@AAE_NXZ 00439820 f i libucrt:output.obj
 0001:0003882a       ?type_case_u@?$output_processor@_WV?$stream_output_adapter@_W@__crt_stdio_output@@V?$positional_parameter_base@_WV?$stream_output_adapter@_W@__crt_stdio_output@@@2@@__crt_stdio_output@@AAE_NXZ 0043982a f i libucrt:output.obj
 0001:00038834       ?type_case_u@?$output_processor@_WV?$stream_output_adapter@_W@__crt_stdio_output@@V?$standard_base@_WV?$stream_output_adapter@_W@__crt_stdio_output@@@2@@__crt_stdio_output@@AAE_NXZ 00439834 f i libucrt:output.obj
 0001:0003883e       ?type_case_u@?$output_processor@_WV?$string_output_adapter@_W@__crt_stdio_output@@V?$format_validation_base@_WV?$string_output_adapter@_W@__crt_stdio_output@@@2@@__crt_stdio_output@@AAE_NXZ 0043983e f i libucrt:output.obj
 0001:00038848       ?type_case_u@?$output_processor@_WV?$string_output_adapter@_W@__crt_stdio_output@@V?$positional_parameter_base@_WV?$string_output_adapter@_W@__crt_stdio_output@@@2@@__crt_stdio_output@@AAE_NXZ 00439848 f i libucrt:output.obj
 0001:00038852       ?type_case_u@?$output_processor@_WV?$string_output_adapter@_W@__crt_stdio_output@@V?$standard_base@_WV?$string_output_adapter@_W@__crt_stdio_output@@@2@@__crt_stdio_output@@AAE_NXZ 00439852 f i libucrt:output.obj
 0001:0003885c       ?type_case_x@?$output_processor@DV?$stream_output_adapter@D@__crt_stdio_output@@V?$format_validation_base@DV?$stream_output_adapter@D@__crt_stdio_output@@@2@@__crt_stdio_output@@AAE_NXZ 0043985c f i libucrt:output.obj
 0001:00038866       ?type_case_x@?$output_processor@DV?$stream_output_adapter@D@__crt_stdio_output@@V?$positional_parameter_base@DV?$stream_output_adapter@D@__crt_stdio_output@@@2@@__crt_stdio_output@@AAE_NXZ 00439866 f i libucrt:output.obj
 0001:00038870       ?type_case_x@?$output_processor@DV?$stream_output_adapter@D@__crt_stdio_output@@V?$standard_base@DV?$stream_output_adapter@D@__crt_stdio_output@@@2@@__crt_stdio_output@@AAE_NXZ 00439870 f i libucrt:output.obj
 0001:0003887a       ?type_case_x@?$output_processor@DV?$string_output_adapter@D@__crt_stdio_output@@V?$format_validation_base@DV?$string_output_adapter@D@__crt_stdio_output@@@2@@__crt_stdio_output@@AAE_NXZ 0043987a f i libucrt:output.obj
 0001:00038884       ?type_case_x@?$output_processor@DV?$string_output_adapter@D@__crt_stdio_output@@V?$positional_parameter_base@DV?$string_output_adapter@D@__crt_stdio_output@@@2@@__crt_stdio_output@@AAE_NXZ 00439884 f i libucrt:output.obj
 0001:0003888e       ?type_case_x@?$output_processor@DV?$string_output_adapter@D@__crt_stdio_output@@V?$standard_base@DV?$string_output_adapter@D@__crt_stdio_output@@@2@@__crt_stdio_output@@AAE_NXZ 0043988e f i libucrt:output.obj
 0001:00038898       ?type_case_x@?$output_processor@_WV?$stream_output_adapter@_W@__crt_stdio_output@@V?$format_validation_base@_WV?$stream_output_adapter@_W@__crt_stdio_output@@@2@@__crt_stdio_output@@AAE_NXZ 00439898 f i libucrt:output.obj
 0001:000388a2       ?type_case_x@?$output_processor@_WV?$stream_output_adapter@_W@__crt_stdio_output@@V?$positional_parameter_base@_WV?$stream_output_adapter@_W@__crt_stdio_output@@@2@@__crt_stdio_output@@AAE_NXZ 004398a2 f i libucrt:output.obj
 0001:000388ac       ?type_case_x@?$output_processor@_WV?$stream_output_adapter@_W@__crt_stdio_output@@V?$standard_base@_WV?$stream_output_adapter@_W@__crt_stdio_output@@@2@@__crt_stdio_output@@AAE_NXZ 004398ac f i libucrt:output.obj
 0001:000388b6       ?type_case_x@?$output_processor@_WV?$string_output_adapter@_W@__crt_stdio_output@@V?$format_validation_base@_WV?$string_output_adapter@_W@__crt_stdio_output@@@2@@__crt_stdio_output@@AAE_NXZ 004398b6 f i libucrt:output.obj
 0001:000388c0       ?type_case_x@?$output_processor@_WV?$string_output_adapter@_W@__crt_stdio_output@@V?$positional_parameter_base@_WV?$string_output_adapter@_W@__crt_stdio_output@@@2@@__crt_stdio_output@@AAE_NXZ 004398c0 f i libucrt:output.obj
 0001:000388ca       ?type_case_x@?$output_processor@_WV?$string_output_adapter@_W@__crt_stdio_output@@V?$standard_base@_WV?$string_output_adapter@_W@__crt_stdio_output@@@2@@__crt_stdio_output@@AAE_NXZ 004398ca f i libucrt:output.obj
 0001:000388d4       ?unset_flag@?$output_processor@DV?$stream_output_adapter@D@__crt_stdio_output@@V?$format_validation_base@DV?$stream_output_adapter@D@__crt_stdio_output@@@2@@__crt_stdio_output@@AAEXI@Z 004398d4 f i libucrt:output.obj
 0001:000388e9       ?unset_flag@?$output_processor@DV?$stream_output_adapter@D@__crt_stdio_output@@V?$positional_parameter_base@DV?$stream_output_adapter@D@__crt_stdio_output@@@2@@__crt_stdio_output@@AAEXI@Z 004398e9 f i libucrt:output.obj
 0001:000388fe       ?unset_flag@?$output_processor@DV?$stream_output_adapter@D@__crt_stdio_output@@V?$standard_base@DV?$stream_output_adapter@D@__crt_stdio_output@@@2@@__crt_stdio_output@@AAEXI@Z 004398fe f i libucrt:output.obj
 0001:00038913       ?unset_flag@?$output_processor@DV?$string_output_adapter@D@__crt_stdio_output@@V?$format_validation_base@DV?$string_output_adapter@D@__crt_stdio_output@@@2@@__crt_stdio_output@@AAEXI@Z 00439913 f i libucrt:output.obj
 0001:00038928       ?unset_flag@?$output_processor@DV?$string_output_adapter@D@__crt_stdio_output@@V?$positional_parameter_base@DV?$string_output_adapter@D@__crt_stdio_output@@@2@@__crt_stdio_output@@AAEXI@Z 00439928 f i libucrt:output.obj
 0001:0003893d       ?unset_flag@?$output_processor@DV?$string_output_adapter@D@__crt_stdio_output@@V?$standard_base@DV?$string_output_adapter@D@__crt_stdio_output@@@2@@__crt_stdio_output@@AAEXI@Z 0043993d f i libucrt:output.obj
 0001:00038952       ?unset_flag@?$output_processor@_WV?$stream_output_adapter@_W@__crt_stdio_output@@V?$format_validation_base@_WV?$stream_output_adapter@_W@__crt_stdio_output@@@2@@__crt_stdio_output@@AAEXI@Z 00439952 f i libucrt:output.obj
 0001:00038967       ?unset_flag@?$output_processor@_WV?$stream_output_adapter@_W@__crt_stdio_output@@V?$positional_parameter_base@_WV?$stream_output_adapter@_W@__crt_stdio_output@@@2@@__crt_stdio_output@@AAEXI@Z 00439967 f i libucrt:output.obj
 0001:0003897c       ?unset_flag@?$output_processor@_WV?$stream_output_adapter@_W@__crt_stdio_output@@V?$standard_base@_WV?$stream_output_adapter@_W@__crt_stdio_output@@@2@@__crt_stdio_output@@AAEXI@Z 0043997c f i libucrt:output.obj
 0001:00038991       ?unset_flag@?$output_processor@_WV?$string_output_adapter@_W@__crt_stdio_output@@V?$format_validation_base@_WV?$string_output_adapter@_W@__crt_stdio_output@@@2@@__crt_stdio_output@@AAEXI@Z 00439991 f i libucrt:output.obj
 0001:000389a6       ?unset_flag@?$output_processor@_WV?$string_output_adapter@_W@__crt_stdio_output@@V?$positional_parameter_base@_WV?$string_output_adapter@_W@__crt_stdio_output@@@2@@__crt_stdio_output@@AAEXI@Z 004399a6 f i libucrt:output.obj
 0001:000389bb       ?unset_flag@?$output_processor@_WV?$string_output_adapter@_W@__crt_stdio_output@@V?$standard_base@_WV?$string_output_adapter@_W@__crt_stdio_output@@@2@@__crt_stdio_output@@AAEXI@Z 004399bb f i libucrt:output.obj
 0001:000389d0       ?update_field_width@?$positional_parameter_base@DV?$stream_output_adapter@D@__crt_stdio_output@@@__crt_stdio_output@@IAE_NXZ 004399d0 f i libucrt:output.obj
 0001:00038ada       ?update_field_width@?$positional_parameter_base@DV?$string_output_adapter@D@__crt_stdio_output@@@__crt_stdio_output@@IAE_NXZ 00439ada f i libucrt:output.obj
 0001:00038be4       ?update_field_width@?$positional_parameter_base@_WV?$stream_output_adapter@_W@__crt_stdio_output@@@__crt_stdio_output@@IAE_NXZ 00439be4 f i libucrt:output.obj
 0001:00038cef       ?update_field_width@?$positional_parameter_base@_WV?$string_output_adapter@_W@__crt_stdio_output@@@__crt_stdio_output@@IAE_NXZ 00439cef f i libucrt:output.obj
 0001:00038dfa       ?update_field_width@?$standard_base@DV?$stream_output_adapter@D@__crt_stdio_output@@@__crt_stdio_output@@IAE_NXZ 00439dfa f i libucrt:output.obj
 0001:00038e0f       ?update_field_width@?$standard_base@DV?$string_output_adapter@D@__crt_stdio_output@@@__crt_stdio_output@@IAE_NXZ 00439e0f f i libucrt:output.obj
 0001:00038e24       ?update_field_width@?$standard_base@_WV?$stream_output_adapter@_W@__crt_stdio_output@@@__crt_stdio_output@@IAE_NXZ 00439e24 f i libucrt:output.obj
 0001:00038e39       ?update_field_width@?$standard_base@_WV?$string_output_adapter@_W@__crt_stdio_output@@@__crt_stdio_output@@IAE_NXZ 00439e39 f i libucrt:output.obj
 0001:00038e4e       ?update_precision@?$positional_parameter_base@DV?$stream_output_adapter@D@__crt_stdio_output@@@__crt_stdio_output@@IAE_NXZ 00439e4e f i libucrt:output.obj
 0001:00038f58       ?update_precision@?$positional_parameter_base@DV?$string_output_adapter@D@__crt_stdio_output@@@__crt_stdio_output@@IAE_NXZ 00439f58 f i libucrt:output.obj
 0001:00039062       ?update_precision@?$positional_parameter_base@_WV?$stream_output_adapter@_W@__crt_stdio_output@@@__crt_stdio_output@@IAE_NXZ 0043a062 f i libucrt:output.obj
 0001:0003916d       ?update_precision@?$positional_parameter_base@_WV?$string_output_adapter@_W@__crt_stdio_output@@@__crt_stdio_output@@IAE_NXZ 0043a16d f i libucrt:output.obj
 0001:00039278       ?update_precision@?$standard_base@DV?$stream_output_adapter@D@__crt_stdio_output@@@__crt_stdio_output@@IAE_NXZ 0043a278 f i libucrt:output.obj
 0001:0003928d       ?update_precision@?$standard_base@DV?$string_output_adapter@D@__crt_stdio_output@@@__crt_stdio_output@@IAE_NXZ 0043a28d f i libucrt:output.obj
 0001:000392a2       ?update_precision@?$standard_base@_WV?$stream_output_adapter@_W@__crt_stdio_output@@@__crt_stdio_output@@IAE_NXZ 0043a2a2 f i libucrt:output.obj
 0001:000392b7       ?update_precision@?$standard_base@_WV?$string_output_adapter@_W@__crt_stdio_output@@@__crt_stdio_output@@IAE_NXZ 0043a2b7 f i libucrt:output.obj
 0001:000392cc       ?validate@?$stream_output_adapter@D@__crt_stdio_output@@QBE_NAAV__crt_cached_ptd_host@@@Z 0043a2cc f i libucrt:output.obj
 0001:00039312       ?validate@?$stream_output_adapter@_W@__crt_stdio_output@@QBE_NAAV__crt_cached_ptd_host@@@Z 0043a312 f i libucrt:output.obj
 0001:0003934f       ?validate@?$string_output_adapter@D@__crt_stdio_output@@QBE_NAAV__crt_cached_ptd_host@@@Z 0043a34f f i libucrt:output.obj
 0001:0003938c       ?validate@?$string_output_adapter@_W@__crt_stdio_output@@QBE_NAAV__crt_cached_ptd_host@@@Z 0043a38c f i libucrt:output.obj
 0001:000393c9       ?validate_and_store_parameter_data@?$positional_parameter_base@DV?$stream_output_adapter@D@__crt_stdio_output@@@__crt_stdio_output@@AAE_NAAUparameter_data@12@W4parameter_type@12@DW4length_modifier@2@@Z 0043a3c9 f i libucrt:output.obj
 0001:00039443       ?validate_and_store_parameter_data@?$positional_parameter_base@DV?$string_output_adapter@D@__crt_stdio_output@@@__crt_stdio_output@@AAE_NAAUparameter_data@12@W4parameter_type@12@DW4length_modifier@2@@Z 0043a443 f i libucrt:output.obj
 0001:000394bd       ?validate_and_store_parameter_data@?$positional_parameter_base@_WV?$stream_output_adapter@_W@__crt_stdio_output@@@__crt_stdio_output@@AAE_NAAUparameter_data@12@W4parameter_type@12@_WW4length_modifier@2@@Z 0043a4bd f i libucrt:output.obj
 0001:0003953a       ?validate_and_store_parameter_data@?$positional_parameter_base@_WV?$string_output_adapter@_W@__crt_stdio_output@@@__crt_stdio_output@@AAE_NAAUparameter_data@12@W4parameter_type@12@_WW4length_modifier@2@@Z 0043a53a f i libucrt:output.obj
 0001:000395b7       ?validate_and_update_state_at_beginning_of_format_character@?$positional_parameter_base@DV?$stream_output_adapter@D@__crt_stdio_output@@@__crt_stdio_output@@IAE_NXZ 0043a5b7 f i libucrt:output.obj
 0001:00039713       ?validate_and_update_state_at_beginning_of_format_character@?$positional_parameter_base@DV?$string_output_adapter@D@__crt_stdio_output@@@__crt_stdio_output@@IAE_NXZ 0043a713 f i libucrt:output.obj
 0001:0003986f       ?validate_and_update_state_at_beginning_of_format_character@?$positional_parameter_base@_WV?$stream_output_adapter@_W@__crt_stdio_output@@@__crt_stdio_output@@IAE_NXZ 0043a86f f i libucrt:output.obj
 0001:000399dc       ?validate_and_update_state_at_beginning_of_format_character@?$positional_parameter_base@_WV?$string_output_adapter@_W@__crt_stdio_output@@@__crt_stdio_output@@IAE_NXZ 0043a9dc f i libucrt:output.obj
 0001:00039b49       ?validate_and_update_state_at_beginning_of_format_character@?$standard_base@DV?$stream_output_adapter@D@__crt_stdio_output@@@__crt_stdio_output@@IAE_NXZ 0043ab49 f i libucrt:output.obj
 0001:00039b4c       ?validate_and_update_state_at_beginning_of_format_character@?$standard_base@DV?$string_output_adapter@D@__crt_stdio_output@@@__crt_stdio_output@@IAE_NXZ 0043ab4c f i libucrt:output.obj
 0001:00039b4f       ?validate_and_update_state_at_beginning_of_format_character@?$standard_base@_WV?$stream_output_adapter@_W@__crt_stdio_output@@@__crt_stdio_output@@IAE_NXZ 0043ab4f f i libucrt:output.obj
 0001:00039b52       ?validate_and_update_state_at_beginning_of_format_character@?$standard_base@_WV?$string_output_adapter@_W@__crt_stdio_output@@@__crt_stdio_output@@IAE_NXZ 0043ab52 f i libucrt:output.obj
 0001:00039b55       ?validate_and_update_state_at_end_of_format_string@?$format_validation_base@DV?$stream_output_adapter@D@__crt_stdio_output@@@__crt_stdio_output@@IAE_NXZ 0043ab55 f i libucrt:output.obj
 0001:00039b92       ?validate_and_update_state_at_end_of_format_string@?$format_validation_base@DV?$string_output_adapter@D@__crt_stdio_output@@@__crt_stdio_output@@IAE_NXZ 0043ab92 f i libucrt:output.obj
 0001:00039bcf       ?validate_and_update_state_at_end_of_format_string@?$format_validation_base@_WV?$stream_output_adapter@_W@__crt_stdio_output@@@__crt_stdio_output@@IAE_NXZ 0043abcf f i libucrt:output.obj
 0001:00039c0c       ?validate_and_update_state_at_end_of_format_string@?$format_validation_base@_WV?$string_output_adapter@_W@__crt_stdio_output@@@__crt_stdio_output@@IAE_NXZ 0043ac0c f i libucrt:output.obj
 0001:00039c49       ?validate_and_update_state_at_end_of_format_string@?$positional_parameter_base@DV?$stream_output_adapter@D@__crt_stdio_output@@@__crt_stdio_output@@IAE_NXZ 0043ac49 f i libucrt:output.obj
 0001:00039d31       ?validate_and_update_state_at_end_of_format_string@?$positional_parameter_base@DV?$string_output_adapter@D@__crt_stdio_output@@@__crt_stdio_output@@IAE_NXZ 0043ad31 f i libucrt:output.obj
 0001:00039e19       ?validate_and_update_state_at_end_of_format_string@?$positional_parameter_base@_WV?$stream_output_adapter@_W@__crt_stdio_output@@@__crt_stdio_output@@IAE_NXZ 0043ae19 f i libucrt:output.obj
 0001:00039f01       ?validate_and_update_state_at_end_of_format_string@?$positional_parameter_base@_WV?$string_output_adapter@_W@__crt_stdio_output@@@__crt_stdio_output@@IAE_NXZ 0043af01 f i libucrt:output.obj
 0001:00039fe9       ?validate_and_update_state_at_end_of_format_string@?$standard_base@DV?$stream_output_adapter@D@__crt_stdio_output@@@__crt_stdio_output@@IBE_NXZ 0043afe9 f i libucrt:output.obj
 0001:00039fec       ?validate_and_update_state_at_end_of_format_string@?$standard_base@DV?$string_output_adapter@D@__crt_stdio_output@@@__crt_stdio_output@@IBE_NXZ 0043afec f i libucrt:output.obj
 0001:00039fef       ?validate_and_update_state_at_end_of_format_string@?$standard_base@_WV?$stream_output_adapter@_W@__crt_stdio_output@@@__crt_stdio_output@@IBE_NXZ 0043afef f i libucrt:output.obj
 0001:00039ff2       ?validate_and_update_state_at_end_of_format_string@?$standard_base@_WV?$string_output_adapter@_W@__crt_stdio_output@@@__crt_stdio_output@@IBE_NXZ 0043aff2 f i libucrt:output.obj
 0001:00039ff5       ?validate_state_for_type_case_a@?$positional_parameter_base@DV?$stream_output_adapter@D@__crt_stdio_output@@@__crt_stdio_output@@IAE_NXZ 0043aff5 f i libucrt:output.obj
 0001:0003a06b       ?validate_state_for_type_case_a@?$positional_parameter_base@DV?$string_output_adapter@D@__crt_stdio_output@@@__crt_stdio_output@@IAE_NXZ 0043b06b f i libucrt:output.obj
 0001:0003a0e1       ?validate_state_for_type_case_a@?$positional_parameter_base@_WV?$stream_output_adapter@_W@__crt_stdio_output@@@__crt_stdio_output@@IAE_NXZ 0043b0e1 f i libucrt:output.obj
 0001:0003a157       ?validate_state_for_type_case_a@?$positional_parameter_base@_WV?$string_output_adapter@_W@__crt_stdio_output@@@__crt_stdio_output@@IAE_NXZ 0043b157 f i libucrt:output.obj
 0001:0003a1cd       ?validate_state_for_type_case_a@?$standard_base@DV?$stream_output_adapter@D@__crt_stdio_output@@@__crt_stdio_output@@IBE_NXZ 0043b1cd f i libucrt:output.obj
 0001:0003a1d0       ?validate_state_for_type_case_a@?$standard_base@DV?$string_output_adapter@D@__crt_stdio_output@@@__crt_stdio_output@@IBE_NXZ 0043b1d0 f i libucrt:output.obj
 0001:0003a1d3       ?validate_state_for_type_case_a@?$standard_base@_WV?$stream_output_adapter@_W@__crt_stdio_output@@@__crt_stdio_output@@IBE_NXZ 0043b1d3 f i libucrt:output.obj
 0001:0003a1d6       ?validate_state_for_type_case_a@?$standard_base@_WV?$string_output_adapter@_W@__crt_stdio_output@@@__crt_stdio_output@@IBE_NXZ 0043b1d6 f i libucrt:output.obj
 0001:0003a1d9       ?validate_stream_is_ansi_if_required@?$__acrt_stdio_char_traits@D@@SA_NQAU_iobuf@@@Z 0043b1d9 f i libucrt:output.obj
 0001:0003a281       ?validate_stream_is_ansi_if_required@?$__acrt_stdio_char_traits@_W@@SA_NQAU_iobuf@@@Z 0043b281 f i libucrt:output.obj
 0001:0003a284       ?wide_null_string@?$output_processor@DV?$stream_output_adapter@D@__crt_stdio_output@@V?$format_validation_base@DV?$stream_output_adapter@D@__crt_stdio_output@@@2@@__crt_stdio_output@@CAPA_WXZ 0043b284 f i libucrt:output.obj
 0001:0003a28a       ?wide_null_string@?$output_processor@DV?$stream_output_adapter@D@__crt_stdio_output@@V?$positional_parameter_base@DV?$stream_output_adapter@D@__crt_stdio_output@@@2@@__crt_stdio_output@@CAPA_WXZ 0043b28a f i libucrt:output.obj
 0001:0003a290       ?wide_null_string@?$output_processor@DV?$stream_output_adapter@D@__crt_stdio_output@@V?$standard_base@DV?$stream_output_adapter@D@__crt_stdio_output@@@2@@__crt_stdio_output@@CAPA_WXZ 0043b290 f i libucrt:output.obj
 0001:0003a296       ?wide_null_string@?$output_processor@DV?$string_output_adapter@D@__crt_stdio_output@@V?$format_validation_base@DV?$string_output_adapter@D@__crt_stdio_output@@@2@@__crt_stdio_output@@CAPA_WXZ 0043b296 f i libucrt:output.obj
 0001:0003a29c       ?wide_null_string@?$output_processor@DV?$string_output_adapter@D@__crt_stdio_output@@V?$positional_parameter_base@DV?$string_output_adapter@D@__crt_stdio_output@@@2@@__crt_stdio_output@@CAPA_WXZ 0043b29c f i libucrt:output.obj
 0001:0003a2a2       ?wide_null_string@?$output_processor@DV?$string_output_adapter@D@__crt_stdio_output@@V?$standard_base@DV?$string_output_adapter@D@__crt_stdio_output@@@2@@__crt_stdio_output@@CAPA_WXZ 0043b2a2 f i libucrt:output.obj
 0001:0003a2a8       ?wide_null_string@?$output_processor@_WV?$stream_output_adapter@_W@__crt_stdio_output@@V?$format_validation_base@_WV?$stream_output_adapter@_W@__crt_stdio_output@@@2@@__crt_stdio_output@@CAPA_WXZ 0043b2a8 f i libucrt:output.obj
 0001:0003a2ae       ?wide_null_string@?$output_processor@_WV?$stream_output_adapter@_W@__crt_stdio_output@@V?$positional_parameter_base@_WV?$stream_output_adapter@_W@__crt_stdio_output@@@2@@__crt_stdio_output@@CAPA_WXZ 0043b2ae f i libucrt:output.obj
 0001:0003a2b4       ?wide_null_string@?$output_processor@_WV?$stream_output_adapter@_W@__crt_stdio_output@@V?$standard_base@_WV?$stream_output_adapter@_W@__crt_stdio_output@@@2@@__crt_stdio_output@@CAPA_WXZ 0043b2b4 f i libucrt:output.obj
 0001:0003a2ba       ?wide_null_string@?$output_processor@_WV?$string_output_adapter@_W@__crt_stdio_output@@V?$format_validation_base@_WV?$string_output_adapter@_W@__crt_stdio_output@@@2@@__crt_stdio_output@@CAPA_WXZ 0043b2ba f i libucrt:output.obj
 0001:0003a2c0       ?wide_null_string@?$output_processor@_WV?$string_output_adapter@_W@__crt_stdio_output@@V?$positional_parameter_base@_WV?$string_output_adapter@_W@__crt_stdio_output@@@2@@__crt_stdio_output@@CAPA_WXZ 0043b2c0 f i libucrt:output.obj
 0001:0003a2c6       ?wide_null_string@?$output_processor@_WV?$string_output_adapter@_W@__crt_stdio_output@@V?$standard_base@_WV?$string_output_adapter@_W@__crt_stdio_output@@@2@@__crt_stdio_output@@CAPA_WXZ 0043b2c6 f i libucrt:output.obj
 0001:0003a2cc       ?write_character@?$output_adapter_common@DV?$stream_output_adapter@D@__crt_stdio_output@@@__crt_stdio_output@@QBEXDQAHAAV__crt_cached_ptd_host@@@Z 0043b2cc f i libucrt:output.obj
 0001:0003a2f6       ?write_character@?$output_adapter_common@_WV?$stream_output_adapter@_W@__crt_stdio_output@@@__crt_stdio_output@@QBEX_WQAHAAV__crt_cached_ptd_host@@@Z 0043b2f6 f i libucrt:output.obj
 0001:0003a320       ?write_character@?$string_output_adapter@D@__crt_stdio_output@@QBE_NDQAHAAV__crt_cached_ptd_host@@@Z 0043b320 f i libucrt:output.obj
 0001:0003a372       ?write_character@?$string_output_adapter@_W@__crt_stdio_output@@QBE_N_WQAHAAV__crt_cached_ptd_host@@@Z 0043b372 f i libucrt:output.obj
 0001:0003a3c8       ?write_character_without_count_update@?$stream_output_adapter@D@__crt_stdio_output@@QBE_NDAAV__crt_cached_ptd_host@@@Z 0043b3c8 f i libucrt:output.obj
 0001:0003a410       ?write_character_without_count_update@?$stream_output_adapter@_W@__crt_stdio_output@@QBE_N_WAAV__crt_cached_ptd_host@@@Z 0043b410 f i libucrt:output.obj
 0001:0003a45c       ?write_stored_string_tchar@?$output_processor@DV?$stream_output_adapter@D@__crt_stdio_output@@V?$format_validation_base@DV?$stream_output_adapter@D@__crt_stdio_output@@@2@@__crt_stdio_output@@AAE_ND@Z 0043b45c f i libucrt:output.obj
 0001:0003a531       ?write_stored_string_tchar@?$output_processor@DV?$stream_output_adapter@D@__crt_stdio_output@@V?$positional_parameter_base@DV?$stream_output_adapter@D@__crt_stdio_output@@@2@@__crt_stdio_output@@AAE_ND@Z 0043b531 f i libucrt:output.obj
 0001:0003a606       ?write_stored_string_tchar@?$output_processor@DV?$stream_output_adapter@D@__crt_stdio_output@@V?$standard_base@DV?$stream_output_adapter@D@__crt_stdio_output@@@2@@__crt_stdio_output@@AAE_ND@Z 0043b606 f i libucrt:output.obj
 0001:0003a6db       ?write_stored_string_tchar@?$output_processor@DV?$string_output_adapter@D@__crt_stdio_output@@V?$format_validation_base@DV?$string_output_adapter@D@__crt_stdio_output@@@2@@__crt_stdio_output@@AAE_ND@Z 0043b6db f i libucrt:output.obj
 0001:0003a7b0       ?write_stored_string_tchar@?$output_processor@DV?$string_output_adapter@D@__crt_stdio_output@@V?$positional_parameter_base@DV?$string_output_adapter@D@__crt_stdio_output@@@2@@__crt_stdio_output@@AAE_ND@Z 0043b7b0 f i libucrt:output.obj
 0001:0003a885       ?write_stored_string_tchar@?$output_processor@DV?$string_output_adapter@D@__crt_stdio_output@@V?$standard_base@DV?$string_output_adapter@D@__crt_stdio_output@@@2@@__crt_stdio_output@@AAE_ND@Z 0043b885 f i libucrt:output.obj
 0001:0003a95a       ?write_stored_string_tchar@?$output_processor@_WV?$stream_output_adapter@_W@__crt_stdio_output@@V?$format_validation_base@_WV?$stream_output_adapter@_W@__crt_stdio_output@@@2@@__crt_stdio_output@@AAE_N_W@Z 0043b95a f i libucrt:output.obj
 0001:0003aa32       ?write_stored_string_tchar@?$output_processor@_WV?$stream_output_adapter@_W@__crt_stdio_output@@V?$positional_parameter_base@_WV?$stream_output_adapter@_W@__crt_stdio_output@@@2@@__crt_stdio_output@@AAE_N_W@Z 0043ba32 f i libucrt:output.obj
 0001:0003ab0a       ?write_stored_string_tchar@?$output_processor@_WV?$stream_output_adapter@_W@__crt_stdio_output@@V?$standard_base@_WV?$stream_output_adapter@_W@__crt_stdio_output@@@2@@__crt_stdio_output@@AAE_N_W@Z 0043bb0a f i libucrt:output.obj
 0001:0003abe2       ?write_stored_string_tchar@?$output_processor@_WV?$string_output_adapter@_W@__crt_stdio_output@@V?$format_validation_base@_WV?$string_output_adapter@_W@__crt_stdio_output@@@2@@__crt_stdio_output@@AAE_N_W@Z 0043bbe2 f i libucrt:output.obj
 0001:0003acf6       ?write_stored_string_tchar@?$output_processor@_WV?$string_output_adapter@_W@__crt_stdio_output@@V?$positional_parameter_base@_WV?$string_output_adapter@_W@__crt_stdio_output@@@2@@__crt_stdio_output@@AAE_N_W@Z 0043bcf6 f i libucrt:output.obj
 0001:0003ae0a       ?write_stored_string_tchar@?$output_processor@_WV?$string_output_adapter@_W@__crt_stdio_output@@V?$standard_base@_WV?$string_output_adapter@_W@__crt_stdio_output@@@2@@__crt_stdio_output@@AAE_N_W@Z 0043be0a f i libucrt:output.obj
 0001:0003af1e       ?write_string@?$stream_output_adapter@D@__crt_stdio_output@@QBEXQBDHQAHAAV__crt_cached_ptd_host@@@Z 0043bf1e f i libucrt:output.obj
 0001:0003af55       ?write_string@?$stream_output_adapter@_W@__crt_stdio_output@@QBEXQB_WHQAHAAV__crt_cached_ptd_host@@@Z 0043bf55 f i libucrt:output.obj
 0001:0003af8c       ?write_string@?$string_output_adapter@D@__crt_stdio_output@@QBEXQBDHQAHAAV__crt_cached_ptd_host@@@Z 0043bf8c f i libucrt:output.obj
 0001:0003b00c       ?write_string@?$string_output_adapter@_W@__crt_stdio_output@@QBEXQB_WHQAHAAV__crt_cached_ptd_host@@@Z 0043c00c f i libucrt:output.obj
 0001:0003b099       ?write_string_impl@?$output_adapter_common@DV?$stream_output_adapter@D@__crt_stdio_output@@@__crt_stdio_output@@IBEXQBDHQAHAAV__crt_cached_ptd_host@@@Z 0043c099 f i libucrt:output.obj
 0001:0003b137       ?write_string_impl@?$output_adapter_common@_WV?$stream_output_adapter@_W@__crt_stdio_output@@@__crt_stdio_output@@IBEXQB_WHQAHAAV__crt_cached_ptd_host@@@Z 0043c137 f i libucrt:output.obj
 0001:0003b1d9       ___acrt_isleadbyte_l_noupdate 0043c1d9 f i libucrt:output.obj
 0001:0003b1fe       ___stdio_common_vfprintf   0043c1fe f   libucrt:output.obj
 0001:0003b2cb       ___stdio_common_vfprintf_p 0043c2cb f   libucrt:output.obj
 0001:0003b398       ___stdio_common_vfprintf_s 0043c398 f   libucrt:output.obj
 0001:0003b465       ___stdio_common_vfwprintf  0043c465 f   libucrt:output.obj
 0001:0003b532       ___stdio_common_vfwprintf_p 0043c532 f   libucrt:output.obj
 0001:0003b5ff       ___stdio_common_vfwprintf_s 0043c5ff f   libucrt:output.obj
 0001:0003b6cc       ___stdio_common_vsnprintf_s 0043c6cc f   libucrt:output.obj
 0001:0003b721       ___stdio_common_vsnwprintf_s 0043c721 f   libucrt:output.obj
 0001:0003b776       ___stdio_common_vsprintf   0043c776 f   libucrt:output.obj
 0001:0003b7c7       ___stdio_common_vsprintf_p 0043c7c7 f   libucrt:output.obj
 0001:0003b818       ___stdio_common_vsprintf_s 0043c818 f   libucrt:output.obj
 0001:0003b869       ___stdio_common_vswprintf  0043c869 f   libucrt:output.obj
 0001:0003b8ba       ___stdio_common_vswprintf_p 0043c8ba f   libucrt:output.obj
 0001:0003b90b       ___stdio_common_vswprintf_s 0043c90b f   libucrt:output.obj
 0001:0003b95c       __isdigit_fast_internal    0043c95c f i libucrt:output.obj
 0001:0003bd4d       __time32                   0043cd4d f   libucrt:time.obj
 0001:0003bdc3       __time64                   0043cdc3 f   libucrt:time.obj
 0001:0003be45       __timespec32_get           0043ce45 f   libucrt:time.obj
 0001:0003be52       __timespec64_get           0043ce52 f   libucrt:time.obj
 0001:0003be5f       ___acrt_initialize_command_line 0043ce5f f   libucrt:argv_data.obj
 0001:0003be7e       ___acrt_uninitialize_command_line 0043ce7e f   libucrt:argv_data.obj
 0001:0003be81       ___p___argc                0043ce81 f   libucrt:argv_data.obj
 0001:0003be87       ___p___argv                0043ce87 f   libucrt:argv_data.obj
 0001:0003be8d       ___p___wargv               0043ce8d f   libucrt:argv_data.obj
 0001:0003be93       ___p__acmdln               0043ce93 f   libucrt:argv_data.obj
 0001:0003be99       ___p__pgmptr               0043ce99 f   libucrt:argv_data.obj
 0001:0003be9f       ___p__wcmdln               0043ce9f f   libucrt:argv_data.obj
 0001:0003bea5       ___p__wpgmptr              0043cea5 f   libucrt:argv_data.obj
 0001:0003beab       __get_pgmptr               0043ceab f   libucrt:argv_data.obj
 0001:0003bee8       __get_wpgmptr              0043cee8 f   libucrt:argv_data.obj
 0001:0003c6bb       ??$get_or_create_environment_nolock@$$V@?$__crt_char_traits@D@@SAPAPADXZ 0043d6bb f i libucrt:getenv.obj
 0001:0003c6c0       ??$get_or_create_environment_nolock@$$V@?$__crt_char_traits@_W@@SAPAPA_WXZ 0043d6c0 f i libucrt:getenv.obj
 0001:0003c6c5       ??$tcscpy_s@AAPADABIABQBD@?$__crt_char_traits@D@@SAHAAPADABIABQBD@Z 0043d6c5 f i libucrt:getenv.obj
 0001:0003c6ea       ??$tcscpy_s@AAPA_WABIABQB_W@?$__crt_char_traits@_W@@SAHAAPA_WABIABQB_W@Z 0043d6ea f i libucrt:getenv.obj
 0001:0003c70f       ??$tcscpy_s@ABQADABIABQBD@?$__crt_char_traits@D@@SAHABQADABIABQBD@Z 0043d70f f i libucrt:getenv.obj
 0001:0003c734       ??$tcscpy_s@ABQA_WABIABQB_W@?$__crt_char_traits@_W@@SAHABQA_WABIABQB_W@Z 0043d734 f i libucrt:getenv.obj
 0001:0003c759       ??$tcslen@AAPAD@?$__crt_char_traits@D@@SAIAAPAD@Z 0043d759 f i libucrt:getenv.obj
 0001:0003c777       ??$tcslen@AAPA_W@?$__crt_char_traits@_W@@SAIAAPA_W@Z 0043d777 f i libucrt:getenv.obj
 0001:0003c79c       ??$tcslen@ABQBD@?$__crt_char_traits@D@@SAIABQBD@Z 0043d79c f i libucrt:getenv.obj
 0001:0003c7ba       ??$tcslen@ABQB_W@?$__crt_char_traits@_W@@SAIABQB_W@Z 0043d7ba f i libucrt:getenv.obj
 0001:0003c7df       ??$tcsnicoll@AAPADABQBDABI@?$__crt_char_traits@D@@SAHAAPADABQBDABI@Z 0043d7df f i libucrt:getenv.obj
 0001:0003c804       ??$tcsnicoll@AAPA_WABQB_WABI@?$__crt_char_traits@_W@@SAHAAPA_WABQB_WABI@Z 0043d804 f i libucrt:getenv.obj
 0001:0003c829       ??$tcsnlen@ABQBDH@?$__crt_char_traits@D@@SAIABQBD$$QAH@Z 0043d829 f i libucrt:getenv.obj
 0001:0003c847       ??$tcsnlen@ABQB_WH@?$__crt_char_traits@_W@@SAIABQB_W$$QAH@Z 0043d847 f i libucrt:getenv.obj
 0001:0003c865       __dupenv_s                 0043d865 f   libucrt:getenv.obj
 0001:0003c88a       __invoke_watson_if_error   0043d88a f i libucrt:getenv.obj
 0001:0003c8b4       __wdupenv_s                0043d8b4 f   libucrt:getenv.obj
 0001:0003c8d9       __wgetenv                  0043d8d9 f   libucrt:getenv.obj
 0001:0003c8e6       __wgetenv_s                0043d8e6 f   libucrt:getenv.obj
 0001:0003c8f3       _getenv                    0043d8f3 f   libucrt:getenv.obj
 0001:0003c900       _getenv_s                  0043d900 f   libucrt:getenv.obj
 0001:0003c910       _strlen                    0043d910 f   libucrt:strlen.obj
 0001:0003c9ea       __seh_filter_dll           0043d9ea f   libucrt:exception_filter.obj
 0001:0003ca12       __seh_filter_exe           0043da12 f   libucrt:exception_filter.obj
 0001:0003cc6f       ___acrt_report_runtime_error 0043dc6f f   libucrt:report_runtime_error.obj
 0001:0003cdc9       __query_app_type           0043ddc9 f   libucrt:report_runtime_error.obj
 0001:0003cdcf       __set_app_type             0043ddcf f   libucrt:report_runtime_error.obj
 0001:0003cde1       ??$__crt_fast_decode_pointer@P6AHPAU_exception@@@Z@@YAP6AHPAU_exception@@@ZQ6AH0@Z@Z 0043dde1 f i libucrt:matherr.obj
 0001:0003ce02       ??$__crt_fast_encode_pointer@P6AHPAU_exception@@@Z@@YAP6AHPAU_exception@@@ZQ6AH0@Z@Z 0043de02 f i libucrt:matherr.obj
 0001:0003ce28       ?__crt_rotate_pointer_value@@YAIIH@Z 0043de28 f i libucrt:matherr.obj
 0001:0003ce3a       ?get_current_state_index@__crt_state_management@@YAIXZ 0043de3a f i libucrt:matherr.obj
 0001:0003ce3d       ?initialize@?$dual_state_global@P6AHPAU_exception@@@Z@__crt_state_management@@QAEXQ6AHPAU_exception@@@Z@Z 0043de3d f i libucrt:matherr.obj
 0001:0003ce60       ?value@?$dual_state_global@P6AHPAU_exception@@@Z@__crt_state_management@@QAEAAP6AHPAU_exception@@@ZXZ 0043de60 f i libucrt:matherr.obj
 0001:0003ce63       ___acrt_has_user_matherr   0043de63 f   libucrt:matherr.obj
 0001:0003ce87       ___acrt_initialize_user_matherr 0043de87 f   libucrt:matherr.obj
 0001:0003ce99       ___acrt_invoke_user_matherr 0043de99 f   libucrt:matherr.obj
 0001:0003cedc       ___setusermatherr          0043dedc f   libucrt:matherr.obj
 0001:0003cef6       ??$?RE@__crt_internal_free_policy@@QBEXQBE@Z 0043def6 f i libucrt:argv_parsing.obj
 0001:0003cf0c       ??$?RPAD@__crt_internal_free_policy@@QBEXQBQAD@Z 0043df0c f i libucrt:argv_parsing.obj
 0001:0003cf22       ??$?RPA_W@__crt_internal_free_policy@@QBEXQBQA_W@Z 0043df22 f i libucrt:argv_parsing.obj
 0001:0003d247       ??$get_module_file_name@$$TAAY0BAF@DH@?$__crt_char_traits@D@@SAK$$QA$$TAAY0BAF@D$$QAH@Z 0043e247 f i libucrt:argv_parsing.obj
 0001:0003d26a       ??$get_module_file_name@$$TAAY0BAF@_WH@?$__crt_char_traits@_W@@SAK$$QA$$TAAY0BAF@_W$$QAH@Z 0043e26a f i libucrt:argv_parsing.obj
 0001:0003d664       ??$set_program_name@PAD@?$__crt_char_traits@D@@SAX$$QAPAD@Z 0043e664 f i libucrt:argv_parsing.obj
 0001:0003d679       ??$set_program_name@PA_W@?$__crt_char_traits@_W@@SAX$$QAPA_W@Z 0043e679 f i libucrt:argv_parsing.obj
 0001:0003d6b6       ??0?$__crt_unique_heap_ptr@EU__crt_internal_free_policy@@@@QAE@QAE@Z 0043e6b6 f i libucrt:argv_parsing.obj
 0001:0003d6ca       ??0?$__crt_unique_heap_ptr@PADU__crt_internal_free_policy@@@@QAE@QAPAD@Z 0043e6ca f i libucrt:argv_parsing.obj
 0001:0003d6de       ??0?$__crt_unique_heap_ptr@PA_WU__crt_internal_free_policy@@@@QAE@QAPA_W@Z 0043e6de f i libucrt:argv_parsing.obj
 0001:0003d6f2       ??1?$__crt_unique_heap_ptr@EU__crt_internal_free_policy@@@@QAE@XZ 0043e6f2 f i libucrt:argv_parsing.obj
 0001:0003d708       ??1?$__crt_unique_heap_ptr@PADU__crt_internal_free_policy@@@@QAE@XZ 0043e708 f i libucrt:argv_parsing.obj
 0001:0003d71e       ??1?$__crt_unique_heap_ptr@PA_WU__crt_internal_free_policy@@@@QAE@XZ 0043e71e f i libucrt:argv_parsing.obj
 0001:0003d734       ??B?$__crt_unique_heap_ptr@EU__crt_internal_free_policy@@@@QBE_NXZ 0043e734 f i libucrt:argv_parsing.obj
 0001:0003d771       ?detach@?$__crt_unique_heap_ptr@EU__crt_internal_free_policy@@@@QAEPAEXZ 0043e771 f i libucrt:argv_parsing.obj
 0001:0003d777       ?detach@?$__crt_unique_heap_ptr@PADU__crt_internal_free_policy@@@@QAEPAPADXZ 0043e777 f i libucrt:argv_parsing.obj
 0001:0003d77d       ?detach@?$__crt_unique_heap_ptr@PA_WU__crt_internal_free_policy@@@@QAEPAPA_WXZ 0043e77d f i libucrt:argv_parsing.obj
 0001:0003d7a5       ?get@?$__crt_unique_heap_ptr@EU__crt_internal_free_policy@@@@QBEPAEXZ 0043e7a5 f i libucrt:argv_parsing.obj
 0001:0003d7a8       ?get@?$__crt_unique_heap_ptr@PADU__crt_internal_free_policy@@@@QBEPAPADXZ 0043e7a8 f i libucrt:argv_parsing.obj
 0001:0003d7ab       ?get@?$__crt_unique_heap_ptr@PA_WU__crt_internal_free_policy@@@@QBEPAPA_WXZ 0043e7ab f i libucrt:argv_parsing.obj
 0001:0003d7ae       ?get_address_of@?$__crt_unique_heap_ptr@PADU__crt_internal_free_policy@@@@QAEPAPAPADXZ 0043e7ae f i libucrt:argv_parsing.obj
 0001:0003d7b1       ?get_address_of@?$__crt_unique_heap_ptr@PA_WU__crt_internal_free_policy@@@@QAEPAPAPA_WXZ 0043e7b1 f i libucrt:argv_parsing.obj
 0001:0003d7cc       ?is_valid@?$__crt_unique_heap_ptr@EU__crt_internal_free_policy@@@@QBE_NXZ 0043e7cc f i libucrt:argv_parsing.obj
 0001:0003d7d3       ?release@?$__crt_unique_heap_ptr@EU__crt_internal_free_policy@@@@QAEXXZ 0043e7d3 f i libucrt:argv_parsing.obj
 0001:0003d7e9       ?release@?$__crt_unique_heap_ptr@PADU__crt_internal_free_policy@@@@QAEXXZ 0043e7e9 f i libucrt:argv_parsing.obj
 0001:0003d7ff       ?release@?$__crt_unique_heap_ptr@PA_WU__crt_internal_free_policy@@@@QAEXXZ 0043e7ff f i libucrt:argv_parsing.obj
 0001:0003d834       ___acrt_allocate_buffer_for_argv 0043e834 f   libucrt:argv_parsing.obj
 0001:0003d896       __configure_narrow_argv    0043e896 f   libucrt:argv_parsing.obj
 0001:0003d8a3       __configure_wide_argv      0043e8a3 f   libucrt:argv_parsing.obj
 0001:0003d8b0       __set_pgmptr               0043e8b0 f i libucrt:argv_parsing.obj
 0001:0003d8c2       __set_wpgmptr              0043e8c2 f i libucrt:argv_parsing.obj
 0001:0003d8d4       ??$?R_W@__crt_internal_free_policy@@QBEXQB_W@Z 0043e8d4 f i libucrt:environment_initialization.obj
 0001:0003ddf3       ??$get_environment_from_os@$$V@?$__crt_char_traits@D@@SAPADXZ 0043edf3 f i libucrt:environment_initialization.obj
 0001:0003ddf8       ??$get_environment_from_os@$$V@?$__crt_char_traits@_W@@SAPA_WXZ 0043edf8 f i libucrt:environment_initialization.obj
 0001:0003df41       ??$set_variable_in_environment_nolock@PADH@?$__crt_char_traits@D@@SAH$$QAPAD$$QAH@Z 0043ef41 f i libucrt:environment_initialization.obj
 0001:0003df5f       ??$set_variable_in_environment_nolock@PA_WH@?$__crt_char_traits@_W@@SAH$$QAPA_W$$QAH@Z 0043ef5f f i libucrt:environment_initialization.obj
 0001:0003df7d       ??$tcscpy_s@PADABIAAPAD@?$__crt_char_traits@D@@SAH$$QAPADABIAAPAD@Z 0043ef7d f i libucrt:environment_initialization.obj
 0001:0003dfa2       ??$tcscpy_s@PA_WABIAAPA_W@?$__crt_char_traits@_W@@SAH$$QAPA_WABIAAPA_W@Z 0043efa2 f i libucrt:environment_initialization.obj
 0001:0003dfc7       ??$uninitialize@A6AXAAPAPAD@_E@?$dual_state_global@PAPAD@__crt_state_management@@QAEXA6AXAAPAPAD@_E@Z 0043efc7 f i libucrt:environment_initialization.obj
 0001:0003e035       ??$uninitialize@A6AXAAPAPA_W@_E@?$dual_state_global@PAPA_W@__crt_state_management@@QAEXA6AXAAPAPA_W@_E@Z 0043f035 f i libucrt:environment_initialization.obj
 0001:0003e0e5       ??0?$__crt_unique_heap_ptr@_WU__crt_internal_free_policy@@@@QAE@QA_W@Z 0043f0e5 f i libucrt:environment_initialization.obj
 0001:0003e0f9       ??1?$__crt_unique_heap_ptr@_WU__crt_internal_free_policy@@@@QAE@XZ 0043f0f9 f i libucrt:environment_initialization.obj
 0001:0003e10f       ??B?$__crt_unique_heap_ptr@PADU__crt_internal_free_policy@@@@QBE_NXZ 0043f10f f i libucrt:environment_initialization.obj
 0001:0003e116       ??B?$__crt_unique_heap_ptr@PA_WU__crt_internal_free_policy@@@@QBE_NXZ 0043f116 f i libucrt:environment_initialization.obj
 0001:0003e11d       ??B?$__crt_unique_heap_ptr@_WU__crt_internal_free_policy@@@@QBE_NXZ 0043f11d f i libucrt:environment_initialization.obj
 0001:0003e124       ?__crt_compute_required_transform_buffer_count@@YAIIQBD@Z 0043f124 f i libucrt:environment_initialization.obj
 0001:0003e147       ?__crt_compute_required_transform_buffer_count@@YAIIQB_W@Z 0043f147 f i libucrt:environment_initialization.obj
 0001:0003e16c       ?__crt_transform_string@@YAIIQBDQA_WI@Z 0043f16c f i libucrt:environment_initialization.obj
 0001:0003e192       ?__crt_transform_string@@YAIIQB_WQADI@Z 0043f192 f i libucrt:environment_initialization.obj
 0001:0003e1bc       ?detach@?$__crt_unique_heap_ptr@DU__crt_internal_free_policy@@@@QAEPADXZ 0043f1bc f i libucrt:environment_initialization.obj
 0001:0003e1c2       ?detach@?$__crt_unique_heap_ptr@_WU__crt_internal_free_policy@@@@QAEPA_WXZ 0043f1c2 f i libucrt:environment_initialization.obj
 0001:0003e1c8       ?get@?$__crt_unique_heap_ptr@_WU__crt_internal_free_policy@@@@QBEPA_WXZ 0043f1c8 f i libucrt:environment_initialization.obj
 0001:0003e1ef       ?initialize@?$dual_state_global@PAPAD@__crt_state_management@@QAEXQAPAD@Z 0043f1ef f i libucrt:environment_initialization.obj
 0001:0003e212       ?initialize@?$dual_state_global@PAPA_W@__crt_state_management@@QAEXQAPA_W@Z 0043f212 f i libucrt:environment_initialization.obj
 0001:0003e235       ?is_valid@?$__crt_unique_heap_ptr@PADU__crt_internal_free_policy@@@@QBE_NXZ 0043f235 f i libucrt:environment_initialization.obj
 0001:0003e23c       ?is_valid@?$__crt_unique_heap_ptr@PA_WU__crt_internal_free_policy@@@@QBE_NXZ 0043f23c f i libucrt:environment_initialization.obj
 0001:0003e243       ?is_valid@?$__crt_unique_heap_ptr@_WU__crt_internal_free_policy@@@@QBE_NXZ 0043f243 f i libucrt:environment_initialization.obj
 0001:0003e252       ?release@?$__crt_unique_heap_ptr@_WU__crt_internal_free_policy@@@@QAEXXZ 0043f252 f i libucrt:environment_initialization.obj
 0001:0003e268       ?value@?$dual_state_global@PAPAD@__crt_state_management@@QAEAAPAPADXZ 0043f268 f i libucrt:environment_initialization.obj
 0001:0003e26b       ?value@?$dual_state_global@PAPA_W@__crt_state_management@@QAEAAPAPA_WXZ 0043f26b f i libucrt:environment_initialization.obj
 0001:0003e26e       ___dcrt_get_or_create_narrow_environment_nolock 0043f26e f   libucrt:environment_initialization.obj
 0001:0003e273       ___dcrt_get_or_create_wide_environment_nolock 0043f273 f   libucrt:environment_initialization.obj
 0001:0003e278       ___dcrt_uninitialize_environments_nolock 0043f278 f   libucrt:environment_initialization.obj
 0001:0003e2dd       ___p__environ              0043f2dd f   libucrt:environment_initialization.obj
 0001:0003e2e3       ___p__wenviron             0043f2e3 f   libucrt:environment_initialization.obj
 0001:0003e2e9       __get_initial_narrow_environment 0043f2e9 f   libucrt:environment_initialization.obj
 0001:0003e302       __get_initial_wide_environment 0043f302 f   libucrt:environment_initialization.obj
 0001:0003e31b       __initialize_narrow_environment 0043f31b f   libucrt:environment_initialization.obj
 0001:0003e320       __initialize_wide_environment 0043f320 f   libucrt:environment_initialization.obj
 0001:0003e325       __initterm                 0043f325 f   libucrt:initterm.obj
 0001:0003e35a       __initterm_e               0043f35a f   libucrt:initterm.obj
 0001:0003e393       ??$?B$$A6GXPAXK0@Z@__crt_fast_encoded_nullptr_t@@QBEP6GXPAXK0@ZXZ 0043f393 f i libucrt:exit.obj
 0001:0003e463       ??$__crt_fast_decode_pointer@P6GXPAXK0@Z@@YAP6GXPAXK0@ZQ6GX0K0@Z@Z 0043f463 f i libucrt:exit.obj
 0001:0003e484       ??$__crt_fast_encode_pointer@P6GXPAXK0@Z@@YAP6GXPAXK0@ZQ6GX0K0@Z@Z 0043f484 f i libucrt:exit.obj
 0001:0003e4aa       ??$__crt_get_proc_address@P6GXI@Z@@YAP6GXI@ZQAUHINSTANCE__@@QBD@Z 0043f4aa f i libucrt:exit.obj
 0001:0003e510       ??0?$__crt_unique_handle_t@U__crt_hmodule_traits@@@@QAE@QAUHINSTANCE__@@@Z 0043f510 f i libucrt:exit.obj
 0001:0003e524       ??1?$__crt_unique_handle_t@U__crt_hmodule_traits@@@@QAE@XZ 0043f524 f i libucrt:exit.obj
 0001:0003e678       ?__acrt_select_exit_lock@@YA?AW4__acrt_lock_id@@XZ 0043f678 f i libucrt:exit.obj
 0001:0003e67c       ?__crt_fast_encode_pointer@@YA?AU__crt_fast_encoded_nullptr_t@@$$T@Z 0043f67c f i libucrt:exit.obj
 0001:0003e6a0       ?close@?$__crt_unique_handle_t@U__crt_hmodule_traits@@@@QAEXXZ 0043f6a0 f i libucrt:exit.obj
 0001:0003e6bc       ?close@__crt_hmodule_traits@@SA_NPAUHINSTANCE__@@@Z 0043f6bc f i libucrt:exit.obj
 0001:0003e7cf       ?get@?$__crt_unique_handle_t@U__crt_hmodule_traits@@@@QBEPAUHINSTANCE__@@XZ 0043f7cf f i libucrt:exit.obj
 0001:0003e7d2       ?get_address_of@?$__crt_unique_handle_t@U__crt_hmodule_traits@@@@QAEPAPAUHINSTANCE__@@XZ 0043f7d2 f i libucrt:exit.obj
 0001:0003e7d5       ?get_invalid_value@__crt_hmodule_traits@@SAPAUHINSTANCE__@@XZ 0043f7d5 f i libucrt:exit.obj
 0001:0003e8eb       __Exit                     0043f8eb f   libucrt:exit.obj
 0001:0003e906       ___acrt_initialize_thread_local_exit_callback 0043f906 f   libucrt:exit.obj
 0001:0003e918       __c_exit                   0043f918 f   libucrt:exit.obj
 0001:0003e92a       __cexit                    0043f92a f   libucrt:exit.obj
 0001:0003e93c       __exit                     0043f93c f   libucrt:exit.obj
 0001:0003e957       __is_c_termination_complete 0043f957 f   libucrt:exit.obj
 0001:0003e95e       __register_thread_local_exe_atexit_callback 0043f95e f   libucrt:exit.obj
 0001:0003e98d       _exit                      0043f98d f   libucrt:exit.obj
 0001:0003e9a8       _quick_exit                0043f9a8 f   libucrt:exit.obj
 0001:0003e9c3       ??$__crt_interlocked_read@H@@YAHPDH@Z 0043f9c3 f i libucrt:setmode.obj
 0001:0003e9d3       ?value@?$dual_state_global@H@__crt_state_management@@QAEAAHXZ 0043f9d3 f i libucrt:setmode.obj
 0001:0003e9d6       __get_fmode                0043f9d6 f   libucrt:setmode.obj
 0001:0003ea0e       __set_fmode                0043fa0e f   libucrt:setmode.obj
 0001:0003ea5a       __setmode                  0043fa5a f   libucrt:setmode.obj
 0001:0003ebc2       __setmode_nolock           0043fbc2 f   libucrt:setmode.obj
 0001:0003ecc7       ??$?RU__crt_locale_data@@@__crt_internal_free_policy@@QBEXQBU__crt_locale_data@@@Z 0043fcc7 f i libucrt:wsetlocale.obj
 0001:0003ecdd       ??$?RU__crt_locale_pointers@@@__crt_internal_free_policy@@QBEXQBU__crt_locale_pointers@@@Z 0043fcdd f i libucrt:wsetlocale.obj
 0001:0003ecf3       ??$?RU__crt_multibyte_data@@@__crt_internal_free_policy@@QBEXQBU__crt_multibyte_data@@@Z 0043fcf3 f i libucrt:wsetlocale.obj
 0001:0003f17d       ??0?$__crt_unique_heap_ptr@U__crt_locale_data@@U__crt_internal_free_policy@@@@QAE@QAU__crt_locale_data@@@Z 0044017d f i libucrt:wsetlocale.obj
 0001:0003f191       ??0?$__crt_unique_heap_ptr@U__crt_locale_pointers@@U__crt_internal_free_policy@@@@QAE@QAU__crt_locale_pointers@@@Z 00440191 f i libucrt:wsetlocale.obj
 0001:0003f1a5       ??0?$__crt_unique_heap_ptr@U__crt_multibyte_data@@U__crt_internal_free_policy@@@@QAE@QAU__crt_multibyte_data@@@Z 004401a5 f i libucrt:wsetlocale.obj
 0001:0003f1b9       ??0_expandlocale_locale_name_cache@@QAE@QA_WIQAU__crt_qualified_locale_data@@@Z 004401b9 f i libucrt:wsetlocale.obj
 0001:0003f215       ??1?$__crt_unique_heap_ptr@U__crt_locale_data@@U__crt_internal_free_policy@@@@QAE@XZ 00440215 f i libucrt:wsetlocale.obj
 0001:0003f22b       ??1?$__crt_unique_heap_ptr@U__crt_locale_pointers@@U__crt_internal_free_policy@@@@QAE@XZ 0044022b f i libucrt:wsetlocale.obj
 0001:0003f241       ??1?$__crt_unique_heap_ptr@U__crt_multibyte_data@@U__crt_internal_free_policy@@@@QAE@XZ 00440241 f i libucrt:wsetlocale.obj
 0001:0003f257       ??1_expandlocale_locale_name_cache@@QAE@XZ 00440257 f i libucrt:wsetlocale.obj
 0001:0003f293       ??B?$__crt_unique_heap_ptr@U__crt_locale_data@@U__crt_internal_free_policy@@@@QBE_NXZ 00440293 f i libucrt:wsetlocale.obj
 0001:0003f29a       ??B?$__crt_unique_heap_ptr@U__crt_locale_pointers@@U__crt_internal_free_policy@@@@QBE_NXZ 0044029a f i libucrt:wsetlocale.obj
 0001:0003f2a1       ??B?$__crt_unique_heap_ptr@U__crt_multibyte_data@@U__crt_internal_free_policy@@@@QBE_NXZ 004402a1 f i libucrt:wsetlocale.obj
 0001:0003f542       ?commit_locale_name@_expandlocale_locale_name_cache@@QAEXQB_WI@Z 00440542 f i libucrt:wsetlocale.obj
 0001:0003f597       ?commit_locale_name_cache_already_updated@_expandlocale_locale_name_cache@@QAEXQB_WI@Z 00440597 f i libucrt:wsetlocale.obj
 0001:0003f5d9       ?detach@?$__crt_unique_heap_ptr@U__crt_locale_data@@U__crt_internal_free_policy@@@@QAEPAU__crt_locale_data@@XZ 004405d9 f i libucrt:wsetlocale.obj
 0001:0003f5df       ?detach@?$__crt_unique_heap_ptr@U__crt_locale_pointers@@U__crt_internal_free_policy@@@@QAEPAU__crt_locale_pointers@@XZ 004405df f i libucrt:wsetlocale.obj
 0001:0003f5e5       ?detach@?$__crt_unique_heap_ptr@U__crt_multibyte_data@@U__crt_internal_free_policy@@@@QAEPAU__crt_multibyte_data@@XZ 004405e5 f i libucrt:wsetlocale.obj
 0001:0003f5eb       ?get@?$__crt_unique_heap_ptr@U__crt_locale_data@@U__crt_internal_free_policy@@@@QBEPAU__crt_locale_data@@XZ 004405eb f i libucrt:wsetlocale.obj
 0001:0003f5ee       ?get@?$__crt_unique_heap_ptr@U__crt_locale_pointers@@U__crt_internal_free_policy@@@@QBEPAU__crt_locale_pointers@@XZ 004405ee f i libucrt:wsetlocale.obj
 0001:0003f5f1       ?get@?$__crt_unique_heap_ptr@U__crt_multibyte_data@@U__crt_internal_free_policy@@@@QBEPAU__crt_multibyte_data@@XZ 004405f1 f i libucrt:wsetlocale.obj
 0001:0003f5f4       ?is_valid@?$__crt_unique_heap_ptr@U__crt_locale_data@@U__crt_internal_free_policy@@@@QBE_NXZ 004405f4 f i libucrt:wsetlocale.obj
 0001:0003f5fb       ?is_valid@?$__crt_unique_heap_ptr@U__crt_locale_pointers@@U__crt_internal_free_policy@@@@QBE_NXZ 004405fb f i libucrt:wsetlocale.obj
 0001:0003f602       ?is_valid@?$__crt_unique_heap_ptr@U__crt_multibyte_data@@U__crt_internal_free_policy@@@@QBE_NXZ 00440602 f i libucrt:wsetlocale.obj
 0001:0003f609       ?release@?$__crt_unique_heap_ptr@U__crt_locale_data@@U__crt_internal_free_policy@@@@QAEXXZ 00440609 f i libucrt:wsetlocale.obj
 0001:0003f61f       ?release@?$__crt_unique_heap_ptr@U__crt_locale_pointers@@U__crt_internal_free_policy@@@@QAEXXZ 0044061f f i libucrt:wsetlocale.obj
 0001:0003f635       ?release@?$__crt_unique_heap_ptr@U__crt_multibyte_data@@U__crt_internal_free_policy@@@@QAEXXZ 00440635 f i libucrt:wsetlocale.obj
 0001:0003f64b       ?value@?$dual_state_global@PAU__crt_locale_data@@@__crt_state_management@@QAEAAPAU__crt_locale_data@@XZ 0044064b f i libucrt:wsetlocale.obj
 0001:0003f64e       ___acrt_copy_locale_name   0044064e f   libucrt:wsetlocale.obj
 0001:0003f6c6       ___acrt_set_locale_changed 004406c6 f   libucrt:wsetlocale.obj
 0001:0003f6d3       ___acrt_uninitialize_locale 004406d3 f   libucrt:wsetlocale.obj
 0001:0003f703       ___ascii_towlower          00440703 f i libucrt:wsetlocale.obj
 0001:0003f71f       ___lc_lctowcs              0044071f f   libucrt:wsetlocale.obj
 0001:0003f7ab       ___lc_wcstolc              004407ab f   libucrt:wsetlocale.obj
 0001:0003f937       __configthreadlocale       00440937 f   libucrt:wsetlocale.obj
 0001:0003f9eb       __create_locale            004409eb f   libucrt:wsetlocale.obj
 0001:0003ff1f       __free_locale              00440f1f f   libucrt:wsetlocale.obj
 0001:00040011       __get_current_locale       00441011 f   libucrt:wsetlocale.obj
 0001:000400d2       __wcreate_locale           004410d2 f   libucrt:wsetlocale.obj
 0001:0004021a       __wcscats                  0044121a f   libucrt:wsetlocale.obj
 0001:0004026b       __wsetlocale               0044126b f   libucrt:wsetlocale.obj
 0001:00041342       ?value@?$dual_state_global@J@__crt_state_management@@QAEAAJXZ 00442342 f i libucrt:new_mode.obj
 0001:00041345       __query_new_mode           00442345 f   libucrt:new_mode.obj
 0001:0004134c       __set_new_mode             0044234c f   libucrt:new_mode.obj
 0001:00041386       ___p__commode              00442386 f   libucrt:ncommode.obj
 0001:0004138c       ??$?B$$A6AXXZ@__crt_fast_encoded_nullptr_t@@QBEP6AXXZXZ 0044238c f i libucrt:onexit.obj
 0001:00041392       ??$?BP6AXXZ@__crt_fast_encoded_nullptr_t@@QBEPAP6AXXZXZ 00442392 f i libucrt:onexit.obj
 0001:00041398       ??$?RP6AXXZ@__crt_internal_free_policy@@QBEXQBQ6AXXZ@Z 00442398 f i libucrt:onexit.obj
 0001:00041529       ??$__crt_fast_decode_pointer@P6AXXZ@@YAP6AXXZQ6AXXZ@Z 00442529 f i libucrt:onexit.obj
 0001:0004154a       ??$__crt_fast_decode_pointer@PAP6AXXZ@@YAPAP6AXXZQAP6AXXZ@Z 0044254a f i libucrt:onexit.obj
 0001:0004156b       ??$__crt_fast_encode_pointer@P6AHXZ@@YAP6AHXZQ6AHXZ@Z 0044256b f i libucrt:onexit.obj
 0001:00041591       ??$__crt_fast_encode_pointer@P6AXXZ@@YAP6AXXZQ6AXXZ@Z 00442591 f i libucrt:onexit.obj
 0001:000415b7       ??$__crt_fast_encode_pointer@PAP6AXXZ@@YAPAP6AXXZQAP6AXXZ@Z 004425b7 f i libucrt:onexit.obj
 0001:00041664       ??0?$__crt_unique_heap_ptr@P6AXXZU__crt_internal_free_policy@@@@QAE@QAP6AXXZ@Z 00442664 f i libucrt:onexit.obj
 0001:00041678       ??1?$__crt_unique_heap_ptr@P6AXXZU__crt_internal_free_policy@@@@QAE@XZ 00442678 f i libucrt:onexit.obj
 0001:0004168e       ??1scoped_global_state_reset@__crt_state_management@@QAE@XZ 0044268e f i libucrt:onexit.obj
 0001:0004190f       ?detach@?$__crt_unique_heap_ptr@P6AXXZU__crt_internal_free_policy@@@@QAEPAP6AXXZXZ 0044290f f i libucrt:onexit.obj
 0001:00041915       ?release@?$__crt_unique_heap_ptr@P6AXXZU__crt_internal_free_policy@@@@QAEXXZ 00442915 f i libucrt:onexit.obj
 0001:0004192b       __crt_at_quick_exit        0044292b f   libucrt:onexit.obj
 0001:00041946       __crt_atexit               00442946 f   libucrt:onexit.obj
 0001:00041961       __execute_onexit_table     00442961 f   libucrt:onexit.obj
 0001:000419ae       __initialize_onexit_table  004429ae f   libucrt:onexit.obj
 0001:000419e1       __register_onexit_function 004429e1 f   libucrt:onexit.obj
 0001:00041b2d       ??$?BX@__crt_fast_encoded_nullptr_t@@QBEPAXXZ 00442b2d f i libucrt:initialization.obj
 0001:00041b33       ??$__crt_fast_encode_pointer@PAX@@YAPAXQAX@Z 00442b33 f i libucrt:initialization.obj
 0001:00041bbf       ?__acrt_stdio_is_initialized@@YA_NXZ 00442bbf f i libucrt:initialization.obj
 0001:00041bcc       ?initialize@?$dual_state_global@PAU__crt_locale_data@@@__crt_state_management@@QAEXQAU__crt_locale_data@@@Z 00442bcc f i libucrt:initialization.obj
 0001:00041bef       ___acrt_initialize         00442bef f   libucrt:initialization.obj
 0001:00041c05       ___acrt_thread_attach      00442c05 f   libucrt:initialization.obj
 0001:00041c12       ___acrt_thread_detach      00442c12 f   libucrt:initialization.obj
 0001:00041c1c       ___acrt_uninitialize       00442c1c f   libucrt:initialization.obj
 0001:00041c58       ___acrt_uninitialize_critical 00442c58 f   libucrt:initialization.obj
 0001:00041c6e       __controlfp_s              00442c6e f   libucrt:contrlfp.obj
 0001:00041cff       __get_terminate            00442cff f   libucrt:terminate.obj
 0001:00041d15       _set_terminate             00442d15 f   libucrt:terminate.obj
 0001:00041d3d       _terminate                 00442d3d f   libucrt:terminate.obj
 0001:00041d88       _free                      00442d88 f   libucrt:free.obj
 0001:00041da9       _malloc                    00442da9 f   libucrt:malloc.obj
 0001:00041e26       _strcpy_s                  00442e26 f   libucrt:strcpy_s.obj
 0001:00041e96       _calloc                    00442e96 f   libucrt:calloc.obj
 0001:00041ea3       _wcsncmp                   00442ea3 f   libucrt:wcsncmp.obj
 0001:00041eeb       __isctype                  00442eeb f   libucrt:isctype.obj
 0001:00041f2a       __isctype_l                00442f2a f   libucrt:isctype.obj
 0001:00042027       ??$?RU__acrt_ptd@@@__crt_internal_free_policy@@QBEXQBU__acrt_ptd@@@Z 00443027 f i libucrt:per_thread_data.obj
 0001:000423c5       ??0?$__crt_unique_heap_ptr@U__acrt_ptd@@U__crt_internal_free_policy@@@@QAE@QAU__acrt_ptd@@@Z 004433c5 f i libucrt:per_thread_data.obj
 0001:000423d9       ??1?$__crt_unique_heap_ptr@U__acrt_ptd@@U__crt_internal_free_policy@@@@QAE@XZ 004433d9 f i libucrt:per_thread_data.obj
 0001:000423ef       ??B?$__crt_unique_heap_ptr@U__acrt_ptd@@U__crt_internal_free_policy@@@@QBE_NXZ 004433ef f i libucrt:per_thread_data.obj
 0001:0004258a       ?dangerous_get_state_array@?$dual_state_global@PAU__crt_locale_data@@@__crt_state_management@@QAEPAPAU__crt_locale_data@@XZ 0044358a f i libucrt:per_thread_data.obj
 0001:000426bb       ?detach@?$__crt_unique_heap_ptr@U__acrt_ptd@@U__crt_internal_free_policy@@@@QAEPAU__acrt_ptd@@XZ 004436bb f i libucrt:per_thread_data.obj
 0001:000426c1       ?get@?$__crt_unique_heap_ptr@U__acrt_ptd@@U__crt_internal_free_policy@@@@QBEPAU__acrt_ptd@@XZ 004436c1 f i libucrt:per_thread_data.obj
 0001:0004291d       ?is_valid@?$__crt_unique_heap_ptr@U__acrt_ptd@@U__crt_internal_free_policy@@@@QBE_NXZ 0044391d f i libucrt:per_thread_data.obj
 0001:00042924       ?release@?$__crt_unique_heap_ptr@U__acrt_ptd@@U__crt_internal_free_policy@@@@QAEXXZ 00443924 f i libucrt:per_thread_data.obj
 0001:000429b0       ___acrt_freeptd            004439b0 f   libucrt:per_thread_data.obj
 0001:000429e7       ___acrt_getptd             004439e7 f   libucrt:per_thread_data.obj
 0001:00042ad0       ___acrt_getptd_head        00443ad0 f   libucrt:per_thread_data.obj
 0001:00042b8b       ___acrt_getptd_noexit      00443b8b f   libucrt:per_thread_data.obj
 0001:00042c68       ___acrt_getptd_noexit_explicit 00443c68 f   libucrt:per_thread_data.obj
 0001:00042d33       ___acrt_initialize_ptd     00443d33 f   libucrt:per_thread_data.obj
 0001:00042d6a       ___acrt_uninitialize_ptd   00443d6a f   libucrt:per_thread_data.obj
 0001:00042d8a       ___threadhandle            00443d8a f   libucrt:per_thread_data.obj
 0001:00042d90       ___threadid                00443d90 f   libucrt:per_thread_data.obj
 0001:00042d96       ?value@?$dual_state_global@PAU__crt_multibyte_data@@@__crt_state_management@@QAEAAPAU__crt_multibyte_data@@XZ 00443d96 f i libucrt:locale_update.obj
 0001:00042d99       ?value_explicit@?$dual_state_global@PAU__crt_locale_data@@@__crt_state_management@@QAEAAPAU__crt_locale_data@@I@Z 00443d99 f i libucrt:locale_update.obj
 0001:00042dab       ?value_explicit@?$dual_state_global@PAU__crt_multibyte_data@@@__crt_state_management@@QAEAAPAU__crt_multibyte_data@@I@Z 00443dab f i libucrt:locale_update.obj
 0001:00042dbd       ___acrt_should_sync_with_global_locale 00443dbd f i libucrt:locale_update.obj
 0001:00042de0       ___acrt_update_locale_info 00443de0 f   libucrt:locale_update.obj
 0001:00042e18       ___acrt_update_locale_info_explicit 00443e18 f   libucrt:locale_update.obj
 0001:00042e55       ___acrt_update_multibyte_info 00443e55 f   libucrt:locale_update.obj
 0001:00042e8d       ___acrt_update_multibyte_info_explicit 00443e8d f   libucrt:locale_update.obj
 0001:00042eca       ___p___mb_cur_max          00443eca f   libucrt:nlsdata.obj
 0001:00042ef8       ?get_doserrno@__crt_cached_ptd_host@@QAE@XZ 00443ef8 f i libucrt:errno.obj
 0001:00042efc       ?set@?$cached@K@__crt_cached_ptd_host@@QAEKK@Z 00443efc f i libucrt:errno.obj
 0001:00042f12       ___acrt_errno_from_os_error 00443f12 f   libucrt:errno.obj
 0001:00042f65       ___acrt_errno_map_os_error 00443f65 f   libucrt:errno.obj
 0001:00042f90       ___acrt_errno_map_os_error_ptd 00443f90 f   libucrt:errno.obj
 0001:00042fbd       ___doserrno                00443fbd f   libucrt:errno.obj
 0001:00042fd4       __errno                    00443fd4 f   libucrt:errno.obj
 0001:00042feb       __get_doserrno             00443feb f   libucrt:errno.obj
 0001:00043019       __get_errno                00444019 f   libucrt:errno.obj
 0001:00043047       __set_doserrno             00444047 f   libucrt:errno.obj
 0001:00043070       __set_errno                00444070 f   libucrt:errno.obj
 0001:00043099       ??0?$__crt_scoped_stack_ptr@_W@@QAE@U?$__crt_scoped_stack_ptr_tag@_W@@@Z 00444099 f i libucrt:lcmapstringa.obj
 0001:000430ad       ??0?$__crt_scoped_stack_ptr_tag@_W@@QAE@QA_W@Z 004440ad f i libucrt:lcmapstringa.obj
 0001:000430c1       ??1?$__crt_scoped_stack_ptr@_W@@QAE@XZ 004440c1 f i libucrt:lcmapstringa.obj
 0001:000430cc       ??B?$__crt_scoped_stack_ptr@_W@@QBE_NXZ 004440cc f i libucrt:lcmapstringa.obj
 0001:0004333d       ?get@?$__crt_scoped_stack_ptr@_W@@QBEPA_WXZ 0044433d f i libucrt:lcmapstringa.obj
 0001:00043340       __MallocaComputeSize       00444340 f i libucrt:lcmapstringa.obj
 0001:00043357       __MarkAllocaS              00444357 f i libucrt:lcmapstringa.obj
 0001:00043372       ___acrt_LCMapStringA       00444372 f   libucrt:lcmapstringa.obj
 0001:000433cd       __freea_crt                004443cd f i libucrt:lcmapstringa.obj
 0001:000433f5       ??$__crt_fast_decode_pointer@P6AXPB_W00II@Z@@YAP6AXPB_W00II@ZQ6AX000II@Z@Z 004443f5 f i libucrt:invalid_parameter.obj
 0001:00043416       ??$__crt_fast_encode_pointer@P6AXPB_W00II@Z@@YAP6AXPB_W00II@ZQ6AX000II@Z@Z 00444416 f i libucrt:invalid_parameter.obj
 0001:0004343c       ??$initialize_from_array@$$BY00Q6AXPB_W00II@Z@?$dual_state_global@P6AXPB_W00II@Z@__crt_state_management@@QAAXAAY00Q6AXPB_W00II@Z@Z 0044443c f i libucrt:invalid_parameter.obj
 0001:00043451       ?check_synchronize_global_state_index@__crt_cached_ptd_host@@AAEIXZ 00444451 f i libucrt:invalid_parameter.obj
 0001:00043484       ?dangerous_get_state_array@?$dual_state_global@P6AXPB_W00II@Z@__crt_state_management@@QAEPAP6AXPB_W00II@ZXZ 00444484 f i libucrt:invalid_parameter.obj
 0001:00043487       ?get_current_global_state_index@__crt_cached_ptd_host@@QAEIXZ 00444487 f i libucrt:invalid_parameter.obj
 0001:0004348c       ?get_raw_ptd_noexit@__crt_cached_ptd_host@@QAEPAU__acrt_ptd@@XZ 0044448c f i libucrt:invalid_parameter.obj
 0001:00043499       ?try_synchronize_per_thread_data@__crt_cached_ptd_host@@AAEPAU__acrt_ptd@@XZ 00444499 f i libucrt:invalid_parameter.obj
 0001:000434a6       ?value@?$dual_state_global@P6AXPB_W00II@Z@__crt_state_management@@QAEAAP6AXPB_W00II@ZAAV__crt_cached_ptd_host@@@Z 004444a6 f i libucrt:invalid_parameter.obj
 0001:000434c4       ?value@?$dual_state_global@P6AXPB_W00II@Z@__crt_state_management@@QAEAAP6AXPB_W00II@ZXZ 004444c4 f i libucrt:invalid_parameter.obj
 0001:000434c7       ___acrt_call_reportfault   004444c7 f   libucrt:invalid_parameter.obj
 0001:0004364e       ___acrt_initialize_invalid_parameter_handler 0044464e f   libucrt:invalid_parameter.obj
 0001:00043660       __get_invalid_parameter_handler 00444660 f   libucrt:invalid_parameter.obj
 0001:0004367c       __get_thread_local_invalid_parameter_handler 0044467c f   libucrt:invalid_parameter.obj
 0001:00043691       __invalid_parameter        00444691 f   libucrt:invalid_parameter.obj
 0001:000436d5       __invalid_parameter_internal 004446d5 f   libucrt:invalid_parameter.obj
 0001:00043771       __invalid_parameter_noinfo 00444771 f   libucrt:invalid_parameter.obj
 0001:00043785       __invalid_parameter_noinfo_noreturn 00444785 f   libucrt:invalid_parameter.obj
 0001:000437a9       __invoke_watson            004447a9 f   libucrt:invalid_parameter.obj
 0001:000437ea       __set_invalid_parameter_handler 004447ea f   libucrt:invalid_parameter.obj
 0001:00043826       __set_thread_local_invalid_parameter_handler 00444826 f   libucrt:invalid_parameter.obj
 0001:0004384a       ??$?B$$A6AXH@Z@__crt_fast_encoded_nullptr_t@@QBEP6AXH@ZXZ 0044484a f i libucrt:signal.obj
 0001:00043901       ??$__crt_fast_decode_pointer@P6AXH@Z@@YAP6AXH@ZQ6AXH@Z@Z 00444901 f i libucrt:signal.obj
 0001:00043922       ??$__crt_fast_encode_pointer@P6AXH@Z@@YAP6AXH@ZQ6AXH@Z@Z 00444922 f i libucrt:signal.obj
 0001:00043ad1       ?initialize@?$dual_state_global@P6AXH@Z@__crt_state_management@@QAEXQ6AXH@Z@Z 00444ad1 f i libucrt:signal.obj
 0001:00043ba4       ?value@?$dual_state_global@P6AXH@Z@__crt_state_management@@QAEAAP6AXH@ZXZ 00444ba4 f i libucrt:signal.obj
 0001:00043ba7       ___acrt_get_sigabrt_handler 00444ba7 f   libucrt:signal.obj
 0001:00043bd7       ___acrt_initialize_signal_handlers 00444bd7 f   libucrt:signal.obj
 0001:00043bfc       ___fpecode                 00444bfc f   libucrt:signal.obj
 0001:00043c07       ___pxcptinfoptrs           00444c07 f   libucrt:signal.obj
 0001:00043c12       _raise                     00444c12 f   libucrt:signal.obj
 0001:00043e80       _signal                    00444e80 f   libucrt:signal.obj
 0001:000440b5       ___pctype_func             004450b5 f   libucrt:ctype.obj
 0001:000440e2       ___pwctype_func            004450e2 f   libucrt:ctype.obj
 0001:000440e8       __iswctype_l               004450e8 f   libucrt:iswctype.obj
 0001:00044101       _iswctype                  00445101 f   libucrt:iswctype.obj
 0001:00044184       __calloc_base              00445184 f   libucrt:calloc_base.obj
 0001:000441fe       __free_base                004451fe f   libucrt:free_base.obj
 0001:00044256       ??$?B$$A6GHPA_WKJ@Z@__crt_fast_encoded_nullptr_t@@QBEP6GHPA_WKJ@ZXZ 00445256 f i libucrt:winapi_thunks.obj
 0001:00044326       ??$__crt_fast_decode_pointer@P6GHPA_WKJ@Z@@YAP6GHPA_WKJ@ZQ6GH0KJ@Z@Z 00445326 f i libucrt:winapi_thunks.obj
 0001:00044347       ??$__crt_fast_decode_pointer@PAX@@YAPAXQAX@Z 00445347 f i libucrt:winapi_thunks.obj
 0001:00044368       ??$__crt_fast_encode_pointer@P6GHPA_WKJ@Z@@YAP6GHPA_WKJ@ZQ6GH0KJ@Z@Z 00445368 f i libucrt:winapi_thunks.obj
 0001:00044baa       _GetCurrentThreadEffectiveToken 00445baa f i libucrt:winapi_thunks.obj
 0001:00044bae       ___acrt_AppPolicyGetProcessTerminationMethodInternal@4 00445bae f   libucrt:winapi_thunks.obj
 0001:00044bfe       ___acrt_AppPolicyGetShowDeveloperDiagnosticInternal@4 00445bfe f   libucrt:winapi_thunks.obj
 0001:00044c4e       ___acrt_AppPolicyGetThreadInitializationTypeInternal@4 00445c4e f   libucrt:winapi_thunks.obj
 0001:00044c9e       ___acrt_AppPolicyGetWindowingModelInternal@4 00445c9e f   libucrt:winapi_thunks.obj
 0001:00044cee       ___acrt_AreFileApisANSI@0  00445cee f   libucrt:winapi_thunks.obj
 0001:00044d14       ___acrt_CompareStringEx@36 00445d14 f   libucrt:winapi_thunks.obj
 0001:00044d88       ___acrt_EnumSystemLocalesEx@16 00445d88 f   libucrt:winapi_thunks.obj
 0001:00044df1       ___acrt_FlsAlloc@4         00445df1 f   libucrt:winapi_thunks.obj
 0001:00044e3f       ___acrt_FlsFree@4          00445e3f f   libucrt:winapi_thunks.obj
 0001:00044e8d       ___acrt_FlsGetValue@4      00445e8d f   libucrt:winapi_thunks.obj
 0001:00044edb       ___acrt_FlsSetValue@8      00445edb f   libucrt:winapi_thunks.obj
 0001:00044f2d       ___acrt_GetDateFormatEx@28 00445f2d f   libucrt:winapi_thunks.obj
 0001:00044f99       ___acrt_GetEnabledXStateFeatures@0 00445f99 f   libucrt:winapi_thunks.obj
 0001:00044fda       ___acrt_GetLocaleInfoEx@16 00445fda f   libucrt:winapi_thunks.obj
 0001:00045028       ___acrt_GetSystemTimePreciseAsFileTime@4 00446028 f   libucrt:winapi_thunks.obj
 0001:00045076       ___acrt_GetTempPath2W@8    00446076 f   libucrt:winapi_thunks.obj
 0001:000450c8       ___acrt_GetTimeFormatEx@24 004460c8 f   libucrt:winapi_thunks.obj
 0001:0004511e       ___acrt_GetUserDefaultLocaleName@8 0044611e f   libucrt:winapi_thunks.obj
 0001:00045169       ___acrt_GetXStateFeaturesMask@8 00446169 f   libucrt:winapi_thunks.obj
 0001:000451b9       ___acrt_InitializeCriticalSectionEx@12 004461b9 f   libucrt:winapi_thunks.obj
 0001:00045216       ___acrt_IsValidLocaleName@4 00446216 f   libucrt:winapi_thunks.obj
 0001:0004525c       ___acrt_LCIDToLocaleName@16 0044625c f   libucrt:winapi_thunks.obj
 0001:000452aa       ___acrt_LCMapStringEx@36   004462aa f   libucrt:winapi_thunks.obj
 0001:0004531e       ___acrt_LocaleNameToLCID@8 0044631e f   libucrt:winapi_thunks.obj
 0001:0004535b       ___acrt_LocateXStateFeature@12 0044635b f   libucrt:winapi_thunks.obj
 0001:00045395       ___acrt_MessageBoxA@16     00446395 f   libucrt:winapi_thunks.obj
 0001:000453d3       ___acrt_MessageBoxW@16     004463d3 f   libucrt:winapi_thunks.obj
 0001:00045411       ___acrt_RoInitialize@4     00446411 f   libucrt:winapi_thunks.obj
 0001:0004545a       ___acrt_RoUninitialize@0   0044645a f   libucrt:winapi_thunks.obj
 0001:00045493       ___acrt_RtlGenRandom@8     00446493 f   libucrt:winapi_thunks.obj
 0001:000454e3       ___acrt_SetThreadStackGuarantee@4 004464e3 f   libucrt:winapi_thunks.obj
 0001:0004552c       ___acrt_can_show_message_box 0044652c f   libucrt:winapi_thunks.obj
 0001:0004555c       ___acrt_can_use_vista_locale_apis 0044655c f   libucrt:winapi_thunks.obj
 0001:00045569       ___acrt_can_use_xstate_apis 00446569 f   libucrt:winapi_thunks.obj
 0001:00045576       ___acrt_eagerly_load_locale_apis 00446576 f   libucrt:winapi_thunks.obj
 0001:000455ba       ___acrt_get_parent_window  004465ba f   libucrt:winapi_thunks.obj
 0001:0004563c       ___acrt_initialize_winapi_thunks 0044663c f   libucrt:winapi_thunks.obj
 0001:00045655       ___acrt_is_interactive     00446655 f   libucrt:winapi_thunks.obj
 0001:0004571d       ___acrt_uninitialize_winapi_thunks 0044671d f   libucrt:winapi_thunks.obj
 0001:00045760       ??0__crt_stdio_stream@@QAE@QAU__crt_stdio_stream_data@@@Z 00446760 f i libucrt:closeall.obj
 0001:00045774       ?is_in_use@__crt_stdio_stream@@QBE_NXZ 00446774 f i libucrt:closeall.obj
 0001:00045783       __fcloseall                00446783 f   libucrt:closeall.obj
 0001:00045d00       ?__acrt_stdio_reset_buffer@@YAXV__crt_stdio_stream@@@Z 00446d00 f i libucrt:fflush.obj
 0001:00045e19       ?has_all_of@__crt_stdio_stream@@QBE_NJ@Z 00446e19 f i libucrt:fflush.obj
 0001:00045e95       ?set_flags@__crt_stdio_stream@@QBE_NJ@Z 00446e95 f i libucrt:fflush.obj
 0001:00045ec2       ?unset_flags@__crt_stdio_stream@@QBE_NJ@Z 00446ec2 f i libucrt:fflush.obj
 0001:00045ef5       ___acrt_stdio_flush_nolock 00446ef5 f   libucrt:fflush.obj
 0001:00045f78       __fflush_nolock            00446f78 f   libucrt:fflush.obj
 0001:00045ff6       __flushall                 00446ff6 f   libucrt:fflush.obj
 0001:00046001       _fflush                    00447001 f   libucrt:fflush.obj
 0001:00046068       ?has_any_of@__crt_stdio_stream@@QBE_NJ@Z 00447068 f i libucrt:_freebuf.obj
 0001:00046082       ?has_crt_buffer@__crt_stdio_stream@@QBE_NXZ 00447082 f i libucrt:_freebuf.obj
 0001:00046091       ___acrt_stdio_free_buffer_nolock 00447091 f   libucrt:_freebuf.obj
 0001:000462ca       ___acrt_initialize_lowio   004472ca f   libucrt:ioinit.obj
 0001:00046342       ___acrt_uninitialize_lowio 00447342 f   libucrt:ioinit.obj
 0001:00046379       ?lowio_handle@__crt_stdio_stream@@QBEHXZ 00447379 f i libucrt:fileno.obj
 0001:00046380       __fileno                   00447380 f   libucrt:fileno.obj
 0001:00046819       ?has_any_buffer@__crt_stdio_stream@@QBE_NXZ 00447819 f i libucrt:_filbuf.obj
 0001:000468dd       ___acrt_stdio_refill_and_read_narrow_nolock 004478dd f   libucrt:_filbuf.obj
 0001:000468ea       ___acrt_stdio_refill_and_read_wide_nolock 004478ea f   libucrt:_filbuf.obj
 0001:000468f7       __malloc_base              004478f7 f   libucrt:malloc_base.obj
 0001:0004734c       ??1?$__crt_simd_cleanup_guard@$00@@QAE@XZ 0044834c f i libucrt:strnlen.obj
 0001:00047350       ??1?$__crt_simd_cleanup_guard@$0A@@@QAE@XZ 00448350 f i libucrt:strnlen.obj
 0001:00047353       ?compare_equals@?$__crt_simd_traits@$00E@@SA?AT__m256i@@T2@0@Z 00448353 f i libucrt:strnlen.obj
 0001:00047358       ?compare_equals@?$__crt_simd_traits@$00G@@SA?AT__m256i@@T2@0@Z 00448358 f i libucrt:strnlen.obj
 0001:0004735d       ?compare_equals@?$__crt_simd_traits@$0A@E@@SA?AT__m128i@@T2@0@Z 0044835d f i libucrt:strnlen.obj
 0001:00047362       ?compare_equals@?$__crt_simd_traits@$0A@G@@SA?AT__m128i@@T2@0@Z 00448362 f i libucrt:strnlen.obj
 0001:00047367       ?compute_byte_mask@?$__crt_simd_pack_traits@$00@@SAHT__m256i@@@Z 00448367 f i libucrt:strnlen.obj
 0001:0004736c       ?compute_byte_mask@?$__crt_simd_pack_traits@$0A@@@SAHT__m128i@@@Z 0044836c f i libucrt:strnlen.obj
 0001:00047371       ?get_zero_pack@?$__crt_simd_pack_traits@$00@@SA?AT__m256i@@XZ 00448371 f i libucrt:strnlen.obj
 0001:00047376       ?get_zero_pack@?$__crt_simd_pack_traits@$0A@@@SA?AT__m128i@@XZ 00448376 f i libucrt:strnlen.obj
 0001:0004737a       _strnlen                   0044837a f   libucrt:strnlen.obj
 0001:000474e4       _wcslen                    004484e4 f   libucrt:strnlen.obj
 0001:00047656       _wcsnlen                   00448656 f   libucrt:strnlen.obj
 0001:00047872       ?__acrt_fp_classify@@YA?AW4__acrt_fp_class@@ABN@Z 00448872 f i libucrt:cvt.obj
 0001:000478ec       ?__acrt_fp_is_negative@@YA_NABN@Z 004488ec f i libucrt:cvt.obj
 0001:000484da       ?strrchr@@YAPADQADH@Z      004494da f i libucrt:cvt.obj
 0001:000484e7       ___acrt_fp_format          004494e7 f   libucrt:cvt.obj
 0001:000486c8       ?value_or@?$cached@H@__crt_cached_ptd_host@@QBEHH@Z 004496c8 f i libucrt:wctomb.obj
 0001:000486e3       __wctomb_internal          004496e3 f   libucrt:wctomb.obj
 0001:000488a7       __wctomb_l                 004498a7 f   libucrt:wctomb.obj
 0001:00048918       __wctomb_s_l               00449918 f   libucrt:wctomb.obj
 0001:00048961       _wctomb                    00449961 f   libucrt:wctomb.obj
 0001:000489c0       _wctomb_s                  004499c0 f   libucrt:wctomb.obj
 0001:00048a08       __mbtowc_internal          00449a08 f   libucrt:mbtowc.obj
 0001:00048b87       __mbtowc_l                 00449b87 f   libucrt:mbtowc.obj
 0001:00048bcd       _mbtowc                    00449bcd f   libucrt:mbtowc.obj
 0001:00048c11       __get_printf_count_output  00449c11 f   libucrt:printf_count_output.obj
 0001:00048c2b       __set_printf_count_output  00449c2b f   libucrt:printf_count_output.obj
 0001:00048d54       __fputwc_nolock            00449d54 f   libucrt:fputwc.obj
 0001:00048d97       __fputwc_nolock_internal   00449d97 f   libucrt:fputwc.obj
 0001:00048f1d       __fputwchar                00449f1d f   libucrt:fputwc.obj
 0001:00048f3d       __putwc_nolock             00449f3d f   libucrt:fputwc.obj
 0001:00048f4a       _fputwc                    00449f4a f   libucrt:fputwc.obj
 0001:00048f8d       _putwc                     00449f8d f   libucrt:fputwc.obj
 0001:00048f9a       _putwchar                  00449f9a f   libucrt:fputwc.obj
 0001:00049128       __fputc_nolock             0044a128 f   libucrt:fputc.obj
 0001:00049169       __fputc_nolock_internal    0044a169 f   libucrt:fputc.obj
 0001:000491a1       __fputchar                 0044a1a1 f   libucrt:fputc.obj
 0001:000491c1       __putc_nolock              0044a1c1 f   libucrt:fputc.obj
 0001:000491ce       _fputc                     0044a1ce f   libucrt:fputc.obj
 0001:0004920f       _putc                      0044a20f f   libucrt:fputc.obj
 0001:0004921c       _putchar                   0044a21c f   libucrt:fputc.obj
 0001:00049229       ?has_temporary_buffer@__crt_stdio_stream@@QBE_NXZ 0044a229 f i libucrt:_sftbuf.obj
 0001:00049238       ___acrt_should_use_temporary_buffer 0044a238 f   libucrt:_sftbuf.obj
 0001:00049285       ___acrt_stdio_begin_temporary_buffering_nolock 0044a285 f   libucrt:_sftbuf.obj
 0001:0004935a       ___acrt_stdio_end_temporary_buffering_nolock 0044a35a f   libucrt:_sftbuf.obj
 0001:00049424       _wcscpy_s                  0044a424 f   libucrt:wcscpy_s.obj
 0001:000494a1       __wcsnicoll                0044a4a1 f   libucrt:wcsnicol.obj
 0001:00049529       __wcsnicoll_l              0044a529 f   libucrt:wcsnicol.obj
 0001:00049619       __strnicoll                0044a619 f   libucrt:strnicol.obj
 0001:0004964c       __strnicoll_l              0044a64c f   libucrt:strnicol.obj
 0001:00049746       ___acrt_initialize_locks   0044a746 f   libucrt:locks.obj
 0001:00049797       ___acrt_lock               0044a797 f   libucrt:locks.obj
 0001:000497b3       ___acrt_uninitialize_locks 0044a7b3 f   libucrt:locks.obj
 0001:000497f0       ___acrt_unlock             0044a7f0 f   libucrt:locks.obj
 0001:0004980c       __lock_locales             0044a80c f   libucrt:locks.obj
 0001:0004981d       __unlock_locales           0044a81d f   libucrt:locks.obj
 0001:00049828       __set_error_mode           0044a828 f   libucrt:set_error_mode.obj
 0001:0004990c       _wcscat_s                  0044a90c f   libucrt:wcscat_s.obj
 0001:00049a97       _wcsncpy_s                 0044aa97 f   libucrt:wcsncpy_s.obj
 0001:00049bdd       ??$message_box@$$TABQBDABQBDK@?$__crt_char_traits@D@@SAH$$QA$$TABQBD1$$QAK@Z 0044abdd f i libucrt:crtmbox.obj
 0001:00049c05       ??$message_box@$$TABQB_WABQB_WK@?$__crt_char_traits@_W@@SAH$$QA$$TABQB_W1$$QAK@Z 0044ac05 f i libucrt:crtmbox.obj
 0001:00049c2d       ??$message_box@PAUHWND__@@ABQBDABQBDABI@?$__crt_char_traits@D@@SAH$$QAPAUHWND__@@ABQBD1ABI@Z 0044ac2d f i libucrt:crtmbox.obj
 0001:00049c55       ??$message_box@PAUHWND__@@ABQB_WABQB_WABI@?$__crt_char_traits@_W@@SAH$$QAPAUHWND__@@ABQB_W1ABI@Z 0044ac55 f i libucrt:crtmbox.obj
 0001:00049c7d       ??$output_debug_string@ABQBD@?$__crt_char_traits@D@@SAXABQBD@Z 0044ac7d f i libucrt:crtmbox.obj
 0001:00049c92       ??$output_debug_string@ABQB_W@?$__crt_char_traits@_W@@SAXABQB_W@Z 0044ac92 f i libucrt:crtmbox.obj
 0001:00049ca8       ___acrt_show_narrow_message_box 0044aca8 f   libucrt:crtmbox.obj
 0001:00049cb5       ___acrt_show_wide_message_box 0044acb5 f   libucrt:crtmbox.obj
 0001:00049cfe       ??$__acrt_convert_wcs_mbs_cp@D_WV<lambda_62f6974d9771e494a5ea317cc32e971c>@@U__crt_win32_buffer_internal_dynamic_resizing@@@@YAHQBDAAV?$__crt_win32_buffer@_WU__crt_win32_buffer_internal_dynamic_resizing@@@@ABV<lambda_62f6974d9771e494a5ea317cc32e971c>@@I@Z 0044acfe f i libucrt:argv_wildcards.obj
 0001:00049ddc       ??$__acrt_convert_wcs_mbs_cp@_WDV<lambda_28bda7af82a03b66c1cb3803a755f95d>@@U__crt_win32_buffer_internal_dynamic_resizing@@@@YAHQB_WAAV?$__crt_win32_buffer@DU__crt_win32_buffer_internal_dynamic_resizing@@@@ABV<lambda_28bda7af82a03b66c1cb3803a755f95d>@@I@Z 0044addc f i libucrt:argv_wildcards.obj
 0001:00049ed3       ??$__acrt_mbs_to_wcs_cp@U__crt_win32_buffer_internal_dynamic_resizing@@@@YAHQBDAAV?$__crt_win32_buffer@_WU__crt_win32_buffer_internal_dynamic_resizing@@@@I@Z 0044aed3 f i libucrt:argv_wildcards.obj
 0001:00049ef7       ??$__acrt_wcs_to_mbs_cp@U__crt_win32_buffer_internal_dynamic_resizing@@@@YAHQB_WAAV?$__crt_win32_buffer@DU__crt_win32_buffer_internal_dynamic_resizing@@@@I@Z 0044aef7 f i libucrt:argv_wildcards.obj
 0001:0004a9d4       ??$tcsncpy_s@AAPADIAAPADABI@?$__crt_char_traits@D@@SAHAAPAD$$QAI0ABI@Z 0044b9d4 f i libucrt:argv_wildcards.obj
 0001:0004a9ff       ??$tcsncpy_s@AAPA_WIAAPA_WABI@?$__crt_char_traits@_W@@SAHAAPA_W$$QAI0ABI@Z 0044b9ff f i libucrt:argv_wildcards.obj
 0001:0004aa2a       ??$tcsncpy_s@PADABIABQBDABI@?$__crt_char_traits@D@@SAH$$QAPADABIABQBD1@Z 0044ba2a f i libucrt:argv_wildcards.obj
 0001:0004aa55       ??$tcsncpy_s@PADIABQBDABI@?$__crt_char_traits@D@@SAH$$QAPAD$$QAIABQBDABI@Z 0044ba55 f i libucrt:argv_wildcards.obj
 0001:0004aa80       ??$tcsncpy_s@PA_WABIABQB_WABI@?$__crt_char_traits@_W@@SAH$$QAPA_WABIABQB_W1@Z 0044ba80 f i libucrt:argv_wildcards.obj
 0001:0004aaab       ??$tcsncpy_s@PA_WIABQB_WABI@?$__crt_char_traits@_W@@SAH$$QAPA_W$$QAIABQB_WABI@Z 0044baab f i libucrt:argv_wildcards.obj
 0001:0004aad6       ??$tcspbrk@AAPADAAY02$$CBD@?$__crt_char_traits@D@@SAPADAAPADAAY02$$CBD@Z 0044bad6 f i libucrt:argv_wildcards.obj
 0001:0004aaf1       ??$tcspbrk@AAPA_WAAY02$$CB_W@?$__crt_char_traits@_W@@SAPA_WAAPA_WAAY02$$CB_W@Z 0044baf1 f i libucrt:argv_wildcards.obj
 0001:0004ab0c       ??0?$__crt_unique_handle_t@U__crt_findfile_traits@@@@QAE@QAX@Z 0044bb0c f i libucrt:argv_wildcards.obj
 0001:0004ab20       ??0?$__crt_win32_buffer@DU__crt_win32_buffer_internal_dynamic_resizing@@@@QAE@XZ 0044bb20 f i libucrt:argv_wildcards.obj
 0001:0004ab3b       ??0?$__crt_win32_buffer@_WU__crt_win32_buffer_internal_dynamic_resizing@@@@QAE@XZ 0044bb3b f i libucrt:argv_wildcards.obj
 0001:0004ab76       ??1?$__crt_unique_handle_t@U__crt_findfile_traits@@@@QAE@XZ 0044bb76 f i libucrt:argv_wildcards.obj
 0001:0004ab92       ??1?$__crt_win32_buffer@DU__crt_win32_buffer_internal_dynamic_resizing@@@@QAE@XZ 0044bb92 f i libucrt:argv_wildcards.obj
 0001:0004ab97       ??1?$__crt_win32_buffer@_WU__crt_win32_buffer_internal_dynamic_resizing@@@@QAE@XZ 0044bb97 f i libucrt:argv_wildcards.obj
 0001:0004ac04       ??R<lambda_28bda7af82a03b66c1cb3803a755f95d>@@QBE@IQB_WQADI@Z 0044bc04 f i libucrt:argv_wildcards.obj
 0001:0004ac56       ??R<lambda_62f6974d9771e494a5ea317cc32e971c>@@QBE@IQBDQA_WI@Z 0044bc56 f i libucrt:argv_wildcards.obj
 0001:0004acec       ?__acrt_get_utf8_acp_compatibility_codepage@@YAIXZ 0044bcec f i libucrt:argv_wildcards.obj
 0001:0004ad3a       ?_deallocate@?$__crt_win32_buffer@DU__crt_win32_buffer_internal_dynamic_resizing@@@@AAEXXZ 0044bd3a f i libucrt:argv_wildcards.obj
 0001:0004ad5a       ?_deallocate@?$__crt_win32_buffer@_WU__crt_win32_buffer_internal_dynamic_resizing@@@@AAEXXZ 0044bd5a f i libucrt:argv_wildcards.obj
 0001:0004ad7a       ?allocate@?$__crt_win32_buffer@DU__crt_win32_buffer_internal_dynamic_resizing@@@@QAEHI@Z 0044bd7a f i libucrt:argv_wildcards.obj
 0001:0004adc5       ?allocate@?$__crt_win32_buffer@_WU__crt_win32_buffer_internal_dynamic_resizing@@@@QAEHI@Z 0044bdc5 f i libucrt:argv_wildcards.obj
 0001:0004ae13       ?allocate@__crt_win32_buffer_internal_dynamic_resizing@@SAHQAPAXIABV__crt_win32_buffer_empty_debug_info@@@Z 0044be13 f i libucrt:argv_wildcards.obj
 0001:0004aec3       ?capacity@?$__crt_win32_buffer@DU__crt_win32_buffer_internal_dynamic_resizing@@@@QBEIXZ 0044bec3 f i libucrt:argv_wildcards.obj
 0001:0004aec7       ?capacity@?$__crt_win32_buffer@_WU__crt_win32_buffer_internal_dynamic_resizing@@@@QBEIXZ 0044bec7 f i libucrt:argv_wildcards.obj
 0001:0004aecb       ?close@?$__crt_unique_handle_t@U__crt_findfile_traits@@@@QAEXXZ 0044becb f i libucrt:argv_wildcards.obj
 0001:0004aee7       ?close@__crt_findfile_traits@@SA_NPAX@Z 0044bee7 f i libucrt:argv_wildcards.obj
 0001:0004af01       ?data@?$__crt_win32_buffer@DU__crt_win32_buffer_internal_dynamic_resizing@@@@QAEPADXZ 0044bf01 f i libucrt:argv_wildcards.obj
 0001:0004af05       ?data@?$__crt_win32_buffer@_WU__crt_win32_buffer_internal_dynamic_resizing@@@@QAEPA_WXZ 0044bf05 f i libucrt:argv_wildcards.obj
 0001:0004af09       ?deallocate@__crt_win32_buffer_internal_dynamic_resizing@@SAXQAXABV__crt_win32_buffer_empty_debug_info@@@Z 0044bf09 f i libucrt:argv_wildcards.obj
 0001:0004af1d       ?debug_info@?$__crt_win32_buffer@DU__crt_win32_buffer_internal_dynamic_resizing@@@@QBEABV__crt_win32_buffer_empty_debug_info@@XZ 0044bf1d f i libucrt:argv_wildcards.obj
 0001:0004af20       ?debug_info@?$__crt_win32_buffer@_WU__crt_win32_buffer_internal_dynamic_resizing@@@@QBEABV__crt_win32_buffer_empty_debug_info@@XZ 0044bf20 f i libucrt:argv_wildcards.obj
 0001:0004b07b       ?get@?$__crt_unique_handle_t@U__crt_findfile_traits@@@@QBEPAXXZ 0044c07b f i libucrt:argv_wildcards.obj
 0001:0004b0bd       ?get_invalid_value@__crt_findfile_traits@@SAPAXXZ 0044c0bd f i libucrt:argv_wildcards.obj
 0001:0004b11d       ?set_to_nullptr@?$__crt_win32_buffer@DU__crt_win32_buffer_internal_dynamic_resizing@@@@QAEXXZ 0044c11d f i libucrt:argv_wildcards.obj
 0001:0004b139       ?set_to_nullptr@?$__crt_win32_buffer@_WU__crt_win32_buffer_internal_dynamic_resizing@@@@QAEXXZ 0044c139 f i libucrt:argv_wildcards.obj
 0001:0004b155       ?size@?$__crt_win32_buffer@DU__crt_win32_buffer_internal_dynamic_resizing@@@@QAEXI@Z 0044c155 f i libucrt:argv_wildcards.obj
 0001:0004b167       ?size@?$__crt_win32_buffer@_WU__crt_win32_buffer_internal_dynamic_resizing@@@@QAEXI@Z 0044c167 f i libucrt:argv_wildcards.obj
 0001:0004b18f       ?strpbrk@@YAPADQADQBD@Z    0044c18f f i libucrt:argv_wildcards.obj
 0001:0004b19c       ?wcspbrk@@YAPA_WPA_WPB_W@Z 0044c19c f i libucrt:argv_wildcards.obj
 0001:0004b1a9       ___acrt_expand_narrow_argv_wildcards 0044c1a9 f   libucrt:argv_wildcards.obj
 0001:0004b1b6       ___acrt_expand_wide_argv_wildcards 0044c1b6 f   libucrt:argv_wildcards.obj
 0001:0004b1c3       ??$__acrt_convert_wcs_mbs_cp@_WDV<lambda_0fec1a7b3f42a53036604e18c2d5e07e>@@U__crt_win32_buffer_no_resizing@@@@YAHQB_WAAV?$__crt_win32_buffer@DU__crt_win32_buffer_no_resizing@@@@ABV<lambda_0fec1a7b3f42a53036604e18c2d5e07e>@@I@Z 0044c1c3 f i libucrt:getmodulefilenamea.obj
 0001:0004b2b5       ??$__acrt_wcs_to_mbs_cp@U__crt_win32_buffer_no_resizing@@@@YAHQB_WAAV?$__crt_win32_buffer@DU__crt_win32_buffer_no_resizing@@@@I@Z 0044c2b5 f i libucrt:getmodulefilenamea.obj
 0001:0004b2d9       ??0?$__crt_win32_buffer@DU__crt_win32_buffer_no_resizing@@@@QAE@QADI@Z 0044c2d9 f i libucrt:getmodulefilenamea.obj
 0001:0004b306       ??1?$__crt_win32_buffer@DU__crt_win32_buffer_no_resizing@@@@QAE@XZ 0044c306 f i libucrt:getmodulefilenamea.obj
 0001:0004b313       ??R<lambda_0fec1a7b3f42a53036604e18c2d5e07e>@@QBE@IQB_WQADI@Z 0044c313 f i libucrt:getmodulefilenamea.obj
 0001:0004b340       ?_deallocate@?$__crt_win32_buffer@DU__crt_win32_buffer_no_resizing@@@@AAEXXZ 0044c340 f i libucrt:getmodulefilenamea.obj
 0001:0004b34d       ?allocate@?$__crt_win32_buffer@DU__crt_win32_buffer_no_resizing@@@@QAEHI@Z 0044c34d f i libucrt:getmodulefilenamea.obj
 0001:0004b37d       ?allocate@__crt_win32_buffer_no_resizing@@SAHQAPAXIABV__crt_win32_buffer_empty_debug_info@@@Z 0044c37d f i libucrt:getmodulefilenamea.obj
 0001:0004b38d       ?capacity@?$__crt_win32_buffer@DU__crt_win32_buffer_no_resizing@@@@QBEIXZ 0044c38d f i libucrt:getmodulefilenamea.obj
 0001:0004b391       ?data@?$__crt_win32_buffer@DU__crt_win32_buffer_no_resizing@@@@QAEPADXZ 0044c391 f i libucrt:getmodulefilenamea.obj
 0001:0004b395       ?deallocate@__crt_win32_buffer_no_resizing@@SAXQAXABV__crt_win32_buffer_empty_debug_info@@@Z 0044c395 f i libucrt:getmodulefilenamea.obj
 0001:0004b398       ?debug_info@?$__crt_win32_buffer@DU__crt_win32_buffer_no_resizing@@@@QBEABV__crt_win32_buffer_empty_debug_info@@XZ 0044c398 f i libucrt:getmodulefilenamea.obj
 0001:0004b39b       ?set_to_nullptr@?$__crt_win32_buffer@DU__crt_win32_buffer_no_resizing@@@@QAEXXZ 0044c39b f i libucrt:getmodulefilenamea.obj
 0001:0004b3b4       ?size@?$__crt_win32_buffer@DU__crt_win32_buffer_no_resizing@@@@QAEXI@Z 0044c3b4 f i libucrt:getmodulefilenamea.obj
 0001:0004b3c6       ?size@?$__crt_win32_buffer@DU__crt_win32_buffer_no_resizing@@@@QBEIXZ 0044c3c6 f i libucrt:getmodulefilenamea.obj
 0001:0004b3ca       ___acrt_GetModuleFileNameA 0044c3ca f   libucrt:getmodulefilenamea.obj
 0001:0004b522       ??$initialize_from_array@$$BY10BAA@E@?$dual_state_global@PAE@__crt_state_management@@QAAXAAY10BAA@E@Z 0044c522 f i libucrt:mbctype.obj
 0001:0004b534       ??$initialize_from_array@$$BY10BAB@E@?$dual_state_global@PAE@__crt_state_management@@QAAXAAY10BAB@E@Z 0044c534 f i libucrt:mbctype.obj
 0001:0004b693       ?dangerous_get_state_array@?$dual_state_global@PAE@__crt_state_management@@QAEPAPAEXZ 0044c693 f i libucrt:mbctype.obj
 0001:0004b696       ?dangerous_get_state_array@?$dual_state_global@PAU__crt_multibyte_data@@@__crt_state_management@@QAEPAPAU__crt_multibyte_data@@XZ 0044c696 f i libucrt:mbctype.obj
 0001:0004b726       ?initialize@?$dual_state_global@PAU__crt_multibyte_data@@@__crt_state_management@@QAEXQAU__crt_multibyte_data@@@Z 0044c726 f i libucrt:mbctype.obj
 0001:0004bc44       ?value@?$dual_state_global@PAE@__crt_state_management@@QAEAAPAEXZ 0044cc44 f i libucrt:mbctype.obj
 0001:0004bc47       ___acrt_initialize_multibyte 0044cc47 f   libucrt:mbctype.obj
 0001:0004bca1       ___acrt_update_thread_multibyte_data 0044cca1 f   libucrt:mbctype.obj
 0001:0004bcb8       ___p__mbcasemap            0044ccb8 f   libucrt:mbctype.obj
 0001:0004bcbe       ___p__mbctype              0044ccbe f   libucrt:mbctype.obj
 0001:0004bcc4       __getmbcp                  0044ccc4 f   libucrt:mbctype.obj
 0001:0004bd05       __setmbcp                  0044cd05 f   libucrt:mbctype.obj
 0001:0004bd2b       __setmbcp_nolock           0044cd2b f   libucrt:mbctype.obj
 0001:0004c0b6       __ismbbalnum               0044d0b6 f   libucrt:ismbbyte.obj
 0001:0004c0d7       __ismbbalnum_l             0044d0d7 f   libucrt:ismbbyte.obj
 0001:0004c0fa       __ismbbalpha               0044d0fa f   libucrt:ismbbyte.obj
 0001:0004c11b       __ismbbalpha_l             0044d11b f   libucrt:ismbbyte.obj
 0001:0004c13e       __ismbbblank               0044d13e f   libucrt:ismbbyte.obj
 0001:0004c169       __ismbbblank_l             0044d169 f   libucrt:ismbbyte.obj
 0001:0004c196       __ismbbgraph               0044d196 f   libucrt:ismbbyte.obj
 0001:0004c1b7       __ismbbgraph_l             0044d1b7 f   libucrt:ismbbyte.obj
 0001:0004c1da       __ismbbkalnum              0044d1da f   libucrt:ismbbyte.obj
 0001:0004c1f8       __ismbbkalnum_l            0044d1f8 f   libucrt:ismbbyte.obj
 0001:0004c217       __ismbbkana                0044d217 f   libucrt:ismbbyte.obj
 0001:0004c22e       __ismbbkana_l              0044d22e f   libucrt:ismbbyte.obj
 0001:0004c290       __ismbbkprint              0044d290 f   libucrt:ismbbyte.obj
 0001:0004c2ae       __ismbbkprint_l            0044d2ae f   libucrt:ismbbyte.obj
 0001:0004c2cd       __ismbbkpunct              0044d2cd f   libucrt:ismbbyte.obj
 0001:0004c2eb       __ismbbkpunct_l            0044d2eb f   libucrt:ismbbyte.obj
 0001:0004c30a       __ismbblead                0044d30a f   libucrt:ismbbyte.obj
 0001:0004c328       __ismbblead_l              0044d328 f   libucrt:ismbbyte.obj
 0001:0004c347       __ismbbprint               0044d347 f   libucrt:ismbbyte.obj
 0001:0004c368       __ismbbprint_l             0044d368 f   libucrt:ismbbyte.obj
 0001:0004c38b       __ismbbpunct               0044d38b f   libucrt:ismbbyte.obj
 0001:0004c3a9       __ismbbpunct_l             0044d3a9 f   libucrt:ismbbyte.obj
 0001:0004c3c8       __ismbbtrail               0044d3c8 f   libucrt:ismbbyte.obj
 0001:0004c3e6       __ismbbtrail_l             0044d3e6 f   libucrt:ismbbyte.obj
 0001:0004c4c3       ___acrt_MultiByteToWideChar 0044d4c3 f   libucrt:multibytetowidechar.obj
 0001:0004c5ab       ___acrt_WideCharToMultiByte 0044d5ab f   libucrt:widechartomultibyte.obj
 0001:0004c6ec       ___dcrt_get_narrow_environment_from_os 0044d6ec f   libucrt:get_environment_from_os.obj
 0001:0004c7b4       ___dcrt_get_wide_environment_from_os 0044d7b4 f   libucrt:get_environment_from_os.obj
 0001:0004d11b       ??$set_environment_variable@ABQADQAD@?$__crt_char_traits@D@@SAHABQAD$$QBQAD@Z 0044e11b f i libucrt:setenv.obj
 0001:0004d139       ??$set_environment_variable@ABQA_WQA_W@?$__crt_char_traits@_W@@SAHABQA_W$$QBQA_W@Z 0044e139 f i libucrt:setenv.obj
 0001:0004d155       ??$tcschr@ABQADD@?$__crt_char_traits@D@@SAPADABQAD$$QAD@Z 0044e155 f i libucrt:setenv.obj
 0001:0004d175       ??$tcschr@ABQA_WD@?$__crt_char_traits@_W@@SAPA_WABQA_W$$QAD@Z 0044e175 f i libucrt:setenv.obj
 0001:0004d19a       ??$tcscpy_s@AAPADABIAAPAD@?$__crt_char_traits@D@@SAHAAPADABI0@Z 0044e19a f i libucrt:setenv.obj
 0001:0004d1bf       ??$tcscpy_s@AAPA_WABIAAPA_W@?$__crt_char_traits@_W@@SAHAAPA_WABI0@Z 0044e1bf f i libucrt:setenv.obj
 0001:0004d1e4       ??$tcscpy_s@ABQADABIABQAD@?$__crt_char_traits@D@@SAHABQADABI0@Z 0044e1e4 f i libucrt:setenv.obj
 0001:0004d209       ??$tcscpy_s@ABQA_WABIABQA_W@?$__crt_char_traits@_W@@SAHABQA_WABI0@Z 0044e209 f i libucrt:setenv.obj
 0001:0004d22e       ??$tcslen@ABQAD@?$__crt_char_traits@D@@SAIABQAD@Z 0044e22e f i libucrt:setenv.obj
 0001:0004d24c       ??$tcslen@ABQA_W@?$__crt_char_traits@_W@@SAIABQA_W@Z 0044e24c f i libucrt:setenv.obj
 0001:0004d271       ??$tcsnicoll@ABQBDAAPADABI@?$__crt_char_traits@D@@SAHABQBDAAPADABI@Z 0044e271 f i libucrt:setenv.obj
 0001:0004d296       ??$tcsnicoll@ABQB_WAAPA_WABI@?$__crt_char_traits@_W@@SAHABQB_WAAPA_WABI@Z 0044e296 f i libucrt:setenv.obj
 0001:0004d2df       ?strchr@@YAPADQADH@Z       0044e2df f i libucrt:setenv.obj
 0001:0004d2ec       ?wcschr@@YAPA_WPA_W_W@Z    0044e2ec f i libucrt:setenv.obj
 0001:0004d2f9       ___dcrt_set_variable_in_narrow_environment_nolock 0044e2f9 f   libucrt:setenv.obj
 0001:0004d306       ___dcrt_set_variable_in_wide_environment_nolock 0044e306 f   libucrt:setenv.obj
 0001:0004d313       ___acrt_app_verifier_enabled 0044e313 f   libucrt:peb_access.obj
 0001:0004d329       ___acrt_is_secure_process  0044e329 f   libucrt:peb_access.obj
 0001:0004d53a       ___acrt_get_begin_thread_init_policy 0044e53a f   libucrt:win_policies.obj
 0001:0004d582       ___acrt_get_developer_information_policy 0044e582 f   libucrt:win_policies.obj
 0001:0004d5cf       ___acrt_get_process_end_policy 0044e5cf f   libucrt:win_policies.obj
 0001:0004d5ff       ___acrt_get_windowing_model_policy 0044e5ff f   libucrt:win_policies.obj
 0001:0004d670       ??$?RU__crt_lowio_handle_data@@@__crt_internal_free_policy@@QBEXQBU__crt_lowio_handle_data@@@Z 0044e670 f i libucrt:osfinfo.obj
 0001:0004d686       ??0?$__crt_unique_heap_ptr@U__crt_lowio_handle_data@@U__crt_internal_free_policy@@@@QAE@QAU__crt_lowio_handle_data@@@Z 0044e686 f i libucrt:osfinfo.obj
 0001:0004d69a       ??1?$__crt_unique_heap_ptr@U__crt_lowio_handle_data@@U__crt_internal_free_policy@@@@QAE@XZ 0044e69a f i libucrt:osfinfo.obj
 0001:0004d6b0       ??B?$__crt_unique_heap_ptr@U__crt_lowio_handle_data@@U__crt_internal_free_policy@@@@QBE_NXZ 0044e6b0 f i libucrt:osfinfo.obj
 0001:0004d6b7       ?detach@?$__crt_unique_heap_ptr@U__crt_lowio_handle_data@@U__crt_internal_free_policy@@@@QAEPAU__crt_lowio_handle_data@@XZ 0044e6b7 f i libucrt:osfinfo.obj
 0001:0004d6bd       ?get@?$__crt_unique_heap_ptr@U__crt_lowio_handle_data@@U__crt_internal_free_policy@@@@QBEPAU__crt_lowio_handle_data@@XZ 0044e6bd f i libucrt:osfinfo.obj
 0001:0004d6c0       ?is_valid@?$__crt_unique_heap_ptr@U__crt_lowio_handle_data@@U__crt_internal_free_policy@@@@QBE_NXZ 0044e6c0 f i libucrt:osfinfo.obj
 0001:0004d6c7       ?release@?$__crt_unique_heap_ptr@U__crt_lowio_handle_data@@U__crt_internal_free_policy@@@@QAEXXZ 0044e6c7 f i libucrt:osfinfo.obj
 0001:0004d6dd       ___acrt_lowio_create_handle_array 0044e6dd f   libucrt:osfinfo.obj
 0001:0004d776       ___acrt_lowio_destroy_handle_array 0044e776 f   libucrt:osfinfo.obj
 0001:0004d7b8       ___acrt_lowio_ensure_fh_exists 0044e7b8 f   libucrt:osfinfo.obj
 0001:0004d87d       ___acrt_lowio_lock_fh      0044e87d f   libucrt:osfinfo.obj
 0001:0004d8a8       ___acrt_lowio_set_os_handle 0044e8a8 f   libucrt:osfinfo.obj
 0001:0004d95e       ___acrt_lowio_unlock_fh    0044e95e f   libucrt:osfinfo.obj
 0001:0004d989       __alloc_osfhnd             0044e989 f   libucrt:osfinfo.obj
 0001:0004dae0       __free_osfhnd              0044eae0 f   libucrt:osfinfo.obj
 0001:0004db95       __get_osfhandle            0044eb95 f   libucrt:osfinfo.obj
 0001:0004dc19       __open_osfhandle           0044ec19 f   libucrt:osfinfo.obj
 0001:0004dd95       ?dangerous_get_state_array@?$dual_state_global@H@__crt_state_management@@QAEPAHXZ 0044ed95 f i libucrt:txtmode.obj
 0001:0004dd98       ___acrt_initialize_fmode   0044ed98 f   libucrt:txtmode.obj
 0001:0004ddb3       ___p__fmode                0044edb3 f   libucrt:txtmode.obj
 0001:0004ddb9       ??$?RG@__crt_internal_free_policy@@QBEXQBG@Z 0044edb9 f i libucrt:initctype.obj
 0001:0004ddcf       ??$?RJ@__crt_internal_free_policy@@QBEXQBJ@Z 0044edcf f i libucrt:initctype.obj
 0001:0004dde5       ??0?$__crt_unique_heap_ptr@GU__crt_internal_free_policy@@@@QAE@QAG@Z 0044ede5 f i libucrt:initctype.obj
 0001:0004ddf9       ??0?$__crt_unique_heap_ptr@JU__crt_internal_free_policy@@@@QAE@QAJ@Z 0044edf9 f i libucrt:initctype.obj
 0001:0004de0d       ??1?$__crt_unique_heap_ptr@GU__crt_internal_free_policy@@@@QAE@XZ 0044ee0d f i libucrt:initctype.obj
 0001:0004de23       ??1?$__crt_unique_heap_ptr@JU__crt_internal_free_policy@@@@QAE@XZ 0044ee23 f i libucrt:initctype.obj
 0001:0004de39       ?detach@?$__crt_unique_heap_ptr@GU__crt_internal_free_policy@@@@QAEPAGXZ 0044ee39 f i libucrt:initctype.obj
 0001:0004de3f       ?detach@?$__crt_unique_heap_ptr@JU__crt_internal_free_policy@@@@QAEPAJXZ 0044ee3f f i libucrt:initctype.obj
 0001:0004de45       ?release@?$__crt_unique_heap_ptr@GU__crt_internal_free_policy@@@@QAEXXZ 0044ee45 f i libucrt:initctype.obj
 0001:0004de5b       ?release@?$__crt_unique_heap_ptr@JU__crt_internal_free_policy@@@@QAEXXZ 0044ee5b f i libucrt:initctype.obj
 0001:0004de71       ____lc_codepage_func       0044ee71 f   libucrt:initctype.obj
 0001:0004de9f       ____lc_collate_cp_func     0044ee9f f   libucrt:initctype.obj
 0001:0004decd       ____lc_locale_name_func    0044eecd f   libucrt:initctype.obj
 0001:0004defd       ____mb_cur_max_func        0044eefd f   libucrt:initctype.obj
 0001:0004df2b       ____mb_cur_max_l_func      0044ef2b f   libucrt:initctype.obj
 0001:0004df4a       ___acrt_locale_initialize_ctype 0044ef4a f   libucrt:initctype.obj
 0001:0004e4be       ??$?RUlconv@@@__crt_internal_free_policy@@QBEXQBUlconv@@@Z 0044f4be f i libucrt:initmon.obj
 0001:0004e4d4       ??0?$__crt_unique_heap_ptr@Ulconv@@U__crt_internal_free_policy@@@@QAE@QAUlconv@@@Z 0044f4d4 f i libucrt:initmon.obj
 0001:0004e4e8       ??1?$__crt_unique_heap_ptr@Ulconv@@U__crt_internal_free_policy@@@@QAE@XZ 0044f4e8 f i libucrt:initmon.obj
 0001:0004e4fe       ?detach@?$__crt_unique_heap_ptr@Ulconv@@U__crt_internal_free_policy@@@@QAEPAUlconv@@XZ 0044f4fe f i libucrt:initmon.obj
 0001:0004e504       ?release@?$__crt_unique_heap_ptr@Ulconv@@U__crt_internal_free_policy@@@@QAEXXZ 0044f504 f i libucrt:initmon.obj
 0001:0004e51a       ___acrt_locale_free_monetary 0044f51a f   libucrt:initmon.obj
 0001:0004e657       ___acrt_locale_initialize_monetary 0044f657 f   libucrt:initmon.obj
 0001:0004ead4       ___acrt_locale_free_numeric 0044fad4 f   libucrt:initnum.obj
 0001:0004eb57       ___acrt_locale_initialize_numeric 0044fb57 f   libucrt:initnum.obj
 0001:0004ee3f       ??$?RU__crt_lc_time_data@@@__crt_internal_free_policy@@QBEXQBU__crt_lc_time_data@@@Z 0044fe3f f i libucrt:inittime.obj
 0001:0004eedf       ??0?$__crt_unique_heap_ptr@U__crt_lc_time_data@@U__crt_internal_free_policy@@@@QAE@QAU__crt_lc_time_data@@@Z 0044fedf f i libucrt:inittime.obj
 0001:0004eef3       ??1?$__crt_unique_heap_ptr@U__crt_lc_time_data@@U__crt_internal_free_policy@@@@QAE@XZ 0044fef3 f i libucrt:inittime.obj
 0001:0004ef09       ??B?$__crt_unique_heap_ptr@U__crt_lc_time_data@@U__crt_internal_free_policy@@@@QBE_NXZ 0044ff09 f i libucrt:inittime.obj
 0001:0004ef10       ?detach@?$__crt_unique_heap_ptr@U__crt_lc_time_data@@U__crt_internal_free_policy@@@@QAEPAU__crt_lc_time_data@@XZ 0044ff10 f i libucrt:inittime.obj
 0001:0004ef44       ?get@?$__crt_unique_heap_ptr@U__crt_lc_time_data@@U__crt_internal_free_policy@@@@QBEPAU__crt_lc_time_data@@XZ 0044ff44 f i libucrt:inittime.obj
 0001:0004f2e9       ?is_valid@?$__crt_unique_heap_ptr@U__crt_lc_time_data@@U__crt_internal_free_policy@@@@QBE_NXZ 004502e9 f i libucrt:inittime.obj
 0001:0004f2f0       ?release@?$__crt_unique_heap_ptr@U__crt_lc_time_data@@U__crt_internal_free_policy@@@@QAEXXZ 004502f0 f i libucrt:inittime.obj
 0001:0004f306       ___acrt_locale_free_time   00450306 f   libucrt:inittime.obj
 0001:0004f423       ___acrt_locale_initialize_time 00450423 f   libucrt:inittime.obj
 0001:0004f5de       _wcsncat_s                 004505de f   libucrt:wcsncat_s.obj
 0001:0004f5eb       _wcscspn                   004505eb f   libucrt:wcscspn.obj
 0001:0004f65a       _wcspbrk                   0045065a f   libucrt:wcspbrk.obj
 0001:0004f6bb       ___acrt_GetStringTypeA     004506bb f   libucrt:getstringtypea.obj
 0001:0004f7fc       ___acrt_add_locale_ref     004507fc f   libucrt:locale_refcounting.obj
 0001:0004f898       ___acrt_free_locale        00450898 f   libucrt:locale_refcounting.obj
 0001:0004fa32       ___acrt_locale_add_lc_time_reference 00450a32 f   libucrt:locale_refcounting.obj
 0001:0004fa65       ___acrt_locale_free_lc_time_if_unreferenced 00450a65 f   libucrt:locale_refcounting.obj
 0001:0004faa2       ___acrt_locale_release_lc_time_reference 00450aa2 f   libucrt:locale_refcounting.obj
 0001:0004fad5       ___acrt_release_locale_ref 00450ad5 f   libucrt:locale_refcounting.obj
 0001:0004fb76       ___acrt_update_thread_locale_data 00450b76 f   libucrt:locale_refcounting.obj
 0001:0004fc17       __updatetlocinfoEx_nolock  00450c17 f   libucrt:locale_refcounting.obj
 0001:00050588       ___acrt_get_qualified_locale 00451588 f   libucrt:get_qualified_locale.obj
 0001:0005117a       ___acrt_get_qualified_locale_downlevel 0045217a f   libucrt:getqloc_downlevel.obj
 0001:000513e6       _localeconv                004523e6 f   libucrt:localeconv.obj
 0001:00051418       __recalloc                 00452418 f   libucrt:recalloc.obj
 0001:00051425       __recalloc_base            00452425 f   libucrt:recalloc.obj
 0001:000514ad       ___acrt_getheap            004524ad f   libucrt:heap_handle.obj
 0001:000514b3       ___acrt_initialize_heap    004524b3 f   libucrt:heap_handle.obj
 0001:000514c8       ___acrt_uninitialize_heap  004524c8 f   libucrt:heap_handle.obj
 0001:000514d4       __get_heap_handle          004524d4 f   libucrt:heap_handle.obj
 0001:000514da       ___acrt_execute_initializers 004524da f   libucrt:shared_initialization.obj
 0001:0005155c       ___acrt_execute_uninitializers 0045255c f   libucrt:shared_initialization.obj
 0001:00051599       ??$?B$$A6AHI@Z@__crt_fast_encoded_nullptr_t@@QBEP6AHI@ZXZ 00452599 f i libucrt:new_handler.obj
 0001:0005159f       ??$__crt_fast_decode_pointer@P6AHI@Z@@YAP6AHI@ZQ6AHI@Z@Z 0045259f f i libucrt:new_handler.obj
 0001:000515c0       ??$__crt_fast_encode_pointer@P6AHI@Z@@YAP6AHI@ZQ6AHI@Z@Z 004525c0 f i libucrt:new_handler.obj
 0001:000515e6       ?_set_new_handler@@YAP6AHI@ZH@Z 004525e6 f   libucrt:new_handler.obj
 0001:000515f6       ?initialize@?$dual_state_global@P6AHI@Z@__crt_state_management@@QAEXQ6AHI@Z@Z 004525f6 f i libucrt:new_handler.obj
 0001:00051619       ?value@?$dual_state_global@P6AHI@Z@__crt_state_management@@QAEAAP6AHI@ZXZ 00452619 f i libucrt:new_handler.obj
 0001:0005161c       ___acrt_initialize_new_handler 0045261c f   libucrt:new_handler.obj
 0001:0005162e       __callnewh                 0045262e f   libucrt:new_handler.obj
 0001:00051665       __query_new_handler        00452665 f   libucrt:new_handler.obj
 0001:000516d1       __set_new_handler          004526d1 f   libucrt:new_handler.obj
 0001:000518e1       ___control87_2             004528e1 f   libucrt:ieee87.obj
 0001:00051e9f       ___fpreset_sse2            00452e9f f   libucrt:ieee87.obj
 0001:000520e8       __clearfp                  004530e8 f   libucrt:ieee87.obj
 0001:000521fd       __control87                004531fd f   libucrt:ieee87.obj
 0001:000525be       __controlfp                004535be f   libucrt:ieee87.obj
 0001:000525de       __fpreset                  004535de f   libucrt:ieee87.obj
 0001:000526e9       __set_controlfp            004536e9 f   libucrt:ieee87.obj
 0001:00052778       __statusfp                 00453778 f   libucrt:ieee87.obj
 0001:00052839       __statusfp2                00453839 f   libucrt:ieee87.obj
 0001:000528b4       ___strncnt                 004538b4 f   libucrt:strncnt.obj
 0001:000528d7       ___acrt_GetStringTypeW     004538d7 f   libucrt:getstringtypew.obj
 0001:0005299e       ___acrt_DownlevelLCIDToLocaleName 0045399e f   libucrt:lcidtoname_downlevel.obj
 0001:00052a69       ___acrt_DownlevelLocaleNameToLCID 00453a69 f   libucrt:lcidtoname_downlevel.obj
 0001:00052c0d       __fclose_nolock            00453c0d f   libucrt:fclose.obj
 0001:00052c49       _fclose                    00453c49 f   libucrt:fclose.obj
 0001:00052e3e       __commit                   00453e3e f   libucrt:commit.obj
 0001:000538c4       __utf8_no_of_trailbytes    004548c4 f i libucrt:write.obj
 0001:000538d9       __write                    004548d9 f   libucrt:write.obj
 0001:0005391d       __write_internal           0045491d f   libucrt:write.obj
 0001:00053a72       __write_nolock             00454a72 f   libucrt:write.obj
 0001:0005439f       __read                     0045539f f   libucrt:read.obj
 0001:000544fe       __read_nolock              004554fe f   libucrt:read.obj
 0001:0005496b       ___acrt_stdio_allocate_buffer_nolock 0045596b f   libucrt:_getbuf.obj
 0001:00054aba       ___acrt_fp_strflt_to_string 00455aba f   libucrt:_fptostr.obj
 0001:00056360       ??0big_integer@__crt_strtox@@QAE@ABU01@@Z 00457360 f i libucrt:cfout.obj
 0001:000563a0       ??0big_integer@__crt_strtox@@QAE@XZ 004573a0 f i libucrt:cfout.obj
 0001:00056450       ??4big_integer@__crt_strtox@@QAEAAU01@ABU01@@Z 00457450 f i libucrt:cfout.obj
 0001:00056490       ??8__crt_strtox@@YA_NABUbig_integer@0@0@Z 00457490 f i libucrt:cfout.obj
 0001:000564e0       ??9__crt_strtox@@YA_NABUbig_integer@0@0@Z 004574e0 f i libucrt:cfout.obj
 0001:00056530       ?add_carry@__crt_strtox@@YAIAAIII@Z 00457530 f i libucrt:cfout.obj
 0001:00056560       ?add_multiply_carry@__crt_strtox@@YAIAAIIII@Z 00457560 f i libucrt:cfout.obj
 0001:00056590       ?bit_scan_reverse@__crt_strtox@@YAII@Z 00457590 f i libucrt:cfout.obj
 0001:000565c0       ?count_sequential_high_zeroes@__crt_strtox@@YAII@Z 004575c0 f i libucrt:cfout.obj
 0001:000565f0       ?divide@__crt_strtox@@YA_KAAUbig_integer@1@ABU21@@Z 004575f0 f i libucrt:cfout.obj
 0001:00056bd0       ?is_zero@__crt_strtox@@YA_NABUbig_integer@1@@Z 00457bd0 f i libucrt:cfout.obj
 0001:00056bf0       ?make_big_integer@__crt_strtox@@YA?AUbig_integer@1@_K@Z 00457bf0 f i libucrt:cfout.obj
 0001:00056c20       ?make_big_integer_power_of_two@__crt_strtox@@YA?AUbig_integer@1@I@Z 00457c20 f i libucrt:cfout.obj
 0001:00056c80       ?multiply@__crt_strtox@@YA_NAAUbig_integer@1@ABU21@@Z 00457c80 f i libucrt:cfout.obj
 0001:000570c0       ?multiply@__crt_strtox@@YA_NAAUbig_integer@1@I@Z 004580c0 f i libucrt:cfout.obj
 0001:000571c0       ?multiply_64_32@__crt_strtox@@YA_K_KI@Z 004581c0 f i libucrt:cfout.obj
 0001:000571e0       ?multiply_by_power_of_ten@__crt_strtox@@YA_NAAUbig_integer@1@I@Z 004581e0 f i libucrt:cfout.obj
 0001:000578e0       ?multiply_core@__crt_strtox@@YAIQAIII@Z 004588e0 f i libucrt:cfout.obj
 0001:00057930       ?shift_left@__crt_strtox@@YA_NAAUbig_integer@1@I@Z 00458930 f i libucrt:cfout.obj
 0001:00057aaa       ___acrt_fltout             00458aaa f   libucrt:cfout.obj
 0001:000596ad       ___fpe_flt_rounds          0045a6ad f   libucrt:fegetround.obj
 0001:000596ee       _fegetround                0045a6ee f   libucrt:fegetround.obj
 0001:000596fe       ?__c32rtomb_utf8@__crt_mbstring@@YAIPAD_UPAU_Mbstatet@@AAV__crt_cached_ptd_host@@@Z 0045a6fe f   libucrt:c32rtomb.obj
 0001:000597da       _c32rtomb                  0045a7da f   libucrt:c32rtomb.obj
 0001:00059855       ?__mbrtowc_utf8@__crt_mbstring@@YAIPA_WPBDIPAU_Mbstatet@@AAV__crt_cached_ptd_host@@@Z 0045a855 f   libucrt:mbrtowc.obj
 0001:000598a8       ?__mbsrtowcs_utf8@__crt_mbstring@@YAIPA_WPAPBDIPAU_Mbstatet@@AAV__crt_cached_ptd_host@@@Z 0045a8a8 f   libucrt:mbrtowc.obj
 0001:00059f30       _btowc                     0045af30 f   libucrt:mbrtowc.obj
 0001:00059fbd       _mbrlen                    0045afbd f   libucrt:mbrtowc.obj
 0001:0005a017       _mbrtowc                   0045b017 f   libucrt:mbrtowc.obj
 0001:0005a097       _mbsrtowcs                 0045b097 f   libucrt:mbrtowc.obj
 0001:0005a0df       _mbsrtowcs_s               0045b0df f   libucrt:mbrtowc.obj
 0001:0005a5a9       ?has_big_buffer@__crt_stdio_stream@@QBE_NXZ 0045b5a9 f i libucrt:_flsbuf.obj
 0001:0005a65e       ___acrt_stdio_flush_and_write_narrow_nolock 0045b65e f   libucrt:_flsbuf.obj
 0001:0005a66b       ___acrt_stdio_flush_and_write_wide_nolock 0045b66b f   libucrt:_flsbuf.obj
 0001:0005a678       __isatty                   0045b678 f   libucrt:isatty.obj
 0001:0005a6e3       ___acrt_CompareStringW     0045b6e3 f   libucrt:comparestringw.obj
 0001:0005a761       ___ascii_wcsnicmp          0045b761 f   libucrt:wcsnicmp.obj
 0001:0005a7c3       __towlower_fast_internal   0045b7c3 f i libucrt:wcsnicmp.obj
 0001:0005a7f8       __towlower_internal        0045b7f8 f i libucrt:wcsnicmp.obj
 0001:0005a846       __wcsnicmp                 0045b846 f   libucrt:wcsnicmp.obj
 0001:0005a8a5       __wcsnicmp_l               0045b8a5 f   libucrt:wcsnicmp.obj
 0001:0005a9ac       __strnicmp                 0045b9ac f   libucrt:strnicmp.obj
 0001:0005aa34       __strnicmp_l               0045ba34 f   libucrt:strnicmp.obj
 0001:0005ae77       ___acrt_CompareStringA     0045be77 f   libucrt:comparestringa.obj
 0001:0005aece       ___acrt_OutputDebugStringA@4 0045bece f   libucrt:outputdebugstringa.obj
 0001:0005b050       _qsort                     0045c050 f   libucrt:qsort.obj
 0001:0005b75d       _strncpy_s                 0045c75d f   libucrt:strncpy_s.obj
 0001:0005b770       _strpbrk                   0045c770 f   libucrt:strpbrk.obj
 0001:0005b7c0       __mbsdec                   0045c7c0 f   libucrt:mbsdec.obj
 0001:0005b7dc       __mbsdec_l                 0045c7dc f   libucrt:mbsdec.obj
 0001:0005b89e       ___acrt_SetEnvironmentVariableA 0045c89e f   libucrt:setenvironmentvariablea.obj
 0001:0005ba6e       ___acrt_GetLocaleInfoA     0045ca6e f   libucrt:getlocaleinfoa.obj
 0001:0005c2c9       __i64toa                   0045d2c9 f   libucrt:xtoa.obj
 0001:0005c31a       __i64toa_s                 0045d31a f   libucrt:xtoa.obj
 0001:0005c368       __i64tow                   0045d368 f   libucrt:xtoa.obj
 0001:0005c3b9       __i64tow_s                 0045d3b9 f   libucrt:xtoa.obj
 0001:0005c407       __itoa                     0045d407 f   libucrt:xtoa.obj
 0001:0005c449       __itoa_s                   0045d449 f   libucrt:xtoa.obj
 0001:0005c488       __itow                     0045d488 f   libucrt:xtoa.obj
 0001:0005c4ca       __itow_s                   0045d4ca f   libucrt:xtoa.obj
 0001:0005c509       __ltoa                     0045d509 f   libucrt:xtoa.obj
 0001:0005c54b       __ltoa_s                   0045d54b f   libucrt:xtoa.obj
 0001:0005c58a       __ltow                     0045d58a f   libucrt:xtoa.obj
 0001:0005c5cc       __ltow_s                   0045d5cc f   libucrt:xtoa.obj
 0001:0005c60b       __ui64toa                  0045d60b f   libucrt:xtoa.obj
 0001:0005c635       __ui64toa_s                0045d635 f   libucrt:xtoa.obj
 0001:0005c65d       __ui64tow                  0045d65d f   libucrt:xtoa.obj
 0001:0005c687       __ui64tow_s                0045d687 f   libucrt:xtoa.obj
 0001:0005c6af       __ultoa                    0045d6af f   libucrt:xtoa.obj
 0001:0005c6d5       __ultoa_s                  0045d6d5 f   libucrt:xtoa.obj
 0001:0005c6f9       __ultow                    0045d6f9 f   libucrt:xtoa.obj
 0001:0005c71f       __ultow_s                  0045d71f f   libucrt:xtoa.obj
 0001:0005c743       ___ascii_wcsicmp           0045d743 f   libucrt:wcsicmp.obj
 0001:0005c78f       __wcsicmp                  0045d78f f   libucrt:wcsicmp.obj
 0001:0005c7ea       __wcsicmp_l                0045d7ea f   libucrt:wcsicmp.obj
 0001:0005c8d0       __msize                    0045d8d0 f   libucrt:msize.obj
 0001:0005c8dd       __msize_base               0045d8dd f   libucrt:msize.obj
 0001:0005c91c       __realloc_base             0045d91c f   libucrt:realloc_base.obj
 0001:0005c99f       ___clrfp_sse2              0045d99f f   libucrt:fpctrl.obj
 0001:0005c9dd       ___ctrlfp_sse2             0045d9dd f   libucrt:fpctrl.obj
 0001:0005ca26       ___fclrf_sse2              0045da26 f   libucrt:fpctrl.obj
 0001:0005ca4a       ___get_fpsr_sse2           0045da4a f   libucrt:fpctrl.obj
 0001:0005ca6d       ___set_fpsr_sse2           0045da6d f   libucrt:fpctrl.obj
 0001:0005cb0d       ___set_statfp_sse2         0045db0d f   libucrt:fpctrl.obj
 0001:0005cb2e       ___statfp_sse2             0045db2e f   libucrt:fpctrl.obj
 0001:0005cb48       __clrfp                    0045db48 f   libucrt:fpctrl.obj
 0001:0005cb5d       __ctrlfp                   0045db5d f   libucrt:fpctrl.obj
 0001:0005cb91       __set_statfp               0045db91 f   libucrt:fpctrl.obj
 0001:0005cc00       __statfp                   0045dc00 f   libucrt:fpctrl.obj
 0001:0005ce29       __close                    0045de29 f   libucrt:close.obj
 0001:0005ce65       __close_internal           0045de65 f   libucrt:close.obj
 0001:0005cf30       __close_nolock             0045df30 f   libucrt:close.obj
 0001:0005cf6c       __close_nolock_internal    0045df6c f   libucrt:close.obj
 0001:0005d034       ??$?RU__crt_stdio_stream_data@@@__crt_internal_free_policy@@QBEXQBU__crt_stdio_stream_data@@@Z 0045e034 f i libucrt:stream.obj
 0001:0005d04a       ??0?$__crt_unique_heap_ptr@U__crt_stdio_stream_data@@U__crt_internal_free_policy@@@@QAE@QAU__crt_stdio_stream_data@@@Z 0045e04a f i libucrt:stream.obj
 0001:0005d05e       ??0__crt_stdio_stream@@QAE@XZ 0045e05e f i libucrt:stream.obj
 0001:0005d064       ??1?$__crt_unique_heap_ptr@U__crt_stdio_stream_data@@U__crt_internal_free_policy@@@@QAE@XZ 0045e064 f i libucrt:stream.obj
 0001:0005d07a       ?__acrt_stdio_allocate_stream@@YA?AV__crt_stdio_stream@@XZ 0045e07a f   libucrt:stream.obj
 0001:0005d0fd       ?__acrt_stdio_free_stream@@YAXV__crt_stdio_stream@@@Z 0045e0fd f   libucrt:stream.obj
 0001:0005d146       ?deallocate@__crt_stdio_stream@@QAEXXZ 0045e146 f i libucrt:stream.obj
 0001:0005d152       ?detach@?$__crt_unique_heap_ptr@U__crt_stdio_stream_data@@U__crt_internal_free_policy@@@@QAEPAU__crt_stdio_stream_data@@XZ 0045e152 f i libucrt:stream.obj
 0001:0005d24a       ?lock@__crt_stdio_stream@@QBEXXZ 0045e24a f i libucrt:stream.obj
 0001:0005d255       ?release@?$__crt_unique_heap_ptr@U__crt_stdio_stream_data@@U__crt_internal_free_policy@@@@QAEXXZ 0045e255 f i libucrt:stream.obj
 0001:0005d26b       ?try_allocate@__crt_stdio_stream@@QAE_NXZ 0045e26b f i libucrt:stream.obj
 0001:0005d293       ?unlock@__crt_stdio_stream@@QBEXXZ 0045e293 f i libucrt:stream.obj
 0001:0005d774       __lseek                    0045e774 f   libucrt:lseek.obj
 0001:0005d7b8       __lseek_internal           0045e7b8 f   libucrt:lseek.obj
 0001:0005d7c5       __lseek_nolock             0045e7c5 f   libucrt:lseek.obj
 0001:0005d809       __lseek_nolock_internal    0045e809 f   libucrt:lseek.obj
 0001:0005d816       __lseeki64                 0045e816 f   libucrt:lseek.obj
 0001:0005d866       __lseeki64_internal        0045e866 f   libucrt:lseek.obj
 0001:0005d88b       __lseeki64_nolock          0045e88b f   libucrt:lseek.obj
 0001:0005d8db       __lseeki64_nolock_internal 0045e8db f   libucrt:lseek.obj
 0001:0005da17       __putwch                   0045ea17 f   libucrt:putwch.obj
 0001:0005da4f       __putwch_nolock            0045ea4f f   libucrt:putwch.obj
 0001:0005da8d       __putwch_nolock_internal   0045ea8d f   libucrt:putwch.obj
 0001:0005daa1       _fegetenv                  0045eaa1 f   libucrt:fegetenv.obj
 0001:0005dac5       _fesetenv                  0045eac5 f   libucrt:fesetenv.obj
 0001:0005db24       _feholdexcept              0045eb24 f   libucrt:feholdexcept.obj
 0001:0005db90       __CIlog10                  0045eb90 f   libucrt:log10_impl.obj
 0001:0005dbcb       __CIlog10_default          0045ebcb f   libucrt:log10_impl.obj
 0001:0005dbdf       __log10_default            0045ebdf     libucrt:log10_impl.obj
 0001:0005dcf0       _ceil                      0045ecf0 f   libucrt:ceil_pentium4.obj
 0001:0005dd30       __ceil_pentium4            0045ed30 f   libucrt:ceil_pentium4.obj
 0001:0005de54       ??$__acrt_fenv_shift_bits@W4__acrt_fenv_abstract_control@@@@YA?AW4__acrt_fenv_abstract_control@@W40@0I@Z 0045ee54 f i libucrt:_fenvutils.obj
 0001:0005de6a       ??$__acrt_fenv_shift_bits@W4__acrt_fenv_abstract_status@@@@YA?AW4__acrt_fenv_abstract_status@@W40@0I@Z 0045ee6a f i libucrt:_fenvutils.obj
 0001:0005de80       ??$__acrt_fenv_translate_bit@W4__acrt_fenv_abstract_control@@W4__acrt_fenv_machine_sse_control@@@@YA?AW4__acrt_fenv_abstract_control@@W4__acrt_fenv_machine_sse_control@@0W40@1@Z 0045ee80 f i libucrt:_fenvutils.obj
 0001:0005de9e       ??$__acrt_fenv_translate_bit@W4__acrt_fenv_abstract_control@@W4__acrt_fenv_machine_x87_control@@@@YA?AW4__acrt_fenv_abstract_control@@W4__acrt_fenv_machine_x87_control@@0W40@1@Z 0045ee9e f i libucrt:_fenvutils.obj
 0001:0005debc       ??$__acrt_fenv_translate_bit@W4__acrt_fenv_abstract_status@@W4__acrt_fenv_machine_sse_status@@@@YA?AW4__acrt_fenv_abstract_status@@W4__acrt_fenv_machine_sse_status@@0W40@1@Z 0045eebc f i libucrt:_fenvutils.obj
 0001:0005ded6       ??$__acrt_fenv_translate_bit@W4__acrt_fenv_abstract_status@@W4__acrt_fenv_machine_x87_status@@@@YA?AW4__acrt_fenv_abstract_status@@W4__acrt_fenv_machine_x87_status@@0W40@1@Z 0045eed6 f i libucrt:_fenvutils.obj
 0001:0005def0       ??$__acrt_fenv_translate_bit@W4__acrt_fenv_machine_sse_control@@W4__acrt_fenv_abstract_control@@@@YA?AW4__acrt_fenv_machine_sse_control@@W4__acrt_fenv_abstract_control@@0W40@1@Z 0045eef0 f i libucrt:_fenvutils.obj
 0001:0005df0c       ??$__acrt_fenv_translate_bit@W4__acrt_fenv_machine_sse_status@@W4__acrt_fenv_abstract_status@@@@YA?AW4__acrt_fenv_machine_sse_status@@W4__acrt_fenv_abstract_status@@0W40@1@Z 0045ef0c f i libucrt:_fenvutils.obj
 0001:0005df26       ??$__acrt_fenv_translate_bit@W4__acrt_fenv_machine_x87_control@@W4__acrt_fenv_abstract_control@@@@YA?AW4__acrt_fenv_machine_x87_control@@W4__acrt_fenv_abstract_control@@0W40@1@Z 0045ef26 f i libucrt:_fenvutils.obj
 0001:0005df42       ??$__acrt_fenv_translate_bit@W4__acrt_fenv_machine_x87_status@@W4__acrt_fenv_abstract_status@@@@YA?AW4__acrt_fenv_machine_x87_status@@W4__acrt_fenv_abstract_status@@0W40@1@Z 0045ef42 f i libucrt:_fenvutils.obj
 0001:0005df5c       ??$__acrt_fenv_unshift_bits@W4__acrt_fenv_abstract_control@@@@YA?AW4__acrt_fenv_abstract_control@@W40@0I@Z 0045ef5c f i libucrt:_fenvutils.obj
 0001:0005df72       ??$__acrt_fenv_unshift_bits@W4__acrt_fenv_abstract_status@@@@YA?AW4__acrt_fenv_abstract_status@@W40@0I@Z 0045ef72 f i libucrt:_fenvutils.obj
 0001:0005e461       ??I@YA?AW4__acrt_fenv_abstract_control@@W40@0@Z 0045f461 f i libucrt:_fenvutils.obj
 0001:0005e471       ??I@YA?AW4__acrt_fenv_abstract_status@@W40@0@Z 0045f471 f i libucrt:_fenvutils.obj
 0001:0005e481       ??I@YA?AW4__acrt_fenv_machine_sse_control@@W40@0@Z 0045f481 f i libucrt:_fenvutils.obj
 0001:0005e491       ??I@YA?AW4__acrt_fenv_machine_sse_status@@W40@0@Z 0045f491 f i libucrt:_fenvutils.obj
 0001:0005e4a1       ??I@YA?AW4__acrt_fenv_machine_x87_control@@W40@0@Z 0045f4a1 f i libucrt:_fenvutils.obj
 0001:0005e4b1       ??I@YA?AW4__acrt_fenv_machine_x87_status@@W40@0@Z 0045f4b1 f i libucrt:_fenvutils.obj
 0001:0005e4c1       ??U@YA?AW4__acrt_fenv_abstract_control@@W40@0@Z 0045f4c1 f i libucrt:_fenvutils.obj
 0001:0005e4d1       ??U@YA?AW4__acrt_fenv_abstract_status@@W40@0@Z 0045f4d1 f i libucrt:_fenvutils.obj
 0001:0005e4e1       ??U@YA?AW4__acrt_fenv_machine_sse_control@@W40@0@Z 0045f4e1 f i libucrt:_fenvutils.obj
 0001:0005e4f1       ??U@YA?AW4__acrt_fenv_machine_x87_control@@W40@0@Z 0045f4f1 f i libucrt:_fenvutils.obj
 0001:0005e501       ??_5@YAAAW4__acrt_fenv_abstract_control@@AAW40@W40@@Z 0045f501 f i libucrt:_fenvutils.obj
 0001:0005e513       ??_5@YAAAW4__acrt_fenv_abstract_status@@AAW40@W40@@Z 0045f513 f i libucrt:_fenvutils.obj
 0001:0005e525       ??_5@YAAAW4__acrt_fenv_machine_sse_control@@AAW40@W40@@Z 0045f525 f i libucrt:_fenvutils.obj
 0001:0005e53a       ??_5@YAAAW4__acrt_fenv_machine_sse_status@@AAW40@W40@@Z 0045f53a f i libucrt:_fenvutils.obj
 0001:0005e54c       ??_5@YAAAW4__acrt_fenv_machine_x87_control@@AAW40@W40@@Z 0045f54c f i libucrt:_fenvutils.obj
 0001:0005e561       ??_5@YAAAW4__acrt_fenv_machine_x87_status@@AAW40@W40@@Z 0045f561 f i libucrt:_fenvutils.obj
 0001:0005e573       ?__acrt_fenv_shift_abstract_sse_control@@YA?AW4__acrt_fenv_abstract_control@@W41@@Z 0045f573 f i libucrt:_fenvutils.obj
 0001:0005e597       ?__acrt_fenv_shift_abstract_sse_status@@YA?AW4__acrt_fenv_abstract_status@@W41@@Z 0045f597 f i libucrt:_fenvutils.obj
 0001:0005e5ab       ?__acrt_fenv_shift_abstract_x87_control@@YA?AW4__acrt_fenv_abstract_control@@W41@@Z 0045f5ab f i libucrt:_fenvutils.obj
 0001:0005e5cf       ?__acrt_fenv_shift_abstract_x87_status@@YA?AW4__acrt_fenv_abstract_status@@W41@@Z 0045f5cf f i libucrt:_fenvutils.obj
 0001:0005e5e3       ?__acrt_fenv_unshift_abstract_sse_control@@YA?AW4__acrt_fenv_abstract_control@@W41@@Z 0045f5e3 f i libucrt:_fenvutils.obj
 0001:0005e609       ?__acrt_fenv_unshift_abstract_sse_status@@YA?AW4__acrt_fenv_abstract_status@@W41@@Z 0045f609 f i libucrt:_fenvutils.obj
 0001:0005e61d       ?__acrt_fenv_unshift_abstract_x87_control@@YA?AW4__acrt_fenv_abstract_control@@W41@@Z 0045f61d f i libucrt:_fenvutils.obj
 0001:0005e643       ?__acrt_fenv_unshift_abstract_x87_status@@YA?AW4__acrt_fenv_abstract_status@@W41@@Z 0045f643 f i libucrt:_fenvutils.obj
 0001:0005ec95       ___acrt_fenv_expand_round_control 0045fc95 f   libucrt:_fenvutils.obj
 0001:0005ecd8       ___acrt_fenv_get_common_round_control 0045fcd8 f   libucrt:_fenvutils.obj
 0001:0005ed02       ___acrt_fenv_get_control   0045fd02 f   libucrt:_fenvutils.obj
 0001:0005eda2       ___acrt_fenv_get_fp_status_word_from_exception_mask 0045fda2 f   libucrt:_fenvutils.obj
 0001:0005edc2       ___acrt_fenv_get_status    0045fdc2 f   libucrt:_fenvutils.obj
 0001:0005ee96       ___acrt_fenv_set_control   0045fe96 f   libucrt:_fenvutils.obj
 0001:0005ef2f       ___acrt_fenv_set_status    0045ff2f f   libucrt:_fenvutils.obj
 0001:0005f06a       ?reset_and_return@__crt_mbstring@@YAIIPAU_Mbstatet@@@Z 0046006a f   libucrt:common_utf8.obj
 0001:0005f083       ?return_illegal_sequence@__crt_mbstring@@YAIPAU_Mbstatet@@AAV__crt_cached_ptd_host@@@Z 00460083 f   libucrt:common_utf8.obj
 0001:0005f0ad       ?__mbrtoc32_utf8@__crt_mbstring@@YAIPA_UPBDIPAU_Mbstatet@@AAV__crt_cached_ptd_host@@@Z 004600ad f   libucrt:mbrtoc32.obj
 0001:0005f2ca       _mbrtoc32                  004602ca f   libucrt:mbrtoc32.obj
 0001:0005f312       __towlower_l               00460312 f   libucrt:towlower.obj
 0001:0005f41b       _towlower                  0046041b f   libucrt:towlower.obj
 0001:0005f440       ___ascii_strnicmp          00460440 f   libucrt:_strnicm.obj
 0001:0005f804       __mbstowcs_l               00460804 f   libucrt:mbstowcs.obj
 0001:0005f84a       __mbstowcs_s_l             0046084a f   libucrt:mbstowcs.obj
 0001:0005f897       _mbstowcs                  00460897 f   libucrt:mbstowcs.obj
 0001:0005f8db       _mbstowcs_s                004608db f   libucrt:mbstowcs.obj
 0001:0005fa01       ___dcrt_lowio_ensure_console_output_initialized 00460a01 f   libucrt:initcon.obj
 0001:0005fa27       ___dcrt_terminate_console_output 00460a27 f   libucrt:initcon.obj
 0001:0005fa43       ___dcrt_write_console      00460a43 f   libucrt:initcon.obj
 0001:0005faad       ___acrt_initialize_sse2    00460aad f   libucrt:mathfcns.obj
 0001:0005fac1       __set_SSE2_enable          00460ac1 f   libucrt:mathfcns.obj
 0001:0005faf0       __CIlog10_pentium4         00460af0 f   libucrt:log10_pentium4.obj
 0001:0005fb08       __log10_pentium4           00460b08     libucrt:log10_pentium4.obj
 0001:0005fe50       __fFEXP                    00460e50 f   libucrt:87tran.obj
 0001:0005fea7       __rtinfpopse               00460ea7     libucrt:87tran.obj
 0001:0005fea9       __rtinfnpopse              00460ea9     libucrt:87tran.obj
 0001:0005feb9       __fFLN                     00460eb9     libucrt:87tran.obj
 0001:0005ff6e       __rtinfpop                 00460f6e     libucrt:87tran.obj
 0001:0005ff70       __rtinfnpop                00460f70     libucrt:87tran.obj
 0001:0005ff80       __rtforexpinf              00460f80 f   libucrt:87tran.obj
 0001:0005ff8d       __ffexpm1                  00460f8d     libucrt:87tran.obj
 0001:000600c0       __trandisp1                004610c0 f   libucrt:87disp.obj
 0001:00060135       __trandisp2                00461135 f   libucrt:87disp.obj
 0001:000601cf       __rttospopde               004611cf     libucrt:87disp.obj
 0001:000601d4       __rttospop                 004611d4     libucrt:87disp.obj
 0001:000601e0       __rtnospop                 004611e0 f   libucrt:87disp.obj
 0001:000601f0       __rttosnpop                004611f0 f   libucrt:87disp.obj
 0001:000601f1       __rtnospopde               004611f1     libucrt:87disp.obj
 0001:000601f8       __rtzeropop                004611f8     libucrt:87disp.obj
 0001:000601fa       __rtzeronpop               004611fa     libucrt:87disp.obj
 0001:00060200       __rtzerospop               00461200 f   libucrt:87disp.obj
 0001:0006020d       __rtonepop                 0046120d     libucrt:87disp.obj
 0001:00060210       __rtonenpop                00461210 f   libucrt:87disp.obj
 0001:00060220       __tosnan1                  00461220 f   libucrt:87disp.obj
 0001:00060250       __nosnan2                  00461250 f   libucrt:87disp.obj
 0001:00060260       __tosnan2                  00461260 f   libucrt:87disp.obj
 0001:00060290       __nan2                     00461290 f   libucrt:87disp.obj
 0001:000602d0       __rtindfpop                004612d0 f   libucrt:87disp.obj
 0001:000602d2       __rtindfnpop               004612d2     libucrt:87disp.obj
 0001:000602e3       __rttosnpopde              004612e3     libucrt:87disp.obj
 0001:000602f0       __rtatan2inf               004612f0 f   libucrt:87disp.obj
 0001:0006030d       __rtchsifneg               0046130d     libucrt:87disp.obj
 0001:000603a9       ___setfflag                004613a9 f   libucrt:fp_flags.obj
 0001:000603d0       __twoToTOS                 004613d0 f   libucrt:common.obj
 0001:000603e5       __load_CW                  004613e5 f   libucrt:common.obj
 0001:000603fc       __convertTOStoQNaN         004613fc f   libucrt:common.obj
 0001:00060415       __fload_withFB             00461415 f   libucrt:common.obj
 0001:00060458       __checkTOS_withFB          00461458 f   libucrt:common.obj
 0001:0006046e       __fast_exit                0046146e f   libucrt:common.obj
 0001:0006047b       __math_exit                0046147b f   libucrt:common.obj
 0001:000604a5       __check_overflow_exit      004614a5 f   libucrt:common.obj
 0001:000604b9       __check_range_exit         004614b9 f   libucrt:common.obj
 0001:000605c0       __startTwoArgErrorHandling 004615c0 f   libucrt:genexcep.obj
 0001:000605d7       __startOneArgErrorHandling 004615d7 f   libucrt:genexcep.obj
 0001:00060627       ___libm_error_support      00461627 f   libucrt:libm_error.obj
 0001:00060898       ___libm_setusermatherr     00461898 f   libucrt:libm_error.obj
 0001:000608c8       __ceil_default             004618c8 f   libucrt:ceil.obj
 0001:000609b5       ___acrt_LCMapStringW       004619b5 f   libucrt:lcmapstringw.obj
 0001:00060a02       __d_inttype                00461a02 f   libucrt:powhlp.obj
 0001:00060a84       __powhlp                   00461a84 f   libucrt:powhlp.obj
 0001:00060bf9       __87except                 00461bf9 f   libucrt:87except.obj
 0001:00060d4d       __frnd                     00461d4d f   libucrt:frnd.obj
 0001:00060d66       ?should_round_up@__crt_strtox@@YA_N_N000@Z 00461d66 f i libucrt:fpexcept.obj
 0001:00060dc6       __errcode                  00461dc6 f   libucrt:fpexcept.obj
 0001:00060e07       __except1                  00461e07 f   libucrt:fpexcept.obj
 0001:00060f08       __except2                  00461f08 f   libucrt:fpexcept.obj
 0001:00061051       __handle_exc               00462051 f   libucrt:fpexcept.obj
 0001:00061371       __handle_qnan2             00462371 f   libucrt:fpexcept.obj
 0001:00061381       __raise_exc                00462381 f   libucrt:fpexcept.obj
 0001:000613ac       __raise_exc_ex             004623ac f   libucrt:fpexcept.obj
 0001:00061759       __raise_excf               00462759 f   libucrt:fpexcept.obj
 0001:00061784       __set_errno_from_matherr   00462784 f   libucrt:fpexcept.obj
 0001:000617c1       __umatherr                 004627c1 f   libucrt:fpexcept.obj
 0001:00061889       __add_exp                  00462889 f   libucrt:util.obj
 0001:000618c3       __decomp                   004628c3 f   libucrt:util.obj
 0001:000619c9       __get_exp                  004629c9 f   libucrt:util.obj
 0001:000619e7       __set_bexp                 004629e7 f   libucrt:util.obj
 0001:00061a17       __set_exp                  00462a17 f   libucrt:util.obj
 0001:00061a4f       __sptype                   00462a4f f   libucrt:util.obj
 0001:00061aca       __chgsign                  00462aca f   libucrt:ieeemisc.obj
 0001:00061afc       __chgsignf                 00462afc f   libucrt:ieeemisc.obj
 0001:00061b25       __copysign                 00462b25 f   libucrt:ieeemisc.obj
 0001:00061b50       __copysignf                00462b50 f   libucrt:ieeemisc.obj
 0001:00061b73       __finite                   00462b73 f   libucrt:ieeemisc.obj
 0001:00061b93       __fpclass                  00462b93 f   libucrt:ieeemisc.obj
 0001:00061c60       __isnan                    00462c60 f   libucrt:ieeemisc.obj
 0001:00061ca4       __logb                     00462ca4 f   libucrt:ieeemisc.obj
 0001:00061da8       __nextafter                00462da8 f   libucrt:ieeemisc.obj
 0001:00061dce       __scalb                    00462dce f   libucrt:ieeemisc.obj
 0001:00061dee       _ldexp                     00462dee f   libucrt:ldexp.obj
 0001:0006205d       _nextafter                 0046305d f   libucrt:nextafter.obj
 0001:00062083       _nexttoward                00463083 f   libucrt:nexttoward.obj
 0001:000622e8       __d_int                    004632e8 f   libucrt:_test.obj
 0001:0006242f       __dtest                    0046342f f   libucrt:_test.obj
 0001:000624ac       __fd_int                   004634ac f   libucrt:_test.obj
 0001:000625ac       __fdtest                   004635ac f   libucrt:_test.obj
 0001:0006260d       __fperrraise               0046360d f   libucrt:_test.obj
 0001:00062636       __ld_int                   00463636 f   libucrt:_test.obj
 0001:00062643       __ldtest                   00463643 f   libucrt:_test.obj
 0001:00062650       __dclass                   00463650 f   libucrt:nan.obj
 0001:00062665       __dpcomp                   00463665 f   libucrt:nan.obj
 0001:000626d0       __dsign                    004636d0 f   libucrt:nan.obj
 0001:000626e4       _nan                       004636e4 f   libucrt:nan.obj
 0001:000626eb       __ldclass                  004636eb f   libucrt:nanl.obj
 0001:00062700       __ldpcomp                  00463700 f   libucrt:nanl.obj
 0001:0006276b       __ldsign                   0046376b f   libucrt:nanl.obj
 0001:0006277f       _nanl                      0046377f f   libucrt:nanl.obj
 0001:00062786       ??_4@YAAAW4__acrt_fenv_abstract_status@@AAW40@W40@@Z 00463786 f i libucrt:fegetexceptflag.obj
 0001:00062798       _fegetexceptflag           00463798 f   libucrt:fegetexceptflag.obj
 0001:000627d5       ??S@YA?AW4__acrt_fenv_abstract_status@@W40@@Z 004637d5 f i libucrt:fesetexceptflag.obj
 0001:000627e4       _fesetexceptflag           004637e4 f   libucrt:fesetexceptflag.obj
 0001:0006285e       _fetestexcept              0046385e f   libucrt:fetestexcept.obj
 0001:00062890       __FindPESection            00463890 f   LIBCMT:pesect.obj
 0001:000628f0       __IsNonwritableInCurrentImage 004638f0 f   LIBCMT:pesect.obj
 0001:000629e0       __ValidateImageBase        004639e0 f   LIBCMT:pesect.obj
 0001:00062a1d       ??1type_info@@UAE@XZ       00463a1d f   LIBCMT:std_type_info_static.obj
 0001:00062a24       ??_Etype_info@@UAEPAXI@Z   00463a24 f i LIBCMT:std_type_info_static.obj
 0001:00062a24       ??_Gtype_info@@UAEPAXI@Z   00463a24 f i LIBCMT:std_type_info_static.obj
 0001:00062a4f       __EH_epilog3               00463a4f f   LIBCMT:ehprolg3.obj
 0001:00062a68       __EH_epilog3_GS            00463a68 f   LIBCMT:ehprolg3.obj
 0001:00062a7a       __EH_epilog3_catch_GS      00463a7a f   LIBCMT:ehprolg3.obj
 0001:00062a8c       __EH_prolog3               00463a8c f   LIBCMT:ehprolg3.obj
 0001:00062acb       __EH_prolog3_GS            00463acb f   LIBCMT:ehprolg3.obj
 0001:00062b0e       __EH_prolog3_catch         00463b0e f   LIBCMT:ehprolg3.obj
 0001:00062b51       __EH_prolog3_catch_GS      00463b51 f   LIBCMT:ehprolg3.obj
 0001:00062ba0       __aulldvrm                 00463ba0 f   LIBCMT:ulldvrm.obj
 0001:00062c5a       @_guard_check_icall@4      00463c5a f i LIBCMT:checkcfg.obj
 0001:00062c60       ??3@YAXPAXI@Z              00463c60 f   LIBCMT:delete_scalar_size.obj
 0001:00062c80       __allmul                   00463c80 f   LIBCMT:llmul.obj
 0001:00062cd0       __aulldiv                  00463cd0 f   LIBCMT:ulldiv.obj
 0001:00062d60       __aullrem                  00463d60 f   LIBCMT:ullrem.obj
 0001:00062e00       __alldiv                   00463e00 f   LIBCMT:lldiv.obj
 0001:00062ee0       __allrem                   00463ee0 f   LIBCMT:llrem.obj
 0001:00062fbe       __except_handler4_noexcept 00463fbe f   LIBCMT:chandler4_noexcept.obj
 0001:00063020       __alloca_probe_16          00464020 f   LIBCMT:alloca16.obj
 0001:00063036       __alloca_probe_8           00464036     LIBCMT:alloca16.obj
 0001:00063060       __allshl                   00464060 f   LIBCMT:llshl.obj
 0001:00063090       __aullshr                  00464090 f   LIBCMT:ullshr.obj
 0001:000630c0       __alloca_probe             004640c0 f   LIBCMT:chkstk.obj
 0001:000630c0       __chkstk                   004640c0 f   LIBCMT:chkstk.obj
 0001:00063100       __ftol2_sse_excpt          00464100 f   LIBCMT:ftol2.obj
 0001:00063110       __ftol2_sse                00464110 f   LIBCMT:ftol2.obj
 0001:00063120       __ftoi2                    00464120 f   LIBCMT:ftol2.obj
 0001:000631c0       __ftoui2                   004641c0 f   LIBCMT:ftol2.obj
 0001:00063290       __ftol2                    00464290 f   LIBCMT:ftol2.obj
 0001:00063370       __ftoul2                   00464370 f   LIBCMT:ftol2.obj
 0001:00063460       __ftoul2_legacy            00464460 f   LIBCMT:ftol2.obj
 0001:0006347b       ??3@YAXPAX@Z               0046447b f   LIBCMT:delete_scalar.obj
 0001:00063480       _InterlockedPushEntrySList@8 00464480 f   kernel32:KERNEL32.dll
 0001:00063486       _InterlockedFlushSList@4   00464486 f   kernel32:KERNEL32.dll
 0001:0006348c       _RtlUnwind@16              0046448c f   kernel32:KERNEL32.dll
 0001:00063492       _SetLastError@4            00464492 f   kernel32:KERNEL32.dll
 0001:00063498       _EnterCriticalSection@4    00464498 f   kernel32:KERNEL32.dll
 0001:0006349e       _LeaveCriticalSection@4    0046449e f   kernel32:KERNEL32.dll
 0001:000634a4       _DeleteCriticalSection@4   004644a4 f   kernel32:KERNEL32.dll
 0001:000634aa       _InitializeCriticalSectionAndSpinCount@8 004644aa f   kernel32:KERNEL32.dll
 0001:000634b0       _TlsAlloc@0                004644b0 f   kernel32:KERNEL32.dll
 0001:000634b6       _TlsGetValue@4             004644b6 f   kernel32:KERNEL32.dll
 0001:000634bc       _TlsSetValue@8             004644bc f   kernel32:KERNEL32.dll
 0001:000634c2       _TlsFree@4                 004644c2 f   kernel32:KERNEL32.dll
 0001:000634c8       _FreeLibrary@4             004644c8 f   kernel32:KERNEL32.dll
 0001:000634ce       _GetProcAddress@8          004644ce f   kernel32:KERNEL32.dll
 0001:000634d4       _LoadLibraryExW@12         004644d4 f   kernel32:KERNEL32.dll
 0001:000634da       _EncodePointer@4           004644da f   kernel32:KERNEL32.dll
 0001:000634e0       _RaiseException@16         004644e0 f   kernel32:KERNEL32.dll
 0001:000634e6       _GetCommandLineA@0         004644e6 f   kernel32:KERNEL32.dll
 0001:000634ec       _GetCommandLineW@0         004644ec f   kernel32:KERNEL32.dll
 0001:000634f2       _WriteFile@20              004644f2 f   kernel32:KERNEL32.dll
 0001:000634f8       _GetModuleFileNameW@12     004644f8 f   kernel32:KERNEL32.dll
 0001:000634fe       _ExitProcess@4             004644fe f   kernel32:KERNEL32.dll
 0001:00063504       _GetModuleHandleExW@12     00464504 f   kernel32:KERNEL32.dll
 0001:0006350a       _GetCurrentThread@0        0046450a f   kernel32:KERNEL32.dll
 0001:00063510       _SetConsoleCtrlHandler@8   00464510 f   kernel32:KERNEL32.dll
 0001:00063516       _HeapAlloc@12              00464516 f   kernel32:KERNEL32.dll
 0001:0006351c       _HeapFree@12               0046451c f   kernel32:KERNEL32.dll
 0001:00063522       _GetTempPathW@8            00464522 f   kernel32:KERNEL32.dll
 0001:00063528       _GetDateFormatW@24         00464528 f   kernel32:KERNEL32.dll
 0001:0006352e       _GetTimeFormatW@24         0046452e f   kernel32:KERNEL32.dll
 0001:00063534       _CompareStringW@24         00464534 f   kernel32:KERNEL32.dll
 0001:0006353a       _LCMapStringW@24           0046453a f   kernel32:KERNEL32.dll
 0001:00063540       _GetLocaleInfoW@16         00464540 f   kernel32:KERNEL32.dll
 0001:00063546       _IsValidLocale@8           00464546 f   kernel32:KERNEL32.dll
 0001:0006354c       _GetUserDefaultLCID@0      0046454c f   kernel32:KERNEL32.dll
 0001:00063552       _EnumSystemLocalesW@8      00464552 f   kernel32:KERNEL32.dll
 0001:00063558       _GetFileType@4             00464558 f   kernel32:KERNEL32.dll
 0001:0006355e       _OutputDebugStringW@4      0046455e f   kernel32:KERNEL32.dll
 0001:00063564       _FindClose@4               00464564 f   kernel32:KERNEL32.dll
 0001:0006356a       _FindFirstFileExW@24       0046456a f   kernel32:KERNEL32.dll
 0001:00063570       _FindNextFileW@8           00464570 f   kernel32:KERNEL32.dll
 0001:00063576       _IsValidCodePage@4         00464576 f   kernel32:KERNEL32.dll
 0001:0006357c       _GetACP@0                  0046457c f   kernel32:KERNEL32.dll
 0001:00063582       _GetOEMCP@0                00464582 f   kernel32:KERNEL32.dll
 0001:00063588       _GetCPInfo@8               00464588 f   kernel32:KERNEL32.dll
 0001:0006358e       _MultiByteToWideChar@24    0046458e f   kernel32:KERNEL32.dll
 0001:00063594       _WideCharToMultiByte@32    00464594 f   kernel32:KERNEL32.dll
 0001:0006359a       _GetEnvironmentStringsW@0  0046459a f   kernel32:KERNEL32.dll
 0001:000635a0       _FreeEnvironmentStringsW@4 004645a0 f   kernel32:KERNEL32.dll
 0001:000635a6       _SetEnvironmentVariableW@8 004645a6 f   kernel32:KERNEL32.dll
 0001:000635ac       _SetStdHandle@8            004645ac f   kernel32:KERNEL32.dll
 0001:000635b2       _GetStringTypeW@16         004645b2 f   kernel32:KERNEL32.dll
 0001:000635b8       _GetProcessHeap@0          004645b8 f   kernel32:KERNEL32.dll
 0001:000635be       _FlushFileBuffers@4        004645be f   kernel32:KERNEL32.dll
 0001:000635c4       _GetConsoleOutputCP@0      004645c4 f   kernel32:KERNEL32.dll
 0001:000635ca       _ReadFile@20               004645ca f   kernel32:KERNEL32.dll
 0001:000635d0       _ReadConsoleW@20           004645d0 f   kernel32:KERNEL32.dll
 0001:000635d6       _GetFileSizeEx@8           004645d6 f   kernel32:KERNEL32.dll
 0001:000635dc       _SetFilePointerEx@20       004645dc f   kernel32:KERNEL32.dll
 0001:000635e2       _HeapSize@12               004645e2 f   kernel32:KERNEL32.dll
 0001:000635e8       _HeapReAlloc@16            004645e8 f   kernel32:KERNEL32.dll
 0001:000635ee       _CloseHandle@4             004645ee f   kernel32:KERNEL32.dll
 0001:000635f4       _CreateFileW@28            004645f4 f   kernel32:KERNEL32.dll
 0001:000635fa       _WriteConsoleW@20          004645fa f   kernel32:KERNEL32.dll
 0001:00063600       _DecodePointer@4           00464600 f   kernel32:KERNEL32.dll
 0001:00063754       _memcmp                    00464754 f   libvcruntime:memcmp.obj
 0001:00066900       _strrchr                   00467900 f   libvcruntime:strrchr.obj
 0001:00066a84       _wcschr                    00467a84 f   libvcruntime:wcschr.obj
 0001:00066b44       __filter_x86_sse2_floating_point_exception 00467b44 f   LIBCMT:x86_exception_filter.obj
 0001:00066b44       __filter_x86_sse2_floating_point_exception_default 00467b44 f   LIBCMT:x86_exception_filter.obj
 0002:00000000       ___xc_a                    0046c000     LIBCMT:initializers.obj
 0002:00000208       ___xc_z                    0046c208     LIBCMT:initializers.obj
 0002:0000030c       ___xi_a                    0046c30c     LIBCMT:initializers.obj
 0002:00000618       ___acrt_stdio_initializer  0046c618     libucrt:stdio_initializer.obj
 0002:0000061c       ___acrt_multibyte_initializer 0046c61c     libucrt:multibyte_initializer.obj
 0002:00000620       ___acrt_fmode_initializer  0046c620     libucrt:fmode_initializer.obj
 0002:00000624       ___acrt_tran_sse2_initializer 0046c624     libucrt:sse2_initializer.obj
 0002:0000072c       ___xi_z                    0046c72c     LIBCMT:initializers.obj
 0002:00000830       ___xp_a                    0046c830     LIBCMT:initializers.obj
 0002:00000934       ___acrt_locale_terminator  0046c934     libucrt:locale_initializer.obj
 0002:00000938       ___dcrt_console_output_terminator 0046c938     libucrt:console_output_initializer.obj
 0002:00000a40       ___acrt_stdio_terminator   0046ca40     libucrt:stdio_initializer.obj
 0002:00000b44       ___xp_z                    0046cb44     LIBCMT:initializers.obj
 0002:00000c48       ___xt_a                    0046cc48     LIBCMT:initializers.obj
 0002:00000d4c       ___xt_z                    0046cd4c     LIBCMT:initializers.obj
 0002:00000f3c       __pDestructExceptionObject 0046cf3c     libvcruntime:ehhelpers.obj
 0002:0000137c       ??_C@_08EHJDFFNH@__based?$CI@ 0046d37c     libvcruntime:undname.obj
 0002:00001388       ??_C@_07KOLFKCDI@__cdecl@  0046d388     libvcruntime:undname.obj
 0002:00001394       ??_C@_08GHMPAG@__pascal@   0046d394     libvcruntime:undname.obj
 0002:000013a0       ??_C@_09IFJBGAPI@__stdcall@ 0046d3a0     libvcruntime:undname.obj
 0002:000013ac       ??_C@_0L@NPHFGOKO@__thiscall@ 0046d3ac     libvcruntime:undname.obj
 0002:000013bc       ??_C@_0L@JMKHOMEK@__fastcall@ 0046d3bc     libvcruntime:undname.obj
 0002:000013cc       ??_C@_0N@BCKKPABJ@__vectorcall@ 0046d3cc     libvcruntime:undname.obj
 0002:000013dc       ??_C@_09HIJEGCPM@__clrcall@ 0046d3dc     libvcruntime:undname.obj
 0002:000013e8       ??_C@_06GHPCKEAG@__eabi@   0046d3e8     libvcruntime:undname.obj
 0002:000013f0       ??_C@_09IOPIDJLG@__swift_1@ 0046d3f0     libvcruntime:undname.obj
 0002:000013fc       ??_C@_09KFNFGKHF@__swift_2@ 0046d3fc     libvcruntime:undname.obj
 0002:00001408       ??_C@_09LMMOFLDE@__swift_3@ 0046d408     libvcruntime:undname.obj
 0002:00001414       ??_C@_07JOMMBBKO@__ptr64@  0046d414     libvcruntime:undname.obj
 0002:00001420       ??_C@_0L@PILCLIHE@__restrict@ 0046d420     libvcruntime:undname.obj
 0002:00001430       ??_C@_0M@GFIIJFMG@__unaligned@ 0046d430     libvcruntime:undname.obj
 0002:00001440       ??_C@_09DHDLOLLB@restrict?$CI@ 0046d440     libvcruntime:undname.obj
 0002:0000144c       ??_C@_00CNPNBAHC@@         0046d44c     libvcruntime:undname.obj
 0002:00001450       ??_C@_04NIHEBCM@?5new@     0046d450     libvcruntime:undname.obj
 0002:00001458       ??_C@_07FPCDHGMM@?5delete@ 0046d458     libvcruntime:undname.obj
 0002:00001464       ??_C@_01NEMOKFLO@?$DN@     0046d464     libvcruntime:undname.obj
 0002:00001468       ??_C@_02GPIOPFAK@?$DO?$DO@ 0046d468     libvcruntime:undname.obj
 0002:0000146c       ??_C@_02FODMEDOG@?$DM?$DM@ 0046d46c     libvcruntime:undname.obj
 0002:00001470       ??_C@_01DCLJPIOD@?$CB@     0046d470     libvcruntime:undname.obj
 0002:00001474       ??_C@_02EGOFBIJA@?$DN?$DN@ 0046d474     libvcruntime:undname.obj
 0002:00001478       ??_C@_02FDNJECIE@?$CB?$DN@ 0046d478     libvcruntime:undname.obj
 0002:0000147c       ??_C@_02GPECMEKF@?$FL?$FN@ 0046d47c     libvcruntime:undname.obj
 0002:00001480       ??_C@_08LHJFAFGD@operator@ 0046d480     libvcruntime:undname.obj
 0002:0000148c       ??_C@_02HBOOOICD@?9?$DO@   0046d48c     libvcruntime:undname.obj
 0002:00001490       ??_C@_01NBENCBCI@?$CK@     0046d490     libvcruntime:undname.obj
 0002:00001494       ??_C@_02ECNGHCIF@?$CL?$CL@ 0046d494     libvcruntime:undname.obj
 0002:00001498       ??_C@_02BAABKJLB@?9?9@     0046d498     libvcruntime:undname.obj
 0002:0000149c       ??_C@_01JOAMLHOP@?9@       0046d49c     libvcruntime:undname.obj
 0002:000014a0       ??_C@_01MIFGBAGJ@?$CL@     0046d4a0     libvcruntime:undname.obj
 0002:000014a4       ??_C@_01HNPIGOCE@?$CG@     0046d4a4     libvcruntime:undname.obj
 0002:000014a8       ??_C@_03MNHNFDLC@?9?$DO?$CK@ 0046d4a8     libvcruntime:undname.obj
 0002:000014ac       ??_C@_01KMDKNFGN@?1@       0046d4ac     libvcruntime:undname.obj
 0002:000014b0       ??_C@_01FGNFDNOH@?$CF@     0046d4b0     libvcruntime:undname.obj
 0002:000014b4       ??_C@_01MNNFJEPP@?$DM@     0046d4b4     libvcruntime:undname.obj
 0002:000014b8       ??_C@_02EHCHHCKH@?$DM?$DN@ 0046d4b8     libvcruntime:undname.obj
 0002:000014bc       ??_C@_01PPODPGHN@?$DO@     0046d4bc     libvcruntime:undname.obj
 0002:000014c0       ??_C@_02EEKDKGMJ@?$DO?$DN@ 0046d4c0     libvcruntime:undname.obj
 0002:000014c4       ??_C@_01IHBHIGKO@?0@       0046d4c4     libvcruntime:undname.obj
 0002:000014c8       ??_C@_02HCKGKOFO@?$CI?$CJ@ 0046d4c8     libvcruntime:undname.obj
 0002:000014cc       ??_C@_01PJKLJHI@?$HO@      0046d4cc     libvcruntime:undname.obj
 0002:000014d0       ??_C@_01JKBOJNNK@?$FO@     0046d4d0     libvcruntime:undname.obj
 0002:000014d4       ??_C@_01DNKMNLPK@?$HM@     0046d4d4     libvcruntime:undname.obj
 0002:000014d8       ??_C@_02PPKAJPJL@?$CG?$CG@ 0046d4d8     libvcruntime:undname.obj
 0002:000014dc       ??_C@_02NONPIBCD@?$HM?$HM@ 0046d4dc     libvcruntime:undname.obj
 0002:000014e0       ??_C@_02FPIMKNGF@?$CK?$DN@ 0046d4e0     libvcruntime:undname.obj
 0002:000014e4       ??_C@_02FOEOMHFC@?$CL?$DN@ 0046d4e4     libvcruntime:undname.obj
 0002:000014e8       ??_C@_02FKMDLLOA@?9?$DN@   0046d4e8     libvcruntime:undname.obj
 0002:000014ec       ??_C@_02FJEHGPIO@?1?$DN@   0046d4ec     libvcruntime:undname.obj
 0002:000014f0       ??_C@_02FENAOKFI@?$CF?$DN@ 0046d4f0     libvcruntime:undname.obj
 0002:000014f4       ??_C@_03IKFCCPFF@?$DO?$DO?$DN@ 0046d4f4     libvcruntime:undname.obj
 0002:000014f8       ??_C@_03CDNPDDLA@?$DM?$DM?$DN@ 0046d4f8     libvcruntime:undname.obj
 0002:000014fc       ??_C@_02FGJGFEAB@?$CG?$DN@ 0046d4fc     libvcruntime:undname.obj
 0002:00001500       ??_C@_02DHLNPPGH@?$HM?$DN@ 0046d500     libvcruntime:undname.obj
 0002:00001504       ??_C@_02MHEGNOJ@?$FO?$DN@  0046d504     libvcruntime:undname.obj
 0002:00001508       ??_C@_09IFPLHPGF@?$GAvftable?8@ 0046d508     libvcruntime:undname.obj
 0002:00001514       ??_C@_09BLBHBJP@?$GAvbtable?8@ 0046d514     libvcruntime:undname.obj
 0002:00001520       ??_C@_07FEEIOKP@?$GAvcall?8@ 0046d520     libvcruntime:undname.obj
 0002:0000152c       ??_C@_08LLFFHHDJ@?$GAtypeof?8@ 0046d52c     libvcruntime:undname.obj
 0002:00001538       ??_C@_0BF@KDPPACIK@?$GAlocal?5static?5guard?8@ 0046d538     libvcruntime:undname.obj
 0002:00001554       ??_C@_08OBABFOLI@?$GAstring?8@ 0046d554     libvcruntime:undname.obj
 0002:00001560       ??_C@_0BD@JDLKDPAB@?$GAvbase?5destructor?8@ 0046d560     libvcruntime:undname.obj
 0002:00001578       ??_C@_0BN@DEGPLNFK@?$GAvector?5deleting?5destructor?8@ 0046d578     libvcruntime:undname.obj
 0002:0000159c       ??_C@_0BO@OBMKPJIG@?$GAdefault?5constructor?5closure?8@ 0046d59c     libvcruntime:undname.obj
 0002:000015c0       ??_C@_0BN@IMDCHIKM@?$GAscalar?5deleting?5destructor?8@ 0046d5c0     libvcruntime:undname.obj
 0002:000015e4       ??_C@_0BO@PFGOCPJJ@?$GAvector?5constructor?5iterator?8@ 0046d5e4     libvcruntime:undname.obj
 0002:00001608       ??_C@_0BN@LFPFMEDL@?$GAvector?5destructor?5iterator?8@ 0046d608     libvcruntime:undname.obj
 0002:0000162c       ??_C@_0CE@IKBNEHA@?$GAvector?5vbase?5constructor?5itera@ 0046d62c     libvcruntime:undname.obj
 0002:00001658       ??_C@_0BL@NILFHHPC@?$GAvirtual?5displacement?5map?8@ 0046d658     libvcruntime:undname.obj
 0002:00001678       ??_C@_0CB@JONCMFFK@?$GAeh?5vector?5constructor?5iterator@ 0046d678     libvcruntime:undname.obj
 0002:000016a0       ??_C@_0CA@GCEOPDGL@?$GAeh?5vector?5destructor?5iterator?8@ 0046d6a0     libvcruntime:undname.obj
 0002:000016c8       ??_C@_0CH@OOJPLCPH@?$GAeh?5vector?5vbase?5constructor?5it@ 0046d6c8     libvcruntime:undname.obj
 0002:000016f8       ??_C@_0BL@LLKPOHJI@?$GAcopy?5constructor?5closure?8@ 0046d6f8     libvcruntime:undname.obj
 0002:00001718       ??_C@_0BA@KBCDOMBN@?$GAudt?5returning?8@ 0046d718     libvcruntime:undname.obj
 0002:0000172c       ??_C@_03KLGMFNMG@?$GAEH@   0046d72c     libvcruntime:undname.obj
 0002:00001730       ??_C@_05KHLCHHI@?$GARTTI@  0046d730     libvcruntime:undname.obj
 0002:00001738       ??_C@_0BA@KKLDJDLB@?$GAlocal?5vftable?8@ 0046d738     libvcruntime:undname.obj
 0002:0000174c       ??_C@_0CE@IIHCMGGL@?$GAlocal?5vftable?5constructor?5clos@ 0046d74c     libvcruntime:undname.obj
 0002:00001778       ??_C@_06FHBGPFGH@?5new?$FL?$FN@ 0046d778     libvcruntime:undname.obj
 0002:00001780       ??_C@_09LBNFPBCA@?5delete?$FL?$FN@ 0046d780     libvcruntime:undname.obj
 0002:0000178c       ??_C@_0P@HJKNJFNN@?$GAomni?5callsig?8@ 0046d78c     libvcruntime:undname.obj
 0002:000017a0       ??_C@_0BL@CNOONJFP@?$GAplacement?5delete?5closure?8@ 0046d7a0     libvcruntime:undname.obj
 0002:000017c0       ??_C@_0BN@CKNJLHMB@?$GAplacement?5delete?$FL?$FN?5closure?8@ 0046d7c0     libvcruntime:undname.obj
 0002:000017e4       ??_C@_0CG@CFDHKGGD@?$GAmanaged?5vector?5constructor?5ite@ 0046d7e4     libvcruntime:undname.obj
 0002:00001814       ??_C@_0CF@IMGKMJNO@?$GAmanaged?5vector?5destructor?5iter@ 0046d814     libvcruntime:undname.obj
 0002:00001840       ??_C@_0CG@HLDDJMAG@?$GAeh?5vector?5copy?5constructor?5ite@ 0046d840     libvcruntime:undname.obj
 0002:00001870       ??_C@_0CM@FCBBDIGB@?$GAeh?5vector?5vbase?5copy?5construct@ 0046d870     libvcruntime:undname.obj
 0002:000018a4       ??_C@_0BL@CLIPGLGB@?$GAdynamic?5initializer?5for?5?8@ 0046d8a4     libvcruntime:undname.obj
 0002:000018c4       ??_C@_0CB@PDBIFEP@?$GAdynamic?5atexit?5destructor?5for?5@ 0046d8c4     libvcruntime:undname.obj
 0002:000018ec       ??_C@_0CD@CGAJBKEJ@?$GAvector?5copy?5constructor?5iterat@ 0046d8ec     libvcruntime:undname.obj
 0002:00001918       ??_C@_0CJ@GJELGAMM@?$GAvector?5vbase?5copy?5constructor?5@ 0046d918     libvcruntime:undname.obj
 0002:0000194c       ??_C@_0CL@FGIJHLCE@?$GAmanaged?5vector?5copy?5constructo@ 0046d94c     libvcruntime:undname.obj
 0002:00001980       ??_C@_0BM@PMGGMLDN@?$GAlocal?5static?5thread?5guard?8@ 0046d980     libvcruntime:undname.obj
 0002:000019a4       ??_C@_0N@BDNMDMOL@operator?5?$CC?$CC?5@ 0046d9a4     libvcruntime:undname.obj
 0002:000019b4       ??_C@_0BC@GGEBGALA@operator?5co_await@ 0046d9b4     libvcruntime:undname.obj
 0002:000019cc       ??_C@_0M@GAAIMMOH@operator?$DM?$DN?$DO@ 0046d9cc     libvcruntime:undname.obj
 0002:000019dc       ??_C@_0BC@DAFEJGAK@?5Type?5Descriptor?8@ 0046d9dc     libvcruntime:undname.obj
 0002:000019f4       ??_C@_0BM@LDKODKLH@?5Base?5Class?5Descriptor?5at?5?$CI@ 0046d9f4     libvcruntime:undname.obj
 0002:00001a18       ??_C@_0BD@LGICGFMM@?5Base?5Class?5Array?8@ 0046da18     libvcruntime:undname.obj
 0002:00001a30       ??_C@_0BN@MECKDCOJ@?5Class?5Hierarchy?5Descriptor?8@ 0046da30     libvcruntime:undname.obj
 0002:00001a54       ??_C@_0BK@CFCOFLF@?5Complete?5Object?5Locator?8@ 0046da54     libvcruntime:undname.obj
 0002:00001a74       ??_C@_0BG@JNJLAMPM@?$GAanonymous?5namespace?8@ 0046da74     libvcruntime:undname.obj
 0002:00001a90       ??_C@_04HEJADOOB@CV?3?5@   0046da90     libvcruntime:undname.obj
 0002:00001a98       ??_C@_02MOLJINC@?3?3@      0046da98     libvcruntime:undname.obj
 0002:00001a9c       ??_C@_0BE@JAEOCHPE@template?9parameter?9@ 0046da9c     libvcruntime:undname.obj
 0002:00001ab4       ??_C@_0BF@LNLGBBNL@?$GAtemplate?9parameter?9@ 0046dab4     libvcruntime:undname.obj
 0002:00001ad0       ??_C@_0O@KHGCOMHP@generic?9type?9@ 0046dad0     libvcruntime:undname.obj
 0002:00001ae0       ??_C@_0P@ODDENDLM@?$GAgeneric?9type?9@ 0046dae0     libvcruntime:undname.obj
 0002:00001af4       ??_C@_02OHHJMEON@?8?8@     0046daf4     libvcruntime:undname.obj
 0002:00001af8       ??_C@_0BN@IBLMMFAP@?$GAnon?9type?9template?9parameter@ 0046daf8     libvcruntime:undname.obj
 0002:00001b1c       ??_C@_03DLDNIBIK@?$CFlf@   0046db1c     libvcruntime:undname.obj
 0002:00001b20       ??_C@_04OFALKAJ@?$DP?$DP_C@ 0046db20     libvcruntime:undname.obj
 0002:00001b28       ??_C@_03KHICJKCI@?4?4?4@   0046db28     libvcruntime:undname.obj
 0002:00001b2c       ??_C@_04HIBGFPH@NULL@      0046db2c     libvcruntime:undname.obj
 0002:00001b34       ??_C@_02DPKJAMEF@?$CFd@    0046db34     libvcruntime:undname.obj
 0002:00001b38       ??_C@_0BK@IHCCFNEL@?$GAtemplate?9type?9parameter?9@ 0046db38     libvcruntime:undname.obj
 0002:00001b58       ??_C@_0BK@OFCNNNKO@?$GAgeneric?9class?9parameter?9@ 0046db58     libvcruntime:undname.obj
 0002:00001b78       ??_C@_0BL@NGJBLFIL@?$GAgeneric?9method?9parameter?9@ 0046db78     libvcruntime:undname.obj
 0002:00001b98       ??_C@_07OHNGEDJK@nullptr@  0046db98     libvcruntime:undname.obj
 0002:00001ba4       ??_C@_06COJIGPIB@lambda@   0046dba4     libvcruntime:undname.obj
 0002:00001bac       ??_C@_04GKJNKENE@void@     0046dbac     libvcruntime:undname.obj
 0002:00001bb4       ??_C@_0BE@EODMJLIF@?$GAtemplate?9parameter@ 0046dbb4     libvcruntime:undname.obj
 0002:00001bcc       ??_C@_03OPGICMGF@?$HN?8?5@ 0046dbcc     libvcruntime:undname.obj
 0002:00001bd0       ??_C@_02IGFCGPIL@?$HN?8@   0046dbd0     libvcruntime:undname.obj
 0002:00001bd4       ??_C@_0N@CBHHHENL@?$GAvtordispex?$HL@ 0046dbd4     libvcruntime:undname.obj
 0002:00001be4       ??_C@_0L@GHPFDFH@?$GAvtordisp?$HL@ 0046dbe4     libvcruntime:undname.obj
 0002:00001bf4       ??_C@_0L@HNGCOGAE@?$GAadjustor?$HL@ 0046dbf4     libvcruntime:undname.obj
 0002:00001c04       ??_C@_0CB@KJDOOODE@?$GAlocal?5static?5destructor?5helper@ 0046dc04     libvcruntime:undname.obj
 0002:00001c2c       ??_C@_0DB@ILEFOCIJ@?$GAtemplate?5static?5data?5member?5co@ 0046dc2c     libvcruntime:undname.obj
 0002:00001c68       ??_C@_0DA@HGFJFBBE@?$GAtemplate?5static?5data?5member?5de@ 0046dc68     libvcruntime:undname.obj
 0002:00001ca4       ??_C@_07PGOEDBHP@static?5@ 0046dca4     libvcruntime:undname.obj
 0002:00001cb0       ??_C@_08NIEOINHE@virtual?5@ 0046dcb0     libvcruntime:undname.obj
 0002:00001cbc       ??_C@_09LAPHOOG@private?3?5@ 0046dcbc     libvcruntime:undname.obj
 0002:00001cc8       ??_C@_0M@GAIFPFIP@protected?3?5@ 0046dcc8     libvcruntime:undname.obj
 0002:00001cd8       ??_C@_08GPDDCMKI@public?3?5@ 0046dcd8     libvcruntime:undname.obj
 0002:00001ce4       ??_C@_08KJLFOPNE@?$FLthunk?$FN?3@ 0046dce4     libvcruntime:undname.obj
 0002:00001cf0       ??_C@_0M@DHNBOJMP@extern?5?$CCC?$CC?5@ 0046dcf0     libvcruntime:undname.obj
 0002:00001d00       ??_C@_02KCKGHPCA@?$CJ?5@   0046dd00     libvcruntime:undname.obj
 0002:00001d04       ??_C@_05CIHEBHNO@char?5@   0046dd04     libvcruntime:undname.obj
 0002:00001d0c       ??_C@_06EHJMALKF@short?5@  0046dd0c     libvcruntime:undname.obj
 0002:00001d14       ??_C@_04LAHKHJMA@int?5@    0046dd14     libvcruntime:undname.obj
 0002:00001d1c       ??_C@_05CJIMAING@long?5@   0046dd1c     libvcruntime:undname.obj
 0002:00001d24       ??_C@_09EBBEKKIH@unsigned?5@ 0046dd24     libvcruntime:undname.obj
 0002:00001d30       ??_C@_05BEFAKPML@void?5@   0046dd30     libvcruntime:undname.obj
 0002:00001d38       ??_C@_09GAIEOBLP@volatile?5@ 0046dd38     libvcruntime:undname.obj
 0002:00001d44       ??_C@_08PABEKFH@volatile@  0046dd44     libvcruntime:undname.obj
 0002:00001d50       ??_C@_0BA@LKIJLKPP@std?3?3nullptr_t?5@ 0046dd50     libvcruntime:undname.obj
 0002:00001d64       ??_C@_0P@GCOCNKDM@std?3?3nullptr_t@ 0046dd64     libvcruntime:undname.obj
 0002:00001d78       ??_C@_0L@EGPHHEKN@?$DMellipsis?$DO@ 0046dd78     libvcruntime:undname.obj
 0002:00001d88       ??_C@_04EENFHACM@?0?4?4?4@ 0046dd88     libvcruntime:undname.obj
 0002:00001d90       ??_C@_0M@ELJOJFFH@?0?$DMellipsis?$DO@ 0046dd90     libvcruntime:undname.obj
 0002:00001da0       ??_C@_09DNHFEOJI@?5noexcept@ 0046dda0     libvcruntime:undname.obj
 0002:00001dac       ??_C@_03PBJBJNON@cpu@      0046ddac     libvcruntime:undname.obj
 0002:00001db0       ??_C@_03DCBBJBAA@amp@      0046ddb0     libvcruntime:undname.obj
 0002:00001db4       ??_C@_02KEGNLNML@?0?5@     0046ddb4     libvcruntime:undname.obj
 0002:00001db8       ??_C@_04ENMBGAPA@char@     0046ddb8     libvcruntime:undname.obj
 0002:00001dc0       ??_C@_05BFKKPKCG@short@    0046ddc0     libvcruntime:undname.obj
 0002:00001dc8       ??_C@_03JBIPMCLC@int@      0046ddc8     libvcruntime:undname.obj
 0002:00001dcc       ??_C@_04GOKPGOLB@long@     0046ddcc     libvcruntime:undname.obj
 0002:00001dd4       ??_C@_05KNFBNCOH@float@    0046ddd4     libvcruntime:undname.obj
 0002:00001ddc       ??_C@_06BNJCAIGJ@double@   0046dddc     libvcruntime:undname.obj
 0002:00001de4       ??_C@_04DDKJGDCM@bool@     0046dde4     libvcruntime:undname.obj
 0002:00001dec       ??_C@_06EBGKOKIG@__int8@   0046ddec     libvcruntime:undname.obj
 0002:00001df4       ??_C@_07ICFHOGAF@__int16@  0046ddf4     libvcruntime:undname.obj
 0002:00001e00       ??_C@_07OFLPPHGP@__int32@  0046de00     libvcruntime:undname.obj
 0002:00001e0c       ??_C@_07LFCOJCAC@__int64@  0046de0c     libvcruntime:undname.obj
 0002:00001e18       ??_C@_08GAHOLHEO@__int128@ 0046de18     libvcruntime:undname.obj
 0002:00001e24       ??_C@_09EEKGDCPH@?$DMunknown?$DO@ 0046de24     libvcruntime:undname.obj
 0002:00001e30       ??_C@_07CFHGOPCN@char8_t@  0046de30     libvcruntime:undname.obj
 0002:00001e3c       ??_C@_08HBIPOFJB@char16_t@ 0046de3c     libvcruntime:undname.obj
 0002:00001e48       ??_C@_08IECNCBKG@char32_t@ 0046de48     libvcruntime:undname.obj
 0002:00001e54       ??_C@_07CLGGIAMF@wchar_t@  0046de54     libvcruntime:undname.obj
 0002:00001e60       ??_C@_04HAPDLBFF@auto@     0046de60     libvcruntime:undname.obj
 0002:00001e68       ??_C@_0P@LHCGKIGK@decltype?$CIauto?$CJ@ 0046de68     libvcruntime:undname.obj
 0002:00001e7c       ??_C@_05PCNBGHCF@this?5@   0046de7c     libvcruntime:undname.obj
 0002:00001e84       ??_C@_06GCICPBLB@__w64?5@  0046de84     libvcruntime:undname.obj
 0002:00001e8c       ??_C@_07NFANNNEC@UNKNOWN@  0046de8c     libvcruntime:undname.obj
 0002:00001e98       ??_C@_07EDHNAJHC@signed?5@ 0046de98     libvcruntime:undname.obj
 0002:00001ea4       ??_C@_05BNCCCJPP@const@    0046dea4     libvcruntime:undname.obj
 0002:00001eac       ??_C@_09EFNPDFFP@?5volatile@ 0046deac     libvcruntime:undname.obj
 0002:00001eb8       ??_C@_0P@GCIFDJCJ@?$GAunknown?5ecsu?8@ 0046deb8     libvcruntime:undname.obj
 0002:00001ecc       ??_C@_06MOJHIBMG@union?5@  0046decc     libvcruntime:undname.obj
 0002:00001ed4       ??_C@_07DIBCDNGL@struct?5@ 0046ded4     libvcruntime:undname.obj
 0002:00001ee0       ??_C@_06LJBABKPM@class?5@  0046dee0     libvcruntime:undname.obj
 0002:00001ee8       ??_C@_08KOFANOFK@coclass?5@ 0046dee8     libvcruntime:undname.obj
 0002:00001ef4       ??_C@_0N@DLIEFKNA@cointerface?5@ 0046def4     libvcruntime:undname.obj
 0002:00001f04       ??_C@_05LJGMCFOG@enum?5@   0046df04     libvcruntime:undname.obj
 0002:00001f0c       ??_C@_06LIJLOJAG@const?5@  0046df0c     libvcruntime:undname.obj
 0002:00001f14       ??_C@_02KJPKDIBN@?$CG?5@   0046df14     libvcruntime:undname.obj
 0002:00001f18       ??_C@_03PCKGMOPB@?$CG?$CG?5@ 0046df18     libvcruntime:undname.obj
 0002:00001f1c       ??_C@_0M@EALIELKG@cli?3?3array?$DM@ 0046df1c     libvcruntime:undname.obj
 0002:00001f2c       ??_C@_0O@GKABPPIF@cli?3?3pin_ptr?$DM@ 0046df2c     libvcruntime:undname.obj
 0002:00001f3c       ??_C@_02GOGNNPBN@?$CJ?$FL@ 0046df3c     libvcruntime:undname.obj
 0002:00001f40       ??_C@_06EEGAIFAK@?$HLflat?$HN@ 0046df40     libvcruntime:undname.obj
 0002:00001f48       ??_C@_05JIBOFOHK@?$HLfor?5@ 0046df48     libvcruntime:undname.obj
 0002:00001f50       ??_C@_02MDINNEEG@s?5@      0046df50     libvcruntime:undname.obj
 0002:00001f58       ??_7DNameNode@@6B@         0046df58     libvcruntime:undname.obj
 0002:00001f70       ??_7charNode@@6B@          0046df70     libvcruntime:undname.obj
 0002:00001f88       ??_7pcharNode@@6B@         0046df88     libvcruntime:undname.obj
 0002:00001fa0       ??_7pDNameNode@@6B@        0046dfa0     libvcruntime:undname.obj
 0002:00001fb8       ??_7DNameStatusNode@@6B@   0046dfb8     libvcruntime:undname.obj
 0002:00001fd0       ??_7pairNode@@6B@          0046dfd0     libvcruntime:undname.obj
 0002:0000211c       ??_C@_04OKOHEJBO@?5?$DP?$DP?5@ 0046e11c     libvcruntime:undname.obj
 0002:00002124       ?nodes@?1??make@DNameStatusNode@@SAPBV2@W4DNameStatus@@@Z@4QBV2@B 0046e124     libvcruntime:undname.obj
 0002:00002170       ??_C@_1DM@KHCHBNEB@?$AAa?$AAp?$AAi?$AA?9?$AAm?$AAs?$AA?9?$AAw?$AAi?$AAn?$AA?9?$AAc?$AAo?$AAr?$AAe@ 0046e170     libvcruntime:winapi_downlevel.obj
 0002:000021b8       ??_C@_1DK@LPPGFMPP@?$AAa?$AAp?$AAi?$AA?9?$AAm?$AAs?$AA?9?$AAw?$AAi?$AAn?$AA?9?$AAc?$AAo?$AAr?$AAe@ 0046e1b8     libvcruntime:winapi_downlevel.obj
 0002:00002200       ??_C@_1BC@GDMECMAK@?$AAk?$AAe?$AAr?$AAn?$AAe?$AAl?$AA3?$AA2@ 0046e200     libvcruntime:winapi_downlevel.obj
 0002:00002218       ??_C@_1BA@PFFKHIOG@?$AAa?$AAp?$AAi?$AA?9?$AAm?$AAs?$AA?9@ 0046e218     libvcruntime:winapi_downlevel.obj
 0002:00002238       ??_C@_08KNHFBNJ@FlsAlloc@  0046e238     libvcruntime:winapi_downlevel.obj
 0002:00002250       ??_C@_07PEJMOBNF@FlsFree@  0046e250     libvcruntime:winapi_downlevel.obj
 0002:00002268       ??_C@_0M@GDNOONDI@FlsGetValue@ 0046e268     libvcruntime:winapi_downlevel.obj
 0002:00002284       ??_C@_0M@JCPCPOEF@FlsSetValue@ 0046e284     libvcruntime:winapi_downlevel.obj
 0002:000022a0       ??_C@_0BM@HCFOFFN@InitializeCriticalSectionEx@ 0046e2a0     libvcruntime:winapi_downlevel.obj
 0002:000022c8       ??_7exception@std@@6B@     0046e2c8     libvcruntime:frame.obj
 0002:000022d4       ??_C@_0BC@EOODALEL@Unknown?5exception@ 0046e2d4     libvcruntime:frame.obj
 0002:000022f0       ??_7bad_exception@std@@6B@ 0046e2f0     libvcruntime:frame.obj
 0002:000022fc       ??_C@_0O@DPKOEFFH@bad?5exception@ 0046e2fc     libvcruntime:frame.obj
 0002:0000230c       __Fenv1                    0046e30c     libucrt:atox.obj
 0002:00002318       ?standard_lookup_table_spectre@__crt_stdio_output@@3V?$spectre_mitigated_lookup_table@Ustate_transition_pair@__crt_stdio_output@@$0IA@@1@B 0046e318     libucrt:output.obj
 0002:00002450       ?format_validation_lookup_table_spectre@__crt_stdio_output@@3V?$spectre_mitigated_lookup_table@Ustate_transition_pair@__crt_stdio_output@@$0IA@@1@B 0046e450     libucrt:output.obj
 0002:00002584       ??_C@_1O@CEDCILHN@?$AA?$CI?$AAn?$AAu?$AAl?$AAl?$AA?$CJ@ 0046e584     libucrt:output.obj
 0002:00002594       ??_C@_06OJHGLDPL@?$CInull?$CJ@ 0046e594     libucrt:output.obj
 0002:000025a0       ___acrt_exception_action_table 0046e5a0     libucrt:exception_filter.obj
 0002:0000264c       ___acrt_signal_action_table_count 0046e64c     libucrt:exception_filter.obj
 0002:00002650       ___acrt_signal_action_table_size 0046e650     libucrt:exception_filter.obj
 0002:00002654       ___acrt_signal_action_first_fpe_index 0046e654     libucrt:exception_filter.obj
 0002:00002658       ___acrt_signal_action_fpe_count 0046e658     libucrt:exception_filter.obj
 0002:0000265c       ??_C@_1DE@JNGNBFGO@?$AAR?$AAu?$AAn?$AAt?$AAi?$AAm?$AAe?$AA?5?$AAE?$AAr?$AAr?$AAo?$AAr?$AA?$CB?$AA?6@ 0046e65c     libucrt:report_runtime_error.obj
 0002:0000269c       ??_C@_1CO@EAEJAADC@?$AA?$DM?$AAp?$AAr?$AAo?$AAg?$AAr?$AAa?$AAm?$AA?5?$AAn?$AAa?$AAm?$AAe?$AA?5?$AAu@ 0046e69c     libucrt:report_runtime_error.obj
 0002:000026d4       ??_C@_17LGKOMLJ@?$AA?4?$AA?4?$AA?4@ 0046e6d4     libucrt:report_runtime_error.obj
 0002:000026e0       ??_C@_15IABLJNFO@?$AA?6?$AA?6@ 0046e6e0     libucrt:report_runtime_error.obj
 0002:000026e8       ??_C@_1EK@MBDPDCGA@?$AAM?$AAi?$AAc?$AAr?$AAo?$AAs?$AAo?$AAf?$AAt?$AA?5?$AAV?$AAi?$AAs?$AAu?$AAa@ 0046e6e8     libucrt:report_runtime_error.obj
 0002:00002740       ??_C@_1BI@BGOHAHKC@?$AAm?$AAs?$AAc?$AAo?$AAr?$AAe?$AAe?$AA?4?$AAd?$AAl?$AAl@ 0046e740     libucrt:exit.obj
 0002:0000275c       ??_C@_0P@MIGLKIOC@CorExitProcess@ 0046e75c     libucrt:exit.obj
 0002:00002808       ___lc_category             0046e808     libucrt:wsetlocale.obj
 0002:00002860       ??_C@_1O@GIFLHMA@?$AAL?$AAC?$AA_?$AAA?$AAL?$AAL@ 0046e860     libucrt:wsetlocale.obj
 0002:00002870       ??_C@_1BG@PPOMIBNJ@?$AAL?$AAC?$AA_?$AAC?$AAO?$AAL?$AAL?$AAA?$AAT?$AAE@ 0046e870     libucrt:wsetlocale.obj
 0002:0000288c       ??_C@_1BC@FFJGAPJM@?$AAL?$AAC?$AA_?$AAC?$AAT?$AAY?$AAP?$AAE@ 0046e88c     libucrt:wsetlocale.obj
 0002:000028a4       ??_C@_1BI@PCKFNJFB@?$AAL?$AAC?$AA_?$AAM?$AAO?$AAN?$AAE?$AAT?$AAA?$AAR?$AAY@ 0046e8a4     libucrt:wsetlocale.obj
 0002:000028c0       ??_C@_1BG@ENIEDKID@?$AAL?$AAC?$AA_?$AAN?$AAU?$AAM?$AAE?$AAR?$AAI?$AAC@ 0046e8c0     libucrt:wsetlocale.obj
 0002:000028dc       ??_C@_1BA@HAAOMIIG@?$AAL?$AAC?$AA_?$AAT?$AAI?$AAM?$AAE@ 0046e8dc     libucrt:wsetlocale.obj
 0002:000028f0       ??_C@_15NBPDDFIP@?$AA?$DN?$AA?$DL@ 0046e8f0     libucrt:wsetlocale.obj
 0002:000028f8       ??_C@_13PJJBFPED@?$AA?$DL@ 0046e8f8     libucrt:wsetlocale.obj
 0002:000028fc       ??_C@_13NMPKAAJP@?$AA?$DN@ 0046e8fc     libucrt:wsetlocale.obj
 0002:00002900       ??_C@_13IMODFHAA@?$AA?9@   0046e900     libucrt:wsetlocale.obj
 0002:00002904       ??_C@_17EFJLDFDO@?$AA?9?$AA_?$AA?4@ 0046e904     libucrt:wsetlocale.obj
 0002:00002910       ??_C@_13FHBKNHDA@?$AAC@    0046e910     libucrt:wsetlocale.obj
 0002:00002914       ??_C@_17MBJJLFDM@?$AA_?$AA?4?$AA?0@ 0046e914     libucrt:wsetlocale.obj
 0002:00002920       ??_C@_13ENNFDPBH@?$AA_@    0046e920     libucrt:wsetlocale.obj
 0002:00002924       ??_C@_13JOFGPIOO@?$AA?4@   0046e924     libucrt:wsetlocale.obj
 0002:000029c8       ___lc_time_c               0046e9c8     libucrt:nlsdata.obj
 0002:00002b74       ??_C@_03KOEHGMDN@Sun@      0046eb74     libucrt:nlsdata.obj
 0002:00002b78       ??_C@_03PDAGKDH@Mon@       0046eb78     libucrt:nlsdata.obj
 0002:00002b7c       ??_C@_03NAGEINEP@Tue@      0046eb7c     libucrt:nlsdata.obj
 0002:00002b80       ??_C@_03MHOMLAJA@Wed@      0046eb80     libucrt:nlsdata.obj
 0002:00002b84       ??_C@_03IOFIKPDN@Thu@      0046eb84     libucrt:nlsdata.obj
 0002:00002b88       ??_C@_03IDIOELNC@Fri@      0046eb88     libucrt:nlsdata.obj
 0002:00002b8c       ??_C@_03FEFJNEK@Sat@       0046eb8c     libucrt:nlsdata.obj
 0002:00002b90       ??_C@_06OOPIFAJ@Sunday@    0046eb90     libucrt:nlsdata.obj
 0002:00002b98       ??_C@_06JLEDEDGH@Monday@   0046eb98     libucrt:nlsdata.obj
 0002:00002ba0       ??_C@_07BAAGCFCM@Tuesday@  0046eba0     libucrt:nlsdata.obj
 0002:00002bac       ??_C@_09DLIGFAKA@Wednesday@ 0046ebac     libucrt:nlsdata.obj
 0002:00002bb8       ??_C@_08HACCIKIA@Thursday@ 0046ebb8     libucrt:nlsdata.obj
 0002:00002bc4       ??_C@_06JECMNKMI@Friday@   0046ebc4     libucrt:nlsdata.obj
 0002:00002bcc       ??_C@_08INBOOONO@Saturday@ 0046ebcc     libucrt:nlsdata.obj
 0002:00002bd8       ??_C@_03JIHJHPIE@Jan@      0046ebd8     libucrt:nlsdata.obj
 0002:00002bdc       ??_C@_03HJBDCHOM@Feb@      0046ebdc     libucrt:nlsdata.obj
 0002:00002be0       ??_C@_03ODNJBKGA@Mar@      0046ebe0     libucrt:nlsdata.obj
 0002:00002be4       ??_C@_03LEOLGMJP@Apr@      0046ebe4     libucrt:nlsdata.obj
 0002:00002be8       ??_C@_03CNMDKL@May@        0046ebe8     libucrt:nlsdata.obj
 0002:00002bec       ??_C@_03IDFGHECI@Jun@      0046ebec     libucrt:nlsdata.obj
 0002:00002bf0       ??_C@_03LBGABGKK@Jul@      0046ebf0     libucrt:nlsdata.obj
 0002:00002bf4       ??_C@_03IFJFEIGA@Aug@      0046ebf4     libucrt:nlsdata.obj
 0002:00002bf8       ??_C@_03GGCAPAJC@Sep@      0046ebf8     libucrt:nlsdata.obj
 0002:00002bfc       ??_C@_03BMAOKBAD@Oct@      0046ebfc     libucrt:nlsdata.obj
 0002:00002c00       ??_C@_03JPJOFNIA@Nov@      0046ec00     libucrt:nlsdata.obj
 0002:00002c04       ??_C@_03MKABNOCG@Dec@      0046ec04     libucrt:nlsdata.obj
 0002:00002c08       ??_C@_07CGJPFGJA@January@  0046ec08     libucrt:nlsdata.obj
 0002:00002c14       ??_C@_08GNJGEPFN@February@ 0046ec14     libucrt:nlsdata.obj
 0002:00002c20       ??_C@_05HPCKOFNC@March@    0046ec20     libucrt:nlsdata.obj
 0002:00002c28       ??_C@_05DMJDNLEJ@April@    0046ec28     libucrt:nlsdata.obj
 0002:00002c30       ??_C@_04CNLMGBGM@June@     0046ec30     libucrt:nlsdata.obj
 0002:00002c38       ??_C@_04MIEPOIFP@July@     0046ec38     libucrt:nlsdata.obj
 0002:00002c40       ??_C@_06LBBHFDDG@August@   0046ec40     libucrt:nlsdata.obj
 0002:00002c48       ??_C@_09BHHEALKD@September@ 0046ec48     libucrt:nlsdata.obj
 0002:00002c54       ??_C@_07JJNFCEND@October@  0046ec54     libucrt:nlsdata.obj
 0002:00002c60       ??_C@_08HCHEGEOA@November@ 0046ec60     libucrt:nlsdata.obj
 0002:00002c6c       ??_C@_08EDHMEBNP@December@ 0046ec6c     libucrt:nlsdata.obj
 0002:00002c78       ??_C@_02DEDBPAFC@AM@       0046ec78     libucrt:nlsdata.obj
 0002:00002c7c       ??_C@_02CJNFDJBF@PM@       0046ec7c     libucrt:nlsdata.obj
 0002:00002c80       ??_C@_08BPBNCDIB@MM?1dd?1yy@ 0046ec80     libucrt:nlsdata.obj
 0002:00002c8c       ??_C@_0BE@CKGJFCPC@dddd?0?5MMMM?5dd?0?5yyyy@ 0046ec8c     libucrt:nlsdata.obj
 0002:00002ca4       ??_C@_08JCCMCCIL@HH?3mm?3ss@ 0046eca4     libucrt:nlsdata.obj
 0002:00002cb0       ??_C@_17MBGCMIPB@?$AAS?$AAu?$AAn@ 0046ecb0     libucrt:nlsdata.obj
 0002:00002cbc       ??_C@_17KBOMKBF@?$AAM?$AAo?$AAn@ 0046ecbc     libucrt:nlsdata.obj
 0002:00002cc8       ??_C@_17BMKGEGOJ@?$AAT?$AAu?$AAe@ 0046ecc8     libucrt:nlsdata.obj
 0002:00002cd4       ??_C@_17CJEDCEPE@?$AAW?$AAe?$AAd@ 0046ecd4     libucrt:nlsdata.obj
 0002:00002ce0       ??_C@_17PDPHAADD@?$AAT?$AAh?$AAu@ 0046ece0     libucrt:nlsdata.obj
 0002:00002cec       ??_C@_17HFOLPPLP@?$AAF?$AAr?$AAi@ 0046ecec     libucrt:nlsdata.obj
 0002:00002cf8       ??_C@_17GGIBDPIH@?$AAS?$AAa?$AAt@ 0046ecf8     libucrt:nlsdata.obj
 0002:00002d04       ??_C@_1O@IHNHDHPB@?$AAS?$AAu?$AAn?$AAd?$AAa?$AAy@ 0046ed04     libucrt:nlsdata.obj
 0002:00002d14       ??_C@_1O@MMNBFLIA@?$AAM?$AAo?$AAn?$AAd?$AAa?$AAy@ 0046ed14     libucrt:nlsdata.obj
 0002:00002d24       ??_C@_1BA@ENFBFFEK@?$AAT?$AAu?$AAe?$AAs?$AAd?$AAa?$AAy@ 0046ed24     libucrt:nlsdata.obj
 0002:00002d38       ??_C@_1BE@EBOGMDOH@?$AAW?$AAe?$AAd?$AAn?$AAe?$AAs?$AAd?$AAa?$AAy@ 0046ed38     libucrt:nlsdata.obj
 0002:00002d50       ??_C@_1BC@HHMNLIHE@?$AAT?$AAh?$AAu?$AAr?$AAs?$AAd?$AAa?$AAy@ 0046ed50     libucrt:nlsdata.obj
 0002:00002d68       ??_C@_1O@PDICJHAG@?$AAF?$AAr?$AAi?$AAd?$AAa?$AAy@ 0046ed68     libucrt:nlsdata.obj
 0002:00002d78       ??_C@_1BC@ENMNNPAJ@?$AAS?$AAa?$AAt?$AAu?$AAr?$AAd?$AAa?$AAy@ 0046ed78     libucrt:nlsdata.obj
 0002:00002d90       ??_C@_17DKNBKCHM@?$AAJ?$AAa?$AAn@ 0046ed90     libucrt:nlsdata.obj
 0002:00002d9c       ??_C@_17LMDJEKJN@?$AAF?$AAe?$AAb@ 0046ed9c     libucrt:nlsdata.obj
 0002:00002da8       ??_C@_17CKNLEDEC@?$AAM?$AAa?$AAr@ 0046eda8     libucrt:nlsdata.obj
 0002:00002db4       ??_C@_17LFPOIHDD@?$AAA?$AAp?$AAr@ 0046edb4     libucrt:nlsdata.obj
 0002:00002dc0       ??_C@_17PNNKMEED@?$AAM?$AAa?$AAy@ 0046edc0     libucrt:nlsdata.obj
 0002:00002dcc       ??_C@_17KCJGOCPB@?$AAJ?$AAu?$AAn@ 0046edcc     libucrt:nlsdata.obj
 0002:00002dd8       ??_C@_17IJPCKHK@?$AAJ?$AAu?$AAl@ 0046edd8     libucrt:nlsdata.obj
 0002:00002de4       ??_C@_17ICPELBCN@?$AAA?$AAu?$AAg@ 0046ede4     libucrt:nlsdata.obj
 0002:00002df0       ??_C@_17HCHCOKMG@?$AAS?$AAe?$AAp@ 0046edf0     libucrt:nlsdata.obj
 0002:00002dfc       ??_C@_17FNLKOI@?$AAO?$AAc?$AAt@ 0046edfc     libucrt:nlsdata.obj
 0002:00002e08       ??_C@_17BBDMLCIG@?$AAN?$AAo?$AAv@ 0046ee08     libucrt:nlsdata.obj
 0002:00002e14       ??_C@_17EGKACKIF@?$AAD?$AAe?$AAc@ 0046ee14     libucrt:nlsdata.obj
 0002:00002e20       ??_C@_1BA@EFMEIEBA@?$AAJ?$AAa?$AAn?$AAu?$AAa?$AAr?$AAy@ 0046ee20     libucrt:nlsdata.obj
 0002:00002e34       ??_C@_1BC@JGDDFFAM@?$AAF?$AAe?$AAb?$AAr?$AAu?$AAa?$AAr?$AAy@ 0046ee34     libucrt:nlsdata.obj
 0002:00002e4c       ??_C@_1M@IKEENEDF@?$AAM?$AAa?$AAr?$AAc?$AAh@ 0046ee4c     libucrt:nlsdata.obj
 0002:00002e5c       ??_C@_1M@GJNLMHFD@?$AAA?$AAp?$AAr?$AAi?$AAl@ 0046ee5c     libucrt:nlsdata.obj
 0002:00002e6c       ??_C@_19EPFLPGAP@?$AAJ?$AAu?$AAn?$AAe@ 0046ee6c     libucrt:nlsdata.obj
 0002:00002e78       ??_C@_19BIFMLPCD@?$AAJ?$AAu?$AAl?$AAy@ 0046ee78     libucrt:nlsdata.obj
 0002:00002e84       ??_C@_1O@PAHLKOAC@?$AAA?$AAu?$AAg?$AAu?$AAs?$AAt@ 0046ee84     libucrt:nlsdata.obj
 0002:00002e94       ??_C@_1BE@DKAAMBJL@?$AAS?$AAe?$AAp?$AAt?$AAe?$AAm?$AAb?$AAe?$AAr@ 0046ee94     libucrt:nlsdata.obj
 0002:00002eac       ??_C@_1BA@EPANDLNG@?$AAO?$AAc?$AAt?$AAo?$AAb?$AAe?$AAr@ 0046eeac     libucrt:nlsdata.obj
 0002:00002ec0       ??_C@_1BC@BGLIFPF@?$AAN?$AAo?$AAv?$AAe?$AAm?$AAb?$AAe?$AAr@ 0046eec0     libucrt:nlsdata.obj
 0002:00002ed8       ??_C@_1BC@FEMKIFH@?$AAD?$AAe?$AAc?$AAe?$AAm?$AAb?$AAe?$AAr@ 0046eed8     libucrt:nlsdata.obj
 0002:00002ef0       ??_C@_15ODEHAHHF@?$AAA?$AAM@ 0046eef0     libucrt:nlsdata.obj
 0002:00002ef8       ??_C@_15CLMNNGEL@?$AAP?$AAM@ 0046eef8     libucrt:nlsdata.obj
 0002:00002f00       ??_C@_1BC@IEBCMHCM@?$AAM?$AAM?$AA?1?$AAd?$AAd?$AA?1?$AAy?$AAy@ 0046ef00     libucrt:nlsdata.obj
 0002:00002f18       ??_C@_1CI@KNAKOEBC@?$AAd?$AAd?$AAd?$AAd?$AA?0?$AA?5?$AAM?$AAM?$AAM?$AAM?$AA?5?$AAd?$AAd?$AA?0?$AA?5@ 0046ef18     libucrt:nlsdata.obj
 0002:00002f48       ??_C@_1BC@GDGBMEMK@?$AAH?$AAH?$AA?3?$AAm?$AAm?$AA?3?$AAs?$AAs@ 0046ef48     libucrt:nlsdata.obj
 0002:00002f60       ??_C@_1M@BMHNFIME@?$AAe?$AAn?$AA?9?$AAU?$AAS@ 0046ef60     libucrt:nlsdata.obj
 0002:00003120       ___newctype                0046f120     libucrt:ctype.obj
 0002:000034c0       ___newclmap                0046f4c0     libucrt:ctype.obj
 0002:00003690       ___newcumap                0046f690     libucrt:ctype.obj
 0002:00003860       __wctype                   0046f860     libucrt:ctype.obj
 0002:00003acc       _RtlNtPathSeperatorString  0046facc     libucrt:winapi_thunks.obj
 0002:00003ad8       ??_C@_13FPGAJAPJ@?$AA?2@   0046fad8     libucrt:winapi_thunks.obj
 0002:00003adc       _RtlDosPathSeperatorsString 0046fadc     libucrt:winapi_thunks.obj
 0002:00003ae8       ??_C@_15MNCACJLI@?$AA?2?$AA?1@ 0046fae8     libucrt:winapi_thunks.obj
 0002:00003af0       _RtlAlternateDosPathSeperatorString 0046faf0     libucrt:winapi_thunks.obj
 0002:00003afc       ??_C@_13CGOKJPIL@?$AA?1@   0046fafc     libucrt:winapi_thunks.obj
 0002:00003b70       ??_C@_1EA@JGEFHKEI@?$AAa?$AAp?$AAi?$AA?9?$AAm?$AAs?$AA?9?$AAw?$AAi?$AAn?$AA?9?$AAc?$AAo?$AAr?$AAe@ 0046fb70     libucrt:winapi_thunks.obj
 0002:00003bbc       ??_C@_1DI@KMEPCBPN@?$AAa?$AAp?$AAi?$AA?9?$AAm?$AAs?$AA?9?$AAw?$AAi?$AAn?$AA?9?$AAc?$AAo?$AAr?$AAe@ 0046fbbc     libucrt:winapi_thunks.obj
 0002:00003c00       ??_C@_1DI@IJCEHOCB@?$AAa?$AAp?$AAi?$AA?9?$AAm?$AAs?$AA?9?$AAw?$AAi?$AAn?$AA?9?$AAc?$AAo?$AAr?$AAe@ 0046fc00     libucrt:winapi_thunks.obj
 0002:00003c48       ??_C@_1EI@MPIAOHOC@?$AAa?$AAp?$AAi?$AA?9?$AAm?$AAs?$AA?9?$AAw?$AAi?$AAn?$AA?9?$AAc?$AAo?$AAr?$AAe@ 0046fc48     libucrt:winapi_thunks.obj
 0002:00003ca0       ??_C@_1FK@FPHCKFIE@?$AAa?$AAp?$AAi?$AA?9?$AAm?$AAs?$AA?9?$AAw?$AAi?$AAn?$AA?9?$AAc?$AAo?$AAr?$AAe@ 0046fca0     libucrt:winapi_thunks.obj
 0002:00003d10       ??_C@_1EM@DILCGIIO@?$AAa?$AAp?$AAi?$AA?9?$AAm?$AAs?$AA?9?$AAw?$AAi?$AAn?$AA?9?$AAc?$AAo?$AAr?$AAe@ 0046fd10     libucrt:winapi_thunks.obj
 0002:00003d6c       ??_C@_1DM@LNCGDDPN@?$AAa?$AAp?$AAi?$AA?9?$AAm?$AAs?$AA?9?$AAw?$AAi?$AAn?$AA?9?$AAc?$AAo?$AAr?$AAe@ 0046fd6c     libucrt:winapi_thunks.obj
 0002:00003db4       ??_C@_1DO@FPAPJEMD@?$AAa?$AAp?$AAi?$AA?9?$AAm?$AAs?$AA?9?$AAw?$AAi?$AAn?$AA?9?$AAc?$AAo?$AAr?$AAe@ 0046fdb4     libucrt:winapi_thunks.obj
 0002:00003e00       ??_C@_1DK@NDHNAHIO@?$AAa?$AAp?$AAi?$AA?9?$AAm?$AAs?$AA?9?$AAw?$AAi?$AAn?$AA?9?$AAc?$AAo?$AAr?$AAe@ 0046fe00     libucrt:winapi_thunks.obj
 0002:00003e48       ??_C@_1DM@KGHDGBCM@?$AAa?$AAp?$AAi?$AA?9?$AAm?$AAs?$AA?9?$AAw?$AAi?$AAn?$AA?9?$AAc?$AAo?$AAr?$AAe@ 0046fe48     libucrt:winapi_thunks.obj
 0002:00003e90       ??_C@_1EO@IJIOEFOH@?$AAa?$AAp?$AAi?$AA?9?$AAm?$AAs?$AA?9?$AAw?$AAi?$AAn?$AA?9?$AAr?$AAt?$AAc?$AAo@ 0046fe90     libucrt:winapi_thunks.obj
 0002:00003ef0       ??_C@_1FG@HHGEKANL@?$AAa?$AAp?$AAi?$AA?9?$AAm?$AAs?$AA?9?$AAw?$AAi?$AAn?$AA?9?$AAs?$AAe?$AAc?$AAu@ 0046fef0     libucrt:winapi_thunks.obj
 0002:00003f58       ??_C@_1EG@DBIOJECG@?$AAe?$AAx?$AAt?$AA?9?$AAm?$AAs?$AA?9?$AAw?$AAi?$AAn?$AA?9?$AAn?$AAt?$AAu?$AAs@ 0046ff58     libucrt:winapi_thunks.obj
 0002:00003fb0       ??_C@_1EO@FIHMJCLF@?$AAe?$AAx?$AAt?$AA?9?$AAm?$AAs?$AA?9?$AAw?$AAi?$AAn?$AA?9?$AAn?$AAt?$AAu?$AAs@ 0046ffb0     libucrt:winapi_thunks.obj
 0002:00004010       ??_C@_1BC@DNHGCMLG@?$AAa?$AAd?$AAv?$AAa?$AAp?$AAi?$AA3?$AA2@ 00470010     libucrt:winapi_thunks.obj
 0002:00004028       ??_C@_1BG@CJPGBMEF@?$AAk?$AAe?$AAr?$AAn?$AAe?$AAl?$AAb?$AAa?$AAs?$AAe@ 00470028     libucrt:winapi_thunks.obj
 0002:00004044       ??_C@_1M@OAIMIKLP@?$AAn?$AAt?$AAd?$AAl?$AAl@ 00470044     libucrt:winapi_thunks.obj
 0002:00004058       ??_C@_1EG@DPGNFKGC@?$AAa?$AAp?$AAi?$AA?9?$AAm?$AAs?$AA?9?$AAw?$AAi?$AAn?$AA?9?$AAa?$AAp?$AAp?$AAm@ 00470058     libucrt:winapi_thunks.obj
 0002:000040ac       ??_C@_1O@BCCLBEOE@?$AAu?$AAs?$AAe?$AAr?$AA3?$AA2@ 004700ac     libucrt:winapi_thunks.obj
 0002:000040bc       ??_C@_1DM@BPJLHKCE@?$AAa?$AAp?$AAi?$AA?9?$AAm?$AAs?$AA?9?$AAw?$AAi?$AAn?$AA?9?$AAc?$AAo?$AAr?$AAe@ 004700bc     libucrt:winapi_thunks.obj
 0002:00004104       ??_C@_1BA@IAIFMGEF@?$AAe?$AAx?$AAt?$AA?9?$AAm?$AAs?$AA?9@ 00470104     libucrt:winapi_thunks.obj
 0002:0000411c       ??_C@_0BA@FHFNEAED@AreFileApisANSI@ 0047011c     libucrt:winapi_thunks.obj
 0002:0000413c       ??_C@_0BA@IHGNDAEB@CompareStringEx@ 0047013c     libucrt:winapi_thunks.obj
 0002:0000415c       ??_C@_0BE@LJANKFHF@EnumSystemLocalesEx@ 0047015c     libucrt:winapi_thunks.obj
 0002:00004180       ??_C@_0BA@HNOPNCHB@GetActiveWindow@ 00470180     libucrt:winapi_thunks.obj
 0002:000041a0       ??_C@_0BA@EPCJIIPD@GetDateFormatEx@ 004701a0     libucrt:winapi_thunks.obj
 0002:000041c0       ??_C@_0O@NNMIPI@GetTempPath2W@ 004701c0     libucrt:winapi_thunks.obj
 0002:000041dc       ??_C@_0BJ@DIBIJBHA@GetEnabledXStateFeatures@ 004701dc     libucrt:winapi_thunks.obj
 0002:00004208       ??_C@_0BD@HHGDFDBJ@GetLastActivePopup@ 00470208     libucrt:winapi_thunks.obj
 0002:0000422c       ??_C@_0BA@ONOKGCMP@GetLocaleInfoEx@ 0047022c     libucrt:winapi_thunks.obj
 0002:0000424c       ??_C@_0BI@DFKBFLJE@GetProcessWindowStation@ 0047024c     libucrt:winapi_thunks.obj
 0002:0000426c       ??_C@_0BP@FPNJPEJC@GetSystemTimePreciseAsFileTime@ 0047026c     libucrt:winapi_thunks.obj
 0002:000042a0       ??_C@_0BA@CIJJKCJJ@GetTimeFormatEx@ 004702a0     libucrt:winapi_thunks.obj
 0002:000042c0       ??_C@_0BJ@PBCCBIPI@GetUserDefaultLocaleName@ 004702c0     libucrt:winapi_thunks.obj
 0002:000042ec       ??_C@_0BK@DEKFELLI@GetUserObjectInformationW@ 004702ec     libucrt:winapi_thunks.obj
 0002:00004318       ??_C@_0BG@IKLDMBLM@GetXStateFeaturesMask@ 00470318     libucrt:winapi_thunks.obj
 0002:0000434c       ??_C@_0BC@CELBKLLA@IsValidLocaleName@ 0047034c     libucrt:winapi_thunks.obj
 0002:00004370       ??_C@_0O@KKBNKAPF@LCMapStringEx@ 00470370     libucrt:winapi_thunks.obj
 0002:0000438c       ??_C@_0BB@CDHDDLLP@LCIDToLocaleName@ 0047038c     libucrt:winapi_thunks.obj
 0002:000043ac       ??_C@_0BB@HBDEELFH@LocaleNameToLCID@ 004703ac     libucrt:winapi_thunks.obj
 0002:000043cc       ??_C@_0BE@KINNKFDA@LocateXStateFeature@ 004703cc     libucrt:winapi_thunks.obj
 0002:000043f0       ??_C@_0M@CHKKJDAI@MessageBoxA@ 004703f0     libucrt:winapi_thunks.obj
 0002:0000440c       ??_C@_0M@DLDCCGNP@MessageBoxW@ 0047040c     libucrt:winapi_thunks.obj
 0002:00004420       ??_C@_0N@PPOMPGGK@RoInitialize@ 00470420     libucrt:winapi_thunks.obj
 0002:00004434       ??_C@_0P@LLFHBIJD@RoUninitialize@ 00470434     libucrt:winapi_thunks.obj
 0002:0000444c       ??_C@_0CF@OJOFEIGO@AppPolicyGetProcessTerminationM@ 0047044c     libucrt:winapi_thunks.obj
 0002:0000447c       ??_C@_0CF@NNDFDCOC@AppPolicyGetThreadInitializatio@ 0047047c     libucrt:winapi_thunks.obj
 0002:000044ac       ??_C@_0CE@OICFMIKE@AppPolicyGetShowDeveloperDiagno@ 004704ac     libucrt:winapi_thunks.obj
 0002:000044dc       ??_C@_0BL@ODDJNEDA@AppPolicyGetWindowingModel@ 004704dc     libucrt:winapi_thunks.obj
 0002:00004508       ??_C@_0BI@BKLFFAPO@SetThreadStackGuarantee@ 00470508     libucrt:winapi_thunks.obj
 0002:00004530       ??_C@_0BC@JEAENNKH@SystemFunction036@ 00470530     libucrt:winapi_thunks.obj
 0002:000045c4       ??_C@_03OEIAHPBN@INF@      004705c4     libucrt:cvt.obj
 0002:000045c8       ??_C@_03OJHLLCGB@inf@      004705c8     libucrt:cvt.obj
 0002:000045cc       ??_C@_03LKNCIKJB@NAN@      004705cc     libucrt:cvt.obj
 0002:000045d0       ??_C@_03LHCJEHON@nan@      004705d0     libucrt:cvt.obj
 0002:000045d4       ??_C@_09OFJJIMPC@NAN?$CISNAN?$CJ@ 004705d4     libucrt:cvt.obj
 0002:000045e0       ??_C@_09IPFBKMDL@nan?$CIsnan?$CJ@ 004705e0     libucrt:cvt.obj
 0002:000045ec       ??_C@_08IKHNHAJ@NAN?$CIIND?$CJ@ 004705ec     libucrt:cvt.obj
 0002:000045f8       ??_C@_08OFCDMILK@nan?$CIind?$CJ@ 004705f8     libucrt:cvt.obj
 0002:00004604       ??_C@_05KLBDPFGC@e?$CL000@ 00470604     libucrt:cvt.obj
 0002:00004620       ??_C@_1M@HPNHIDJI@?$AAj?$AAa?$AA?9?$AAJ?$AAP@ 00470620     libucrt:mbctype.obj
 0002:00004630       ??_C@_1M@BIBDDEMK@?$AAz?$AAh?$AA?9?$AAC?$AAN@ 00470630     libucrt:mbctype.obj
 0002:00004640       ??_C@_1M@JLOOOEGK@?$AAk?$AAo?$AA?9?$AAK?$AAR@ 00470640     libucrt:mbctype.obj
 0002:00004650       ??_C@_1M@CLNBBOPM@?$AAz?$AAh?$AA?9?$AAT?$AAW@ 00470650     libucrt:mbctype.obj
 0002:00004660       ___acrt_rg_language        00470660     libucrt:get_qualified_locale.obj
 0002:00004a08       ___acrt_rg_language_count  00470a08     libucrt:get_qualified_locale.obj
 0002:00004a10       ___acrt_rg_country         00470a10     libucrt:get_qualified_locale.obj
 0002:00004b5c       ___acrt_rg_country_count   00470b5c     libucrt:get_qualified_locale.obj
 0002:00004b60       ??_C@_1BC@LLOKLNP@?$AAa?$AAm?$AAe?$AAr?$AAi?$AAc?$AAa?$AAn@ 00470b60     libucrt:get_qualified_locale.obj
 0002:00004b78       ??_C@_1CC@HEIGCDGG@?$AAa?$AAm?$AAe?$AAr?$AAi?$AAc?$AAa?$AAn?$AA?5?$AAe?$AAn?$AAg?$AAl?$AAi?$AAs@ 00470b78     libucrt:get_qualified_locale.obj
 0002:00004ba0       ??_C@_1CC@IHCNOMIN@?$AAa?$AAm?$AAe?$AAr?$AAi?$AAc?$AAa?$AAn?$AA?9?$AAe?$AAn?$AAg?$AAl?$AAi?$AAs@ 00470ba0     libucrt:get_qualified_locale.obj
 0002:00004bc8       ??_C@_1BG@GKAGPCGG@?$AAa?$AAu?$AAs?$AAt?$AAr?$AAa?$AAl?$AAi?$AAa?$AAn@ 00470bc8     libucrt:get_qualified_locale.obj
 0002:00004be4       ??_C@_1BA@GMENCENF@?$AAb?$AAe?$AAl?$AAg?$AAi?$AAa?$AAn@ 00470be4     libucrt:get_qualified_locale.obj
 0002:00004bf8       ??_C@_1BC@PJMIIAAN@?$AAc?$AAa?$AAn?$AAa?$AAd?$AAi?$AAa?$AAn@ 00470bf8     libucrt:get_qualified_locale.obj
 0002:00004c10       ??_C@_17NOIMNFBF@?$AAc?$AAh?$AAh@ 00470c10     libucrt:get_qualified_locale.obj
 0002:00004c1c       ??_C@_17GGDALCHA@?$AAc?$AAh?$AAi@ 00470c1c     libucrt:get_qualified_locale.obj
 0002:00004c28       ??_C@_1BA@NPNJKIBL@?$AAc?$AAh?$AAi?$AAn?$AAe?$AAs?$AAe@ 00470c28     libucrt:get_qualified_locale.obj
 0002:00004c3c       ??_C@_1CC@DINBAMMJ@?$AAc?$AAh?$AAi?$AAn?$AAe?$AAs?$AAe?$AA?9?$AAh?$AAo?$AAn?$AAg?$AAk?$AAo?$AAn@ 00470c3c     libucrt:get_qualified_locale.obj
 0002:00004c64       ??_C@_1CG@IOBJPACO@?$AAc?$AAh?$AAi?$AAn?$AAe?$AAs?$AAe?$AA?9?$AAs?$AAi?$AAm?$AAp?$AAl?$AAi?$AAf@ 00470c64     libucrt:get_qualified_locale.obj
 0002:00004c94       ??_C@_1CE@GAJNDCKG@?$AAc?$AAh?$AAi?$AAn?$AAe?$AAs?$AAe?$AA?9?$AAs?$AAi?$AAn?$AAg?$AAa?$AAp?$AAo@ 00470c94     libucrt:get_qualified_locale.obj
 0002:00004cc0       ??_C@_1CI@PAJPIOOD@?$AAc?$AAh?$AAi?$AAn?$AAe?$AAs?$AAe?$AA?9?$AAt?$AAr?$AAa?$AAd?$AAi?$AAt?$AAi@ 00470cc0     libucrt:get_qualified_locale.obj
 0002:00004cf0       ??_C@_1BM@NILJBMMD@?$AAd?$AAu?$AAt?$AAc?$AAh?$AA?9?$AAb?$AAe?$AAl?$AAg?$AAi?$AAa?$AAn@ 00470cf0     libucrt:get_qualified_locale.obj
 0002:00004d14       ??_C@_1CC@OOJPJNEJ@?$AAe?$AAn?$AAg?$AAl?$AAi?$AAs?$AAh?$AA?9?$AAa?$AAm?$AAe?$AAr?$AAi?$AAc?$AAa@ 00470d14     libucrt:get_qualified_locale.obj
 0002:00004d3c       ??_C@_1BI@IOLFEEM@?$AAe?$AAn?$AAg?$AAl?$AAi?$AAs?$AAh?$AA?9?$AAa?$AAu?$AAs@ 00470d3c     libucrt:get_qualified_locale.obj
 0002:00004d58       ??_C@_1BO@HFFNLENJ@?$AAe?$AAn?$AAg?$AAl?$AAi?$AAs?$AAh?$AA?9?$AAb?$AAe?$AAl?$AAi?$AAz?$AAe@ 00470d58     libucrt:get_qualified_locale.obj
 0002:00004d7c       ??_C@_1BI@HAPKJMPO@?$AAe?$AAn?$AAg?$AAl?$AAi?$AAs?$AAh?$AA?9?$AAc?$AAa?$AAn@ 00470d7c     libucrt:get_qualified_locale.obj
 0002:00004d98       ??_C@_1CE@HLNDMIOJ@?$AAe?$AAn?$AAg?$AAl?$AAi?$AAs?$AAh?$AA?9?$AAc?$AAa?$AAr?$AAi?$AAb?$AAb?$AAe@ 00470d98     libucrt:get_qualified_locale.obj
 0002:00004dc4       ??_C@_1BI@LDHJHHAC@?$AAe?$AAn?$AAg?$AAl?$AAi?$AAs?$AAh?$AA?9?$AAi?$AAr?$AAe@ 00470dc4     libucrt:get_qualified_locale.obj
 0002:00004de0       ??_C@_1CA@NJMMCFOC@?$AAe?$AAn?$AAg?$AAl?$AAi?$AAs?$AAh?$AA?9?$AAj?$AAa?$AAm?$AAa?$AAi?$AAc?$AAa@ 00470de0     libucrt:get_qualified_locale.obj
 0002:00004e08       ??_C@_1BG@BHJEBBGG@?$AAe?$AAn?$AAg?$AAl?$AAi?$AAs?$AAh?$AA?9?$AAn?$AAz@ 00470e08     libucrt:get_qualified_locale.obj
 0002:00004e24       ??_C@_1CK@FGOEJJCO@?$AAe?$AAn?$AAg?$AAl?$AAi?$AAs?$AAh?$AA?9?$AAs?$AAo?$AAu?$AAt?$AAh?$AA?5?$AAa@ 00470e24     libucrt:get_qualified_locale.obj
 0002:00004e58       ??_C@_1DE@PDBJPCJ@?$AAe?$AAn?$AAg?$AAl?$AAi?$AAs?$AAh?$AA?9?$AAt?$AAr?$AAi?$AAn?$AAi?$AAd?$AAa@ 00470e58     libucrt:get_qualified_locale.obj
 0002:00004e98       ??_C@_1BG@JGCANDME@?$AAe?$AAn?$AAg?$AAl?$AAi?$AAs?$AAh?$AA?9?$AAu?$AAk@ 00470e98     libucrt:get_qualified_locale.obj
 0002:00004eb4       ??_C@_1BG@DINKMLE@?$AAe?$AAn?$AAg?$AAl?$AAi?$AAs?$AAh?$AA?9?$AAu?$AAs@ 00470eb4     libucrt:get_qualified_locale.obj
 0002:00004ed0       ??_C@_1BI@NMFDBHJE@?$AAe?$AAn?$AAg?$AAl?$AAi?$AAs?$AAh?$AA?9?$AAu?$AAs?$AAa@ 00470ed0     libucrt:get_qualified_locale.obj
 0002:00004eec       ??_C@_1BO@OIHKJKII@?$AAf?$AAr?$AAe?$AAn?$AAc?$AAh?$AA?9?$AAb?$AAe?$AAl?$AAg?$AAi?$AAa?$AAn@ 00470eec     libucrt:get_qualified_locale.obj
 0002:00004f10       ??_C@_1CA@NKAELJKI@?$AAf?$AAr?$AAe?$AAn?$AAc?$AAh?$AA?9?$AAc?$AAa?$AAn?$AAa?$AAd?$AAi?$AAa?$AAn@ 00470f10     libucrt:get_qualified_locale.obj
 0002:00004f38       ??_C@_1CE@MGKCNLGN@?$AAf?$AAr?$AAe?$AAn?$AAc?$AAh?$AA?9?$AAl?$AAu?$AAx?$AAe?$AAm?$AAb?$AAo?$AAu@ 00470f38     libucrt:get_qualified_locale.obj
 0002:00004f64       ??_C@_1BK@CEGEAILM@?$AAf?$AAr?$AAe?$AAn?$AAc?$AAh?$AA?9?$AAs?$AAw?$AAi?$AAs?$AAs@ 00470f64     libucrt:get_qualified_locale.obj
 0002:00004f84       ??_C@_1CA@PAFKEOCC@?$AAg?$AAe?$AAr?$AAm?$AAa?$AAn?$AA?9?$AAa?$AAu?$AAs?$AAt?$AAr?$AAi?$AAa?$AAn@ 00470f84     libucrt:get_qualified_locale.obj
 0002:00004fac       ??_C@_1CI@HCFHGOFD@?$AAg?$AAe?$AAr?$AAm?$AAa?$AAn?$AA?9?$AAl?$AAi?$AAc?$AAh?$AAt?$AAe?$AAn?$AAs@ 00470fac     libucrt:get_qualified_locale.obj
 0002:00004fdc       ??_C@_1CE@FEDDNPDG@?$AAg?$AAe?$AAr?$AAm?$AAa?$AAn?$AA?9?$AAl?$AAu?$AAx?$AAe?$AAm?$AAb?$AAo?$AAu@ 00470fdc     libucrt:get_qualified_locale.obj
 0002:00005008       ??_C@_1BK@LIMINNMN@?$AAg?$AAe?$AAr?$AAm?$AAa?$AAn?$AA?9?$AAs?$AAw?$AAi?$AAs?$AAs@ 00471008     libucrt:get_qualified_locale.obj
 0002:00005028       ??_C@_1BM@LGMDBEPD@?$AAi?$AAr?$AAi?$AAs?$AAh?$AA?9?$AAe?$AAn?$AAg?$AAl?$AAi?$AAs?$AAh@ 00471028     libucrt:get_qualified_locale.obj
 0002:0000504c       ??_C@_1BM@NNCFBAEE@?$AAi?$AAt?$AAa?$AAl?$AAi?$AAa?$AAn?$AA?9?$AAs?$AAw?$AAi?$AAs?$AAs@ 0047104c     libucrt:get_qualified_locale.obj
 0002:00005070       ??_C@_1BE@FEDJNPIB@?$AAn?$AAo?$AAr?$AAw?$AAe?$AAg?$AAi?$AAa?$AAn@ 00471070     libucrt:get_qualified_locale.obj
 0002:00005088       ??_C@_1CC@CILKDEIE@?$AAn?$AAo?$AAr?$AAw?$AAe?$AAg?$AAi?$AAa?$AAn?$AA?9?$AAb?$AAo?$AAk?$AAm?$AAa@ 00471088     libucrt:get_qualified_locale.obj
 0002:000050b0       ??_C@_1CE@DHMMHEPL@?$AAn?$AAo?$AAr?$AAw?$AAe?$AAg?$AAi?$AAa?$AAn?$AA?9?$AAn?$AAy?$AAn?$AAo?$AAr@ 004710b0     libucrt:get_qualified_locale.obj
 0002:000050dc       ??_C@_1CK@OPNMHECD@?$AAp?$AAo?$AAr?$AAt?$AAu?$AAg?$AAu?$AAe?$AAs?$AAe?$AA?9?$AAb?$AAr?$AAa?$AAz@ 004710dc     libucrt:get_qualified_locale.obj
 0002:00005110       ??_C@_1CE@KEEHCDB@?$AAs?$AAp?$AAa?$AAn?$AAi?$AAs?$AAh?$AA?9?$AAa?$AAr?$AAg?$AAe?$AAn?$AAt?$AAi@ 00471110     libucrt:get_qualified_locale.obj
 0002:0000513c       ??_C@_1CA@GIAOLHJD@?$AAs?$AAp?$AAa?$AAn?$AAi?$AAs?$AAh?$AA?9?$AAb?$AAo?$AAl?$AAi?$AAv?$AAi?$AAa@ 0047113c     libucrt:get_qualified_locale.obj
 0002:00005164       ??_C@_1BM@OJNDFNPD@?$AAs?$AAp?$AAa?$AAn?$AAi?$AAs?$AAh?$AA?9?$AAc?$AAh?$AAi?$AAl?$AAe@ 00471164     libucrt:get_qualified_locale.obj
 0002:00005188       ??_C@_1CC@OCOLPALL@?$AAs?$AAp?$AAa?$AAn?$AAi?$AAs?$AAh?$AA?9?$AAc?$AAo?$AAl?$AAo?$AAm?$AAb?$AAi@ 00471188     libucrt:get_qualified_locale.obj
 0002:000051b0       ??_C@_1CG@BPOFMKBB@?$AAs?$AAp?$AAa?$AAn?$AAi?$AAs?$AAh?$AA?9?$AAc?$AAo?$AAs?$AAt?$AAa?$AA?5?$AAr@ 004711b0     libucrt:get_qualified_locale.obj
 0002:000051e0       ??_C@_1DG@IGOBAPBB@?$AAs?$AAp?$AAa?$AAn?$AAi?$AAs?$AAh?$AA?9?$AAd?$AAo?$AAm?$AAi?$AAn?$AAi?$AAc@ 004711e0     libucrt:get_qualified_locale.obj
 0002:00005220       ??_C@_1CA@JHAPGEGI@?$AAs?$AAp?$AAa?$AAn?$AAi?$AAs?$AAh?$AA?9?$AAe?$AAc?$AAu?$AAa?$AAd?$AAo?$AAr@ 00471220     libucrt:get_qualified_locale.obj
 0002:00005248       ??_C@_1CI@LAPALJPP@?$AAs?$AAp?$AAa?$AAn?$AAi?$AAs?$AAh?$AA?9?$AAe?$AAl?$AA?5?$AAs?$AAa?$AAl?$AAv@ 00471248     libucrt:get_qualified_locale.obj
 0002:00005278       ??_C@_1CE@PDGBOFOM@?$AAs?$AAp?$AAa?$AAn?$AAi?$AAs?$AAh?$AA?9?$AAg?$AAu?$AAa?$AAt?$AAe?$AAm?$AAa@ 00471278     libucrt:get_qualified_locale.obj
 0002:000052a4       ??_C@_1CC@NBEBAODI@?$AAs?$AAp?$AAa?$AAn?$AAi?$AAs?$AAh?$AA?9?$AAh?$AAo?$AAn?$AAd?$AAu?$AAr?$AAa@ 004712a4     libucrt:get_qualified_locale.obj
 0002:000052cc       ??_C@_1CA@LLKGHBMF@?$AAs?$AAp?$AAa?$AAn?$AAi?$AAs?$AAh?$AA?9?$AAm?$AAe?$AAx?$AAi?$AAc?$AAa?$AAn@ 004712cc     libucrt:get_qualified_locale.obj
 0002:000052f4       ??_C@_1BO@LKNDOIGD@?$AAs?$AAp?$AAa?$AAn?$AAi?$AAs?$AAh?$AA?9?$AAm?$AAo?$AAd?$AAe?$AAr?$AAn@ 004712f4     libucrt:get_qualified_locale.obj
 0002:00005318       ??_C@_1CE@NMDMOEEB@?$AAs?$AAp?$AAa?$AAn?$AAi?$AAs?$AAh?$AA?9?$AAn?$AAi?$AAc?$AAa?$AAr?$AAa?$AAg@ 00471318     libucrt:get_qualified_locale.obj
 0002:00005344       ??_C@_1BO@LLCBEJGB@?$AAs?$AAp?$AAa?$AAn?$AAi?$AAs?$AAh?$AA?9?$AAp?$AAa?$AAn?$AAa?$AAm?$AAa@ 00471344     libucrt:get_qualified_locale.obj
 0002:00005368       ??_C@_1CC@FKPGGIHO@?$AAs?$AAp?$AAa?$AAn?$AAi?$AAs?$AAh?$AA?9?$AAp?$AAa?$AAr?$AAa?$AAg?$AAu?$AAa@ 00471368     libucrt:get_qualified_locale.obj
 0002:00005390       ??_C@_1BK@CDEIHOOP@?$AAs?$AAp?$AAa?$AAn?$AAi?$AAs?$AAh?$AA?9?$AAp?$AAe?$AAr?$AAu@ 00471390     libucrt:get_qualified_locale.obj
 0002:000053b0       ??_C@_1CI@GAHAKKGP@?$AAs?$AAp?$AAa?$AAn?$AAi?$AAs?$AAh?$AA?9?$AAp?$AAu?$AAe?$AAr?$AAt?$AAo?$AA?5@ 004713b0     libucrt:get_qualified_locale.obj
 0002:000053e0       ??_C@_1CA@NKJBCAGP@?$AAs?$AAp?$AAa?$AAn?$AAi?$AAs?$AAh?$AA?9?$AAu?$AAr?$AAu?$AAg?$AAu?$AAa?$AAy@ 004713e0     libucrt:get_qualified_locale.obj
 0002:00005408       ??_C@_1CE@ODILCONM@?$AAs?$AAp?$AAa?$AAn?$AAi?$AAs?$AAh?$AA?9?$AAv?$AAe?$AAn?$AAe?$AAz?$AAu?$AAe@ 00471408     libucrt:get_qualified_locale.obj
 0002:00005434       ??_C@_1CA@OBNMCGFO@?$AAs?$AAw?$AAe?$AAd?$AAi?$AAs?$AAh?$AA?9?$AAf?$AAi?$AAn?$AAl?$AAa?$AAn?$AAd@ 00471434     libucrt:get_qualified_locale.obj
 0002:0000545c       ??_C@_1M@PIPDDPPI@?$AAs?$AAw?$AAi?$AAs?$AAs@ 0047145c     libucrt:get_qualified_locale.obj
 0002:0000546c       ??_C@_15PJPFLCCM@?$AAu?$AAk@ 0047146c     libucrt:get_qualified_locale.obj
 0002:00005474       ??_C@_15GMFIMNFM@?$AAu?$AAs@ 00471474     libucrt:get_qualified_locale.obj
 0002:0000547c       ??_C@_17HAEBFAGL@?$AAu?$AAs?$AAa@ 0047147c     libucrt:get_qualified_locale.obj
 0002:00005488       ??_C@_1BA@DPFJEPHB@?$AAa?$AAm?$AAe?$AAr?$AAi?$AAc?$AAa@ 00471488     libucrt:get_qualified_locale.obj
 0002:0000549c       ??_C@_1BA@ELOGGFK@?$AAb?$AAr?$AAi?$AAt?$AAa?$AAi?$AAn@ 0047149c     libucrt:get_qualified_locale.obj
 0002:000054b0       ??_C@_1M@GHBGIGDA@?$AAc?$AAh?$AAi?$AAn?$AAa@ 004714b0     libucrt:get_qualified_locale.obj
 0002:000054c0       ??_C@_1M@NCHEJOPO@?$AAc?$AAz?$AAe?$AAc?$AAh@ 004714c0     libucrt:get_qualified_locale.obj
 0002:000054d0       ??_C@_1BA@BKPAPBLA@?$AAe?$AAn?$AAg?$AAl?$AAa?$AAn?$AAd@ 004714d0     libucrt:get_qualified_locale.obj
 0002:000054e4       ??_C@_1BM@HKBCKIPC@?$AAg?$AAr?$AAe?$AAa?$AAt?$AA?5?$AAb?$AAr?$AAi?$AAt?$AAa?$AAi?$AAn@ 004714e4     libucrt:get_qualified_locale.obj
 0002:00005508       ??_C@_1BA@PPCHPGJB@?$AAh?$AAo?$AAl?$AAl?$AAa?$AAn?$AAd@ 00471508     libucrt:get_qualified_locale.obj
 0002:0000551c       ??_C@_1BE@JBMPEGDG@?$AAh?$AAo?$AAn?$AAg?$AA?9?$AAk?$AAo?$AAn?$AAg@ 0047151c     libucrt:get_qualified_locale.obj
 0002:00005534       ??_C@_1BI@KOELBBPJ@?$AAn?$AAe?$AAw?$AA?9?$AAz?$AAe?$AAa?$AAl?$AAa?$AAn?$AAd@ 00471534     libucrt:get_qualified_locale.obj
 0002:00005550       ??_C@_15HIEBHAIO@?$AAn?$AAz@ 00471550     libucrt:get_qualified_locale.obj
 0002:00005558       ??_C@_1BC@CHBCPFPI@?$AAp?$AAr?$AA?5?$AAc?$AAh?$AAi?$AAn?$AAa@ 00471558     libucrt:get_qualified_locale.obj
 0002:00005570       ??_C@_1BC@JAOIIFKD@?$AAp?$AAr?$AA?9?$AAc?$AAh?$AAi?$AAn?$AAa@ 00471570     libucrt:get_qualified_locale.obj
 0002:00005588       ??_C@_1BI@BEHPPHKC@?$AAp?$AAu?$AAe?$AAr?$AAt?$AAo?$AA?9?$AAr?$AAi?$AAc?$AAo@ 00471588     libucrt:get_qualified_locale.obj
 0002:000055a4       ??_C@_1O@PAEOFKDI@?$AAs?$AAl?$AAo?$AAv?$AAa?$AAk@ 004715a4     libucrt:get_qualified_locale.obj
 0002:000055b4       ??_C@_1BK@FIHMCKAM@?$AAs?$AAo?$AAu?$AAt?$AAh?$AA?5?$AAa?$AAf?$AAr?$AAi?$AAc?$AAa@ 004715b4     libucrt:get_qualified_locale.obj
 0002:000055d4       ??_C@_1BI@NAEOODKB@?$AAs?$AAo?$AAu?$AAt?$AAh?$AA?5?$AAk?$AAo?$AAr?$AAe?$AAa@ 004715d4     libucrt:get_qualified_locale.obj
 0002:000055f0       ??_C@_1BK@FBDGGIFF@?$AAs?$AAo?$AAu?$AAt?$AAh?$AA?9?$AAa?$AAf?$AAr?$AAi?$AAc?$AAa@ 004715f0     libucrt:get_qualified_locale.obj
 0002:00005610       ??_C@_1BI@GHLEJDPK@?$AAs?$AAo?$AAu?$AAt?$AAh?$AA?9?$AAk?$AAo?$AAr?$AAe?$AAa@ 00471610     libucrt:get_qualified_locale.obj
 0002:0000562c       ??_C@_1CE@PLHLOMJF@?$AAt?$AAr?$AAi?$AAn?$AAi?$AAd?$AAa?$AAd?$AA?5?$AA?$CG?$AA?5?$AAt?$AAo?$AAb?$AAa@ 0047162c     libucrt:get_qualified_locale.obj
 0002:00005658       ??_C@_1BO@MODIMHHI@?$AAu?$AAn?$AAi?$AAt?$AAe?$AAd?$AA?9?$AAk?$AAi?$AAn?$AAg?$AAd?$AAo?$AAm@ 00471658     libucrt:get_qualified_locale.obj
 0002:0000567c       ??_C@_1BM@FFHJONBJ@?$AAu?$AAn?$AAi?$AAt?$AAe?$AAd?$AA?9?$AAs?$AAt?$AAa?$AAt?$AAe?$AAs@ 0047167c     libucrt:get_qualified_locale.obj
 0002:000056a0       ??_C@_19MPDNHKDG@?$AAu?$AAt?$AAf?$AA8@ 004716a0     libucrt:get_qualified_locale.obj
 0002:000056ac       ??_C@_17DNCLJFIF@?$AAA?$AAC?$AAP@ 004716ac     libucrt:get_qualified_locale.obj
 0002:000056b8       ??_C@_1M@FPEIIFAM@?$AAu?$AAt?$AAf?$AA?9?$AA8@ 004716b8     libucrt:get_qualified_locale.obj
 0002:000056c8       ??_C@_17CIKBIHLH@?$AAO?$AAC?$AAP@ 004716c8     libucrt:get_qualified_locale.obj
 0002:000056d4       ___rglangidNotDefault      004716d4     libucrt:getqloc_downlevel.obj
 0002:00005f7c       ??_C@_15EMKDOKLE@?$AAa?$AAr@ 00471f7c     libucrt:lcidtoname_downlevel.obj
 0002:00005f84       ??_C@_15KNPADPLH@?$AAb?$AAg@ 00471f84     libucrt:lcidtoname_downlevel.obj
 0002:00005f8c       ??_C@_15EDMHLDMO@?$AAc?$AAa@ 00471f8c     libucrt:lcidtoname_downlevel.obj
 0002:00005f94       ??_C@_1O@BPEAJADD@?$AAz?$AAh?$AA?9?$AAC?$AAH?$AAS@ 00471f94     libucrt:lcidtoname_downlevel.obj
 0002:00005fa4       ??_C@_15LJNHCMNK@?$AAc?$AAs@ 00471fa4     libucrt:lcidtoname_downlevel.obj
 0002:00005fac       ??_C@_15FOMCIDHG@?$AAd?$AAa@ 00471fac     libucrt:lcidtoname_downlevel.obj
 0002:00005fb4       ??_C@_15NBKABECB@?$AAd?$AAe@ 00471fb4     libucrt:lcidtoname_downlevel.obj
 0002:00005fbc       ??_C@_15GHPEIIAO@?$AAe?$AAl@ 00471fbc     libucrt:lcidtoname_downlevel.obj
 0002:00005fc4       ??_C@_15MNPNEAIF@?$AAe?$AAn@ 00471fc4     libucrt:lcidtoname_downlevel.obj
 0002:00005fcc       ??_C@_15GPIOMPMH@?$AAe?$AAs@ 00471fcc     libucrt:lcidtoname_downlevel.obj
 0002:00005fd4       ??_C@_15NGLOAKJC@?$AAf?$AAi@ 00471fd4     libucrt:lcidtoname_downlevel.obj
 0002:00005fdc       ??_C@_15FBKGNKAM@?$AAf?$AAr@ 00471fdc     libucrt:lcidtoname_downlevel.obj
 0002:00005fe4       ??_C@_15KGGCNEFK@?$AAh?$AAe@ 00471fe4     libucrt:lcidtoname_downlevel.obj
 0002:00005fec       ??_C@_15PGHLIDMF@?$AAh?$AAu@ 00471fec     libucrt:lcidtoname_downlevel.obj
 0002:00005ff4       ??_C@_15BIEMAPLM@?$AAi?$AAs@ 00471ff4     libucrt:lcidtoname_downlevel.obj
 0002:00005ffc       ??_C@_15IFJLDHAF@?$AAi?$AAt@ 00471ffc     libucrt:lcidtoname_downlevel.obj
 0002:00006004       ??_C@_15GEMIOCAG@?$AAj?$AAa@ 00472004     libucrt:lcidtoname_downlevel.obj
 0002:0000600c       ??_C@_15EPELEGJA@?$AAk?$AAo@ 0047200c     libucrt:lcidtoname_downlevel.obj
 0002:00006014       ??_C@_15NDDHIMN@?$AAn?$AAl@ 00472014     libucrt:lcidtoname_downlevel.obj
 0002:0000601c       ??_C@_15BPIGNHCD@?$AAn?$AAo@ 0047201c     libucrt:lcidtoname_downlevel.obj
 0002:00006024       ??_C@_15DEOPBLCG@?$AAp?$AAl@ 00472024     libucrt:lcidtoname_downlevel.obj
 0002:0000602c       ??_C@_15KBECGEFG@?$AAp?$AAt@ 0047202c     libucrt:lcidtoname_downlevel.obj
 0002:00006034       ??_C@_15GLJCBFMD@?$AAr?$AAo@ 00472034     libucrt:lcidtoname_downlevel.obj
 0002:0000603c       ??_C@_15FEDGKCDI@?$AAr?$AAu@ 0047203c     libucrt:lcidtoname_downlevel.obj
 0002:00006044       ??_C@_15GLKMLLHM@?$AAh?$AAr@ 00472044     libucrt:lcidtoname_downlevel.obj
 0002:0000604c       ??_C@_15CPKMFBDB@?$AAs?$AAk@ 0047204c     libucrt:lcidtoname_downlevel.obj
 0002:00006054       ??_C@_15BAAIOGMK@?$AAs?$AAq@ 00472054     libucrt:lcidtoname_downlevel.obj
 0002:0000605c       ??_C@_15INNPNOHD@?$AAs?$AAv@ 0047205c     libucrt:lcidtoname_downlevel.obj
 0002:00006064       ??_C@_15CABMMOGH@?$AAt?$AAh@ 00472064     libucrt:lcidtoname_downlevel.obj
 0002:0000606c       ??_C@_15BPLIHJJM@?$AAt?$AAr@ 0047206c     libucrt:lcidtoname_downlevel.obj
 0002:00006074       ??_C@_15NEOEKKDJ@?$AAu?$AAr@ 00472074     libucrt:lcidtoname_downlevel.obj
 0002:0000607c       ??_C@_15NFICGAJK@?$AAi?$AAd@ 0047207c     libucrt:lcidtoname_downlevel.obj
 0002:00006084       ??_C@_15HPJPHDM@?$AAb?$AAe@ 00472084     libucrt:lcidtoname_downlevel.obj
 0002:0000608c       ??_C@_15LCHLGJII@?$AAs?$AAl@ 0047208c     libucrt:lcidtoname_downlevel.obj
 0002:00006094       ??_C@_15PCFJPHHO@?$AAe?$AAt@ 00472094     libucrt:lcidtoname_downlevel.obj
 0002:0000609c       ??_C@_15HPFPGODN@?$AAl?$AAv@ 0047209c     libucrt:lcidtoname_downlevel.obj
 0002:000060a4       ??_C@_15NFFGKGLG@?$AAl?$AAt@ 004720a4     libucrt:lcidtoname_downlevel.obj
 0002:000060ac       ??_C@_15BDAKCCHN@?$AAf?$AAa@ 004720ac     libucrt:lcidtoname_downlevel.obj
 0002:000060b4       ??_C@_15NFGIAIAJ@?$AAv?$AAi@ 004720b4     libucrt:lcidtoname_downlevel.obj
 0002:000060bc       ??_C@_15LMKNDMHN@?$AAh?$AAy@ 004720bc     libucrt:lcidtoname_downlevel.obj
 0002:000060c4       ??_C@_15IJBHMCFL@?$AAa?$AAz@ 004720c4     libucrt:lcidtoname_downlevel.obj
 0002:000060cc       ??_C@_15EKOFJABL@?$AAe?$AAu@ 004720cc     libucrt:lcidtoname_downlevel.obj
 0002:000060d4       ??_C@_15BGHADCNK@?$AAm?$AAk@ 004720d4     libucrt:lcidtoname_downlevel.obj
 0002:000060dc       ??_C@_15JDNICKHM@?$AAa?$AAf@ 004720dc     libucrt:lcidtoname_downlevel.obj
 0002:000060e4       ??_C@_15KPJEDBKD@?$AAk?$AAa@ 004720e4     libucrt:lcidtoname_downlevel.obj
 0002:000060ec       ??_C@_15PDNFFFEO@?$AAf?$AAo@ 004720ec     libucrt:lcidtoname_downlevel.obj
 0002:000060f4       ??_C@_15OMLEGLOC@?$AAh?$AAi@ 004720f4     libucrt:lcidtoname_downlevel.obj
 0002:000060fc       ??_C@_15IDNNENKK@?$AAm?$AAs@ 004720fc     libucrt:lcidtoname_downlevel.obj
 0002:00006104       ??_C@_15MACJNBMH@?$AAk?$AAk@ 00472104     libucrt:lcidtoname_downlevel.obj
 0002:0000610c       ??_C@_15DKDJEOND@?$AAk?$AAy@ 0047210c     libucrt:lcidtoname_downlevel.obj
 0002:00006114       ??_C@_15DFGDLJBG@?$AAs?$AAw@ 00472114     libucrt:lcidtoname_downlevel.obj
 0002:0000611c       ??_C@_15BBFAICNG@?$AAu?$AAz@ 0047211c     libucrt:lcidtoname_downlevel.obj
 0002:00006124       ??_C@_15DKNDCGEA@?$AAt?$AAt@ 00472124     libucrt:lcidtoname_downlevel.obj
 0002:0000612c       ??_C@_15MGIFMDPL@?$AAp?$AAa@ 0047212c     libucrt:lcidtoname_downlevel.obj
 0002:00006134       ??_C@_15HCNDBBA@?$AAg?$AAu@ 00472134     libucrt:lcidtoname_downlevel.obj
 0002:0000613c       ??_C@_15FNBEIBON@?$AAt?$AAa@ 0047213c     libucrt:lcidtoname_downlevel.obj
 0002:00006144       ??_C@_15NCHGBGLK@?$AAt?$AAe@ 00472144     libucrt:lcidtoname_downlevel.obj
 0002:0000614c       ??_C@_15PHPHCBPF@?$AAk?$AAn@ 0047214c     libucrt:lcidtoname_downlevel.obj
 0002:00006154       ??_C@_15DLGBCKMP@?$AAm?$AAr@ 00472154     libucrt:lcidtoname_downlevel.obj
 0002:0000615c       ??_C@_15EABBLBFF@?$AAs?$AAa@ 0047215c     libucrt:lcidtoname_downlevel.obj
 0002:00006164       ??_C@_15CBKOMCOI@?$AAm?$AAn@ 00472164     libucrt:lcidtoname_downlevel.obj
 0002:0000616c       ??_C@_15CKDMCJAF@?$AAg?$AAl@ 0047216c     libucrt:lcidtoname_downlevel.obj
 0002:00006174       ??_C@_17CNJFBPG@?$AAk?$AAo?$AAk@ 00472174     libucrt:lcidtoname_downlevel.obj
 0002:00006180       ??_C@_17FFBJICPL@?$AAs?$AAy?$AAr@ 00472180     libucrt:lcidtoname_downlevel.obj
 0002:0000618c       ??_C@_17KPNDCPAF@?$AAd?$AAi?$AAv@ 0047218c     libucrt:lcidtoname_downlevel.obj
 0002:00006198       ??_C@_11LOCGONAA@@         00472198     libucrt:lcidtoname_downlevel.obj
 0002:0000619c       ??_C@_1M@OKAHONE@?$AAa?$AAr?$AA?9?$AAS?$AAA@ 0047219c     libucrt:lcidtoname_downlevel.obj
 0002:000061ac       ??_C@_1M@FFFIGIGK@?$AAb?$AAg?$AA?9?$AAB?$AAG@ 004721ac     libucrt:lcidtoname_downlevel.obj
 0002:000061bc       ??_C@_1M@BJNKEDC@?$AAc?$AAa?$AA?9?$AAE?$AAS@ 004721bc     libucrt:lcidtoname_downlevel.obj
 0002:000061cc       ??_C@_1M@IJJHFJHA@?$AAc?$AAs?$AA?9?$AAC?$AAZ@ 004721cc     libucrt:lcidtoname_downlevel.obj
 0002:000061dc       ??_C@_1M@CLPEOBGI@?$AAd?$AAa?$AA?9?$AAD?$AAK@ 004721dc     libucrt:lcidtoname_downlevel.obj
 0002:000061ec       ??_C@_1M@MCMADGCB@?$AAd?$AAe?$AA?9?$AAD?$AAE@ 004721ec     libucrt:lcidtoname_downlevel.obj
 0002:000061fc       ??_C@_1M@OOCKEMAM@?$AAe?$AAl?$AA?9?$AAG?$AAR@ 004721fc     libucrt:lcidtoname_downlevel.obj
 0002:0000620c       ??_C@_1M@DDNJFGID@?$AAf?$AAi?$AA?9?$AAF?$AAI@ 0047220c     libucrt:lcidtoname_downlevel.obj
 0002:0000621c       ??_C@_1M@GLIPPMAC@?$AAf?$AAr?$AA?9?$AAF?$AAR@ 0047221c     libucrt:lcidtoname_downlevel.obj
 0002:0000622c       ??_C@_1M@GFMCHPE@?$AAh?$AAe?$AA?9?$AAI?$AAL@ 0047222c     libucrt:lcidtoname_downlevel.obj
 0002:0000623c       ??_C@_1M@MHLPGNKM@?$AAh?$AAu?$AA?9?$AAH?$AAU@ 0047223c     libucrt:lcidtoname_downlevel.obj
 0002:0000624c       ??_C@_1M@LPDDNNPN@?$AAi?$AAs?$AA?9?$AAI?$AAS@ 0047224c     libucrt:lcidtoname_downlevel.obj
 0002:0000625c       ??_C@_1M@MADIPODN@?$AAi?$AAt?$AA?9?$AAI?$AAT@ 0047225c     libucrt:lcidtoname_downlevel.obj
 0002:0000626c       ??_C@_1M@IHBJJGG@?$AAn?$AAl?$AA?9?$AAN?$AAL@ 0047226c     libucrt:lcidtoname_downlevel.obj
 0002:0000627c       ??_C@_1M@EANAGDL@?$AAn?$AAb?$AA?9?$AAN?$AAO@ 0047227c     libucrt:lcidtoname_downlevel.obj
 0002:0000628c       ??_C@_1M@NEIEMEGP@?$AAp?$AAl?$AA?9?$AAP?$AAL@ 0047228c     libucrt:lcidtoname_downlevel.obj
 0002:0000629c       ??_C@_1M@BOCFIGEP@?$AAp?$AAt?$AA?9?$AAB?$AAR@ 0047229c     libucrt:lcidtoname_downlevel.obj
 0002:000062ac       ??_C@_1M@IMPFOPBG@?$AAr?$AAo?$AA?9?$AAR?$AAO@ 004722ac     libucrt:lcidtoname_downlevel.obj
 0002:000062bc       ??_C@_1M@IDNNEJMM@?$AAr?$AAu?$AA?9?$AAR?$AAU@ 004722bc     libucrt:lcidtoname_downlevel.obj
 0002:000062cc       ??_C@_1M@LILEEOGM@?$AAh?$AAr?$AA?9?$AAH?$AAR@ 004722cc     libucrt:lcidtoname_downlevel.obj
 0002:000062dc       ??_C@_1M@FKIFEHPB@?$AAs?$AAk?$AA?9?$AAS?$AAK@ 004722dc     libucrt:lcidtoname_downlevel.obj
 0002:000062ec       ??_C@_1M@LJMAMNPJ@?$AAs?$AAq?$AA?9?$AAA?$AAL@ 004722ec     libucrt:lcidtoname_downlevel.obj
 0002:000062fc       ??_C@_1M@GIAKDKJK@?$AAs?$AAv?$AA?9?$AAS?$AAE@ 004722fc     libucrt:lcidtoname_downlevel.obj
 0002:0000630c       ??_C@_1M@MKJKIKCL@?$AAt?$AAh?$AA?9?$AAT?$AAH@ 0047230c     libucrt:lcidtoname_downlevel.obj
 0002:0000631c       ??_C@_1M@MFLCCMPB@?$AAt?$AAr?$AA?9?$AAT?$AAR@ 0047231c     libucrt:lcidtoname_downlevel.obj
 0002:0000632c       ??_C@_1M@OIJHDKJN@?$AAu?$AAr?$AA?9?$AAP?$AAK@ 0047232c     libucrt:lcidtoname_downlevel.obj
 0002:0000633c       ??_C@_1M@LHIPCIEK@?$AAi?$AAd?$AA?9?$AAI?$AAD@ 0047233c     libucrt:lcidtoname_downlevel.obj
 0002:0000634c       ??_C@_1M@MFMOBGI@?$AAu?$AAk?$AA?9?$AAU?$AAA@ 0047234c     libucrt:lcidtoname_downlevel.obj
 0002:0000635c       ??_C@_1M@OBGLJIPL@?$AAb?$AAe?$AA?9?$AAB?$AAY@ 0047235c     libucrt:lcidtoname_downlevel.obj
 0002:0000636c       ??_C@_1M@BCFAJEAD@?$AAs?$AAl?$AA?9?$AAS?$AAI@ 0047236c     libucrt:lcidtoname_downlevel.obj
 0002:0000637c       ??_C@_1M@FKFFEDDN@?$AAe?$AAt?$AA?9?$AAE?$AAE@ 0047237c     libucrt:lcidtoname_downlevel.obj
 0002:0000638c       ??_C@_1M@KGKKAACI@?$AAl?$AAv?$AA?9?$AAL?$AAV@ 0047238c     libucrt:lcidtoname_downlevel.obj
 0002:0000639c       ??_C@_1M@IFGBIJO@?$AAl?$AAt?$AA?9?$AAL?$AAT@ 0047239c     libucrt:lcidtoname_downlevel.obj
 0002:000063ac       ??_C@_1M@FGEAHEDM@?$AAf?$AAa?$AA?9?$AAI?$AAR@ 004723ac     libucrt:lcidtoname_downlevel.obj
 0002:000063bc       ??_C@_1M@KBMAIBFN@?$AAv?$AAi?$AA?9?$AAV?$AAN@ 004723bc     libucrt:lcidtoname_downlevel.obj
 0002:000063cc       ??_C@_1M@GPCBKDJK@?$AAh?$AAy?$AA?9?$AAA?$AAM@ 004723cc     libucrt:lcidtoname_downlevel.obj
 0002:000063dc       ??_C@_1BG@BECMDDJB@?$AAa?$AAz?$AA?9?$AAA?$AAZ?$AA?9?$AAL?$AAa?$AAt?$AAn@ 004723dc     libucrt:lcidtoname_downlevel.obj
 0002:000063f8       ??_C@_1M@MAOFCAEA@?$AAe?$AAu?$AA?9?$AAE?$AAS@ 004723f8     libucrt:lcidtoname_downlevel.obj
 0002:00006408       ??_C@_1M@IGHABKPI@?$AAm?$AAk?$AA?9?$AAM?$AAK@ 00472408     libucrt:lcidtoname_downlevel.obj
 0002:00006418       ??_C@_1M@IAIGNEJG@?$AAt?$AAn?$AA?9?$AAZ?$AAA@ 00472418     libucrt:lcidtoname_downlevel.obj
 0002:00006428       ??_C@_1M@IIJCOJFA@?$AAx?$AAh?$AA?9?$AAZ?$AAA@ 00472428     libucrt:lcidtoname_downlevel.obj
 0002:00006438       ??_C@_1M@LGPJHNJH@?$AAz?$AAu?$AA?9?$AAZ?$AAA@ 00472438     libucrt:lcidtoname_downlevel.obj
 0002:00006448       ??_C@_1M@HOKAOIO@?$AAa?$AAf?$AA?9?$AAZ?$AAA@ 00472448     libucrt:lcidtoname_downlevel.obj
 0002:00006458       ??_C@_1M@DPCLHLIE@?$AAk?$AAa?$AA?9?$AAG?$AAE@ 00472458     libucrt:lcidtoname_downlevel.obj
 0002:00006468       ??_C@_1M@BLKMHJBI@?$AAf?$AAo?$AA?9?$AAF?$AAO@ 00472468     libucrt:lcidtoname_downlevel.obj
 0002:00006478       ??_C@_1M@LGGJAPPB@?$AAh?$AAi?$AA?9?$AAI?$AAN@ 00472478     libucrt:lcidtoname_downlevel.obj
 0002:00006488       ??_C@_1M@FIKPIHFE@?$AAm?$AAt?$AA?9?$AAM?$AAT@ 00472488     libucrt:lcidtoname_downlevel.obj
 0002:00006498       ??_C@_1M@HEGGPBFA@?$AAs?$AAe?$AA?9?$AAN?$AAO@ 00472498     libucrt:lcidtoname_downlevel.obj
 0002:000064a8       ??_C@_1M@EIBJEEPA@?$AAm?$AAs?$AA?9?$AAM?$AAY@ 004724a8     libucrt:lcidtoname_downlevel.obj
 0002:000064b8       ??_C@_1M@FHLBGMPP@?$AAk?$AAk?$AA?9?$AAK?$AAZ@ 004724b8     libucrt:lcidtoname_downlevel.obj
 0002:000064c8       ??_C@_1M@NGJJLCGI@?$AAk?$AAy?$AA?9?$AAK?$AAG@ 004724c8     libucrt:lcidtoname_downlevel.obj
 0002:000064d8       ??_C@_1M@GIENNBFC@?$AAs?$AAw?$AA?9?$AAK?$AAE@ 004724d8     libucrt:lcidtoname_downlevel.obj
 0002:000064e8       ??_C@_1BG@NDGMJIMJ@?$AAu?$AAz?$AA?9?$AAU?$AAZ?$AA?9?$AAL?$AAa?$AAt?$AAn@ 004724e8     libucrt:lcidtoname_downlevel.obj
 0002:00006504       ??_C@_1M@IDCCIHBC@?$AAt?$AAt?$AA?9?$AAR?$AAU@ 00472504     libucrt:lcidtoname_downlevel.obj
 0002:00006514       ??_C@_1M@LOICPMOJ@?$AAb?$AAn?$AA?9?$AAI?$AAN@ 00472514     libucrt:lcidtoname_downlevel.obj
 0002:00006524       ??_C@_1M@KPKKNEAH@?$AAp?$AAa?$AA?9?$AAI?$AAN@ 00472524     libucrt:lcidtoname_downlevel.obj
 0002:00006534       ??_C@_1M@PJGPPBOG@?$AAg?$AAu?$AA?9?$AAI?$AAN@ 00472534     libucrt:lcidtoname_downlevel.obj
 0002:00006544       ??_C@_1M@KMKMOPHI@?$AAt?$AAa?$AA?9?$AAI?$AAN@ 00472544     libucrt:lcidtoname_downlevel.obj
 0002:00006554       ??_C@_1M@KFEHEPAC@?$AAt?$AAe?$AA?9?$AAI?$AAN@ 00472554     libucrt:lcidtoname_downlevel.obj
 0002:00006564       ??_C@_1M@CDCLMGHI@?$AAk?$AAn?$AA?9?$AAI?$AAN@ 00472564     libucrt:lcidtoname_downlevel.obj
 0002:00006574       ??_C@_1M@MIODLDKF@?$AAm?$AAl?$AA?9?$AAI?$AAN@ 00472574     libucrt:lcidtoname_downlevel.obj
 0002:00006584       ??_C@_1M@PBIEACPO@?$AAm?$AAr?$AA?9?$AAI?$AAN@ 00472584     libucrt:lcidtoname_downlevel.obj
 0002:00006594       ??_C@_1M@NIDEAGPH@?$AAs?$AAa?$AA?9?$AAI?$AAN@ 00472594     libucrt:lcidtoname_downlevel.obj
 0002:000065a4       ??_C@_1M@FHIHCBIO@?$AAm?$AAn?$AA?9?$AAM?$AAN@ 004725a4     libucrt:lcidtoname_downlevel.obj
 0002:000065b4       ??_C@_1M@JAIJPENP@?$AAc?$AAy?$AA?9?$AAG?$AAB@ 004725b4     libucrt:lcidtoname_downlevel.obj
 0002:000065c4       ??_C@_1M@PHGFBEPN@?$AAg?$AAl?$AA?9?$AAE?$AAS@ 004725c4     libucrt:lcidtoname_downlevel.obj
 0002:000065d4       ??_C@_1O@KPIPDNCP@?$AAk?$AAo?$AAk?$AA?9?$AAI?$AAN@ 004725d4     libucrt:lcidtoname_downlevel.obj
 0002:000065e4       ??_C@_1O@KNHJLDJA@?$AAs?$AAy?$AAr?$AA?9?$AAS?$AAY@ 004725e4     libucrt:lcidtoname_downlevel.obj
 0002:000065f4       ??_C@_1O@MKEKBLAH@?$AAd?$AAi?$AAv?$AA?9?$AAM?$AAV@ 004725f4     libucrt:lcidtoname_downlevel.obj
 0002:00006604       ??_C@_1O@OHDCKDDF@?$AAq?$AAu?$AAz?$AA?9?$AAB?$AAO@ 00472604     libucrt:lcidtoname_downlevel.obj
 0002:00006614       ??_C@_1M@LEPJNLFD@?$AAn?$AAs?$AA?9?$AAZ?$AAA@ 00472614     libucrt:lcidtoname_downlevel.obj
 0002:00006624       ??_C@_1M@OMLEIIJB@?$AAm?$AAi?$AA?9?$AAN?$AAZ@ 00472624     libucrt:lcidtoname_downlevel.obj
 0002:00006634       ??_C@_1M@PMPEAILG@?$AAa?$AAr?$AA?9?$AAI?$AAQ@ 00472634     libucrt:lcidtoname_downlevel.obj
 0002:00006644       ??_C@_1M@CNKPNOEE@?$AAd?$AAe?$AA?9?$AAC?$AAH@ 00472644     libucrt:lcidtoname_downlevel.obj
 0002:00006654       ??_C@_1M@LKMGMLKO@?$AAe?$AAn?$AA?9?$AAG?$AAB@ 00472654     libucrt:lcidtoname_downlevel.obj
 0002:00006664       ??_C@_1M@PGKJFFGL@?$AAe?$AAs?$AA?9?$AAM?$AAX@ 00472664     libucrt:lcidtoname_downlevel.obj
 0002:00006674       ??_C@_1M@DNNANBDC@?$AAf?$AAr?$AA?9?$AAB?$AAE@ 00472674     libucrt:lcidtoname_downlevel.obj
 0002:00006684       ??_C@_1M@HLGMDFHM@?$AAi?$AAt?$AA?9?$AAC?$AAH@ 00472684     libucrt:lcidtoname_downlevel.obj
 0002:00006694       ??_C@_1M@CLLBGJH@?$AAn?$AAl?$AA?9?$AAB?$AAE@ 00472694     libucrt:lcidtoname_downlevel.obj
 0002:000066a4       ??_C@_1M@BODBOGLF@?$AAn?$AAn?$AA?9?$AAN?$AAO@ 004726a4     libucrt:lcidtoname_downlevel.obj
 0002:000066b4       ??_C@_1M@HFFAHKAD@?$AAp?$AAt?$AA?9?$AAP?$AAT@ 004726b4     libucrt:lcidtoname_downlevel.obj
 0002:000066c4       ??_C@_1BG@LNOAKHIE@?$AAs?$AAr?$AA?9?$AAS?$AAP?$AA?9?$AAL?$AAa?$AAt?$AAn@ 004726c4     libucrt:lcidtoname_downlevel.obj
 0002:000066e0       ??_C@_1M@HBMHBGAK@?$AAs?$AAv?$AA?9?$AAF?$AAI@ 004726e0     libucrt:lcidtoname_downlevel.obj
 0002:000066f0       ??_C@_1BG@DGCJGJBE@?$AAa?$AAz?$AA?9?$AAA?$AAZ?$AA?9?$AAC?$AAy?$AAr?$AAl@ 004726f0     libucrt:lcidtoname_downlevel.obj
 0002:0000670c       ??_C@_1M@KEJDAAHB@?$AAs?$AAe?$AA?9?$AAS?$AAE@ 0047270c     libucrt:lcidtoname_downlevel.obj
 0002:0000671c       ??_C@_1M@HEIBJJAD@?$AAm?$AAs?$AA?9?$AAB?$AAN@ 0047271c     libucrt:lcidtoname_downlevel.obj
 0002:0000672c       ??_C@_1BG@PBGJMCEM@?$AAu?$AAz?$AA?9?$AAU?$AAZ?$AA?9?$AAC?$AAy?$AAr?$AAl@ 0047272c     libucrt:lcidtoname_downlevel.obj
 0002:00006748       ??_C@_1O@LAOBCMDF@?$AAq?$AAu?$AAz?$AA?9?$AAE?$AAC@ 00472748     libucrt:lcidtoname_downlevel.obj
 0002:00006758       ??_C@_1M@POEEMAIO@?$AAa?$AAr?$AA?9?$AAE?$AAG@ 00472758     libucrt:lcidtoname_downlevel.obj
 0002:00006768       ??_C@_1M@EFAKDEDL@?$AAz?$AAh?$AA?9?$AAH?$AAK@ 00472768     libucrt:lcidtoname_downlevel.obj
 0002:00006778       ??_C@_1M@HKKIJHGI@?$AAd?$AAe?$AA?9?$AAA?$AAT@ 00472778     libucrt:lcidtoname_downlevel.obj
 0002:00006788       ??_C@_1M@KBFBEHJF@?$AAe?$AAn?$AA?9?$AAA?$AAU@ 00472788     libucrt:lcidtoname_downlevel.obj
 0002:00006798       ??_C@_1M@MNPLFAAH@?$AAe?$AAs?$AA?9?$AAE?$AAS@ 00472798     libucrt:lcidtoname_downlevel.obj
 0002:000067a8       ??_C@_1M@HJOOJFMA@?$AAf?$AAr?$AA?9?$AAC?$AAA@ 004727a8     libucrt:lcidtoname_downlevel.obj
 0002:000067b8       ??_C@_1BG@JPOFPNAB@?$AAs?$AAr?$AA?9?$AAS?$AAP?$AA?9?$AAC?$AAy?$AAr?$AAl@ 004727b8     libucrt:lcidtoname_downlevel.obj
 0002:000067d4       ??_C@_1M@LNFOCMOB@?$AAs?$AAe?$AA?9?$AAF?$AAI@ 004727d4     libucrt:lcidtoname_downlevel.obj
 0002:000067e4       ??_C@_1O@MGJBOAMB@?$AAq?$AAu?$AAz?$AA?9?$AAP?$AAE@ 004727e4     libucrt:lcidtoname_downlevel.obj
 0002:000067f4       ??_C@_1M@GJINLBOK@?$AAa?$AAr?$AA?9?$AAL?$AAY@ 004727f4     libucrt:lcidtoname_downlevel.obj
 0002:00006804       ??_C@_1M@GGMNHJNL@?$AAz?$AAh?$AA?9?$AAS?$AAG@ 00472804     libucrt:lcidtoname_downlevel.obj
 0002:00006814       ??_C@_1M@HOIKODND@?$AAd?$AAe?$AA?9?$AAL?$AAU@ 00472814     libucrt:lcidtoname_downlevel.obj
 0002:00006824       ??_C@_1M@DDOCCGFG@?$AAe?$AAn?$AA?9?$AAC?$AAA@ 00472824     libucrt:lcidtoname_downlevel.obj
 0002:00006834       ??_C@_1M@BNOEMJLF@?$AAe?$AAs?$AA?9?$AAG?$AAT@ 00472834     libucrt:lcidtoname_downlevel.obj
 0002:00006844       ??_C@_1M@EOGNKEK@?$AAf?$AAr?$AA?9?$AAC?$AAH@ 00472844     libucrt:lcidtoname_downlevel.obj
 0002:00006854       ??_C@_1M@FLIDJFHL@?$AAh?$AAr?$AA?9?$AAB?$AAA@ 00472854     libucrt:lcidtoname_downlevel.obj
 0002:00006864       ??_C@_1O@FMCELNAJ@?$AAs?$AAm?$AAj?$AA?9?$AAN?$AAO@ 00472864     libucrt:lcidtoname_downlevel.obj
 0002:00006874       ??_C@_1M@JHGLJMGJ@?$AAa?$AAr?$AA?9?$AAD?$AAZ@ 00472874     libucrt:lcidtoname_downlevel.obj
 0002:00006884       ??_C@_1M@JKKFDCNP@?$AAz?$AAh?$AA?9?$AAM?$AAO@ 00472884     libucrt:lcidtoname_downlevel.obj
 0002:00006894       ??_C@_1M@GEEFALPE@?$AAd?$AAe?$AA?9?$AAL?$AAI@ 00472894     libucrt:lcidtoname_downlevel.obj
 0002:000068a4       ??_C@_1M@IGEOFBG@?$AAe?$AAn?$AA?9?$AAN?$AAZ@ 004728a4     libucrt:lcidtoname_downlevel.obj
 0002:000068b4       ??_C@_1M@KDBONEHP@?$AAe?$AAs?$AA?9?$AAC?$AAR@ 004728b4     libucrt:lcidtoname_downlevel.obj
 0002:000068c4       ??_C@_1M@FHMDOHNN@?$AAf?$AAr?$AA?9?$AAL?$AAU@ 004728c4     libucrt:lcidtoname_downlevel.obj
 0002:000068d4       ??_C@_1BG@NFKKMAFG@?$AAb?$AAs?$AA?9?$AAB?$AAA?$AA?9?$AAL?$AAa?$AAt?$AAn@ 004728d4     libucrt:lcidtoname_downlevel.obj
 0002:000068f0       ??_C@_1O@IMNBEMCI@?$AAs?$AAm?$AAj?$AA?9?$AAS?$AAE@ 004728f0     libucrt:lcidtoname_downlevel.obj
 0002:00006900       ??_C@_1M@DHHMBNDP@?$AAa?$AAr?$AA?9?$AAM?$AAA@ 00472900     libucrt:lcidtoname_downlevel.obj
 0002:00006910       ??_C@_1M@BNBLJCGH@?$AAe?$AAn?$AA?9?$AAI?$AAE@ 00472910     libucrt:lcidtoname_downlevel.obj
 0002:00006920       ??_C@_1M@GEPAFMDL@?$AAe?$AAs?$AA?9?$AAP?$AAA@ 00472920     libucrt:lcidtoname_downlevel.obj
 0002:00006930       ??_C@_1M@OJONDMDL@?$AAf?$AAr?$AA?9?$AAM?$AAC@ 00472930     libucrt:lcidtoname_downlevel.obj
 0002:00006940       ??_C@_1BG@OBCNFJB@?$AAs?$AAr?$AA?9?$AAB?$AAA?$AA?9?$AAL?$AAa?$AAt?$AAn@ 00472940     libucrt:lcidtoname_downlevel.obj
 0002:0000695c       ??_C@_1O@KEMEEGPO@?$AAs?$AAm?$AAa?$AA?9?$AAN?$AAO@ 0047295c     libucrt:lcidtoname_downlevel.obj
 0002:0000696c       ??_C@_1M@ELMGFODK@?$AAa?$AAr?$AA?9?$AAT?$AAN@ 0047296c     libucrt:lcidtoname_downlevel.obj
 0002:0000697c       ??_C@_1M@BHDLHFAF@?$AAe?$AAn?$AA?9?$AAZ?$AAA@ 0047297c     libucrt:lcidtoname_downlevel.obj
 0002:0000698c       ??_C@_1M@BMGIGLIF@?$AAe?$AAs?$AA?9?$AAD?$AAO@ 0047298c     libucrt:lcidtoname_downlevel.obj
 0002:0000699c       ??_C@_1BG@CMBHIPBE@?$AAs?$AAr?$AA?9?$AAB?$AAA?$AA?9?$AAC?$AAy?$AAr?$AAl@ 0047299c     libucrt:lcidtoname_downlevel.obj
 0002:000069b8       ??_C@_1O@HEDBLHNP@?$AAs?$AAm?$AAa?$AA?9?$AAS?$AAE@ 004729b8     libucrt:lcidtoname_downlevel.obj
 0002:000069c8       ??_C@_1M@DAGCADIM@?$AAa?$AAr?$AA?9?$AAO?$AAM@ 004729c8     libucrt:lcidtoname_downlevel.obj
 0002:000069d8       ??_C@_1M@FODLMICG@?$AAe?$AAn?$AA?9?$AAJ?$AAM@ 004729d8     libucrt:lcidtoname_downlevel.obj
 0002:000069e8       ??_C@_1M@DNMLCIHB@?$AAe?$AAs?$AA?9?$AAV?$AAE@ 004729e8     libucrt:lcidtoname_downlevel.obj
 0002:000069f8       ??_C@_1O@EOKHMKJK@?$AAs?$AAm?$AAs?$AA?9?$AAF?$AAI@ 004729f8     libucrt:lcidtoname_downlevel.obj
 0002:00006a08       ??_C@_1M@CAFJMKOF@?$AAa?$AAr?$AA?9?$AAY?$AAE@ 00472a08     libucrt:lcidtoname_downlevel.obj
 0002:00006a18       ??_C@_1M@CBFHIJLI@?$AAe?$AAn?$AA?9?$AAC?$AAB@ 00472a18     libucrt:lcidtoname_downlevel.obj
 0002:00006a28       ??_C@_1M@BGNFLDN@?$AAe?$AAs?$AA?9?$AAC?$AAO@ 00472a28     libucrt:lcidtoname_downlevel.obj
 0002:00006a38       ??_C@_1O@JMPHMAMC@?$AAs?$AAm?$AAn?$AA?9?$AAF?$AAI@ 00472a38     libucrt:lcidtoname_downlevel.obj
 0002:00006a48       ??_C@_1M@JLANABKE@?$AAa?$AAr?$AA?9?$AAS?$AAY@ 00472a48     libucrt:lcidtoname_downlevel.obj
 0002:00006a58       ??_C@_1M@HPKGCFGN@?$AAe?$AAn?$AA?9?$AAB?$AAZ@ 00472a58     libucrt:lcidtoname_downlevel.obj
 0002:00006a68       ??_C@_1M@OLJCMLGM@?$AAe?$AAs?$AA?9?$AAP?$AAE@ 00472a68     libucrt:lcidtoname_downlevel.obj
 0002:00006a78       ??_C@_1M@MKKGFKLE@?$AAa?$AAr?$AA?9?$AAJ?$AAO@ 00472a78     libucrt:lcidtoname_downlevel.obj
 0002:00006a88       ??_C@_1M@EKPGLDNI@?$AAe?$AAn?$AA?9?$AAT?$AAT@ 00472a88     libucrt:lcidtoname_downlevel.obj
 0002:00006a98       ??_C@_1M@OONGHFHE@?$AAe?$AAs?$AA?9?$AAA?$AAR@ 00472a98     libucrt:lcidtoname_downlevel.obj
 0002:00006aa8       ??_C@_1M@OOJFGBHE@?$AAa?$AAr?$AA?9?$AAL?$AAB@ 00472aa8     libucrt:lcidtoname_downlevel.obj
 0002:00006ab8       ??_C@_1M@GCEJHNEG@?$AAe?$AAn?$AA?9?$AAZ?$AAW@ 00472ab8     libucrt:lcidtoname_downlevel.obj
 0002:00006ac8       ??_C@_1M@JNOCAHJI@?$AAe?$AAs?$AA?9?$AAE?$AAC@ 00472ac8     libucrt:lcidtoname_downlevel.obj
 0002:00006ad8       ??_C@_1M@JEFHPGGB@?$AAa?$AAr?$AA?9?$AAK?$AAW@ 00472ad8     libucrt:lcidtoname_downlevel.obj
 0002:00006ae8       ??_C@_1M@MLKIBJOJ@?$AAe?$AAn?$AA?9?$AAP?$AAH@ 00472ae8     libucrt:lcidtoname_downlevel.obj
 0002:00006af8       ??_C@_1M@BDNIPEND@?$AAe?$AAs?$AA?9?$AAC?$AAL@ 00472af8     libucrt:lcidtoname_downlevel.obj
 0002:00006b08       ??_C@_1M@MPNMEKBD@?$AAa?$AAr?$AA?9?$AAA?$AAE@ 00472b08     libucrt:lcidtoname_downlevel.obj
 0002:00006b18       ??_C@_1M@KBJALCPI@?$AAe?$AAs?$AA?9?$AAU?$AAY@ 00472b18     libucrt:lcidtoname_downlevel.obj
 0002:00006b28       ??_C@_1M@LLCCOAGA@?$AAa?$AAr?$AA?9?$AAB?$AAH@ 00472b28     libucrt:lcidtoname_downlevel.obj
 0002:00006b38       ??_C@_1M@PBFNCDEL@?$AAe?$AAs?$AA?9?$AAP?$AAY@ 00472b38     libucrt:lcidtoname_downlevel.obj
 0002:00006b48       ??_C@_1M@EDGINPNP@?$AAa?$AAr?$AA?9?$AAQ?$AAA@ 00472b48     libucrt:lcidtoname_downlevel.obj
 0002:00006b58       ??_C@_1M@MKDBIIJI@?$AAe?$AAs?$AA?9?$AAB?$AAO@ 00472b58     libucrt:lcidtoname_downlevel.obj
 0002:00006b68       ??_C@_1M@CPKKEBLD@?$AAe?$AAs?$AA?9?$AAS?$AAV@ 00472b68     libucrt:lcidtoname_downlevel.obj
 0002:00006b78       ??_C@_1M@NDBGMMJL@?$AAe?$AAs?$AA?9?$AAH?$AAN@ 00472b78     libucrt:lcidtoname_downlevel.obj
 0002:00006b88       ??_C@_1M@JIJIBHDP@?$AAe?$AAs?$AA?9?$AAN?$AAI@ 00472b88     libucrt:lcidtoname_downlevel.obj
 0002:00006b98       ??_C@_1M@CGFMKEEK@?$AAe?$AAs?$AA?9?$AAP?$AAR@ 00472b98     libucrt:lcidtoname_downlevel.obj
 0002:00006ba8       ??_C@_1O@ICJHKIIK@?$AAz?$AAh?$AA?9?$AAC?$AAH?$AAT@ 00472ba8     libucrt:lcidtoname_downlevel.obj
 0002:00006bb8       ??_C@_15CLNEJCE@?$AAs?$AAr@ 00472bb8     libucrt:lcidtoname_downlevel.obj
 0002:0000744c       ??_C@_1M@KAHEKEIG@?$AAa?$AAf?$AA?9?$AAz?$AAa@ 0047344c     libucrt:lcidtoname_downlevel.obj
 0002:0000745c       ??_C@_1M@GIECOABL@?$AAa?$AAr?$AA?9?$AAa?$AAe@ 0047345c     libucrt:lcidtoname_downlevel.obj
 0002:0000746c       ??_C@_1M@BMLMEKGI@?$AAa?$AAr?$AA?9?$AAb?$AAh@ 0047346c     libucrt:lcidtoname_downlevel.obj
 0002:0000747c       ??_C@_1M@DAPFDGGB@?$AAa?$AAr?$AA?9?$AAd?$AAz@ 0047347c     libucrt:lcidtoname_downlevel.obj
 0002:0000748c       ??_C@_1M@FJNKGKIG@?$AAa?$AAr?$AA?9?$AAe?$AAg@ 0047348c     libucrt:lcidtoname_downlevel.obj
 0002:0000749c       ??_C@_1M@FLGKKCLO@?$AAa?$AAr?$AA?9?$AAi?$AAq@ 0047349c     libucrt:lcidtoname_downlevel.obj
 0002:000074ac       ??_C@_1M@GNDIPALM@?$AAa?$AAr?$AA?9?$AAj?$AAo@ 004734ac     libucrt:lcidtoname_downlevel.obj
 0002:000074bc       ??_C@_1M@DDMJFMGJ@?$AAa?$AAr?$AA?9?$AAk?$AAw@ 004734bc     libucrt:lcidtoname_downlevel.obj
 0002:000074cc       ??_C@_1M@EJALMLHM@?$AAa?$AAr?$AA?9?$AAl?$AAb@ 004734cc     libucrt:lcidtoname_downlevel.obj
 0002:000074dc       ??_C@_1M@MOBDBLOC@?$AAa?$AAr?$AA?9?$AAl?$AAy@ 004734dc     libucrt:lcidtoname_downlevel.obj
 0002:000074ec       ??_C@_1M@JAOCLHDH@?$AAa?$AAr?$AA?9?$AAm?$AAa@ 004734ec     libucrt:lcidtoname_downlevel.obj
 0002:000074fc       ??_C@_1M@JHPMKJIE@?$AAa?$AAr?$AA?9?$AAo?$AAm@ 004734fc     libucrt:lcidtoname_downlevel.obj
 0002:0000750c       ??_C@_1M@OEPGHFNH@?$AAa?$AAr?$AA?9?$AAq?$AAa@ 0047350c     libucrt:lcidtoname_downlevel.obj
 0002:0000751c       ??_C@_1M@KJDONENM@?$AAa?$AAr?$AA?9?$AAs?$AAa@ 0047351c     libucrt:lcidtoname_downlevel.obj
 0002:0000752c       ??_C@_1M@DMJDKLKM@?$AAa?$AAr?$AA?9?$AAs?$AAy@ 0047352c     libucrt:lcidtoname_downlevel.obj
 0002:0000753c       ??_C@_1M@OMFIPEDC@?$AAa?$AAr?$AA?9?$AAt?$AAn@ 0047353c     libucrt:lcidtoname_downlevel.obj
 0002:0000754c       ??_C@_1M@IHMHGAON@?$AAa?$AAr?$AA?9?$AAy?$AAe@ 0047354c     libucrt:lcidtoname_downlevel.obj
 0002:0000755c       ??_C@_1BG@KDCPGJGB@?$AAa?$AAz?$AA?9?$AAa?$AAz?$AA?9?$AAc?$AAy?$AAr?$AAl@ 0047355c     libucrt:lcidtoname_downlevel.obj
 0002:00007578       ??_C@_1BG@IBCKDDOE@?$AAa?$AAz?$AA?9?$AAa?$AAz?$AA?9?$AAl?$AAa?$AAt?$AAn@ 00473578     libucrt:lcidtoname_downlevel.obj
 0002:00007594       ??_C@_1M@EGPFDCPD@?$AAb?$AAe?$AA?9?$AAb?$AAy@ 00473594     libucrt:lcidtoname_downlevel.obj
 0002:000075a4       ??_C@_1M@PCMGMCGC@?$AAb?$AAg?$AA?9?$AAb?$AAg@ 004735a4     libucrt:lcidtoname_downlevel.obj
 0002:000075b4       ??_C@_1M@BJBMFGOB@?$AAb?$AAn?$AA?9?$AAi?$AAn@ 004735b4     libucrt:lcidtoname_downlevel.obj
 0002:000075c4       ??_C@_1BG@EAKMMACD@?$AAb?$AAs?$AA?9?$AAb?$AAa?$AA?9?$AAl?$AAa?$AAt?$AAn@ 004735c4     libucrt:lcidtoname_downlevel.obj
 0002:000075e0       ??_C@_1M@KGADAODK@?$AAc?$AAa?$AA?9?$AAe?$AAs@ 004735e0     libucrt:lcidtoname_downlevel.obj
 0002:000075f0       ??_C@_1M@COAJPDHI@?$AAc?$AAs?$AA?9?$AAc?$AAz@ 004735f0     libucrt:lcidtoname_downlevel.obj
 0002:00007600       ??_C@_1M@DHBHFONH@?$AAc?$AAy?$AA?9?$AAg?$AAb@ 00473600     libucrt:lcidtoname_downlevel.obj
 0002:00007610       ??_C@_1M@IMGKELGA@?$AAd?$AAa?$AA?9?$AAd?$AAk@ 00473610     libucrt:lcidtoname_downlevel.obj
 0002:00007620       ??_C@_1M@NNDGDNGA@?$AAd?$AAe?$AA?9?$AAa?$AAt@ 00473620     libucrt:lcidtoname_downlevel.obj
 0002:00007630       ??_C@_1M@IKDBHEEM@?$AAd?$AAe?$AA?9?$AAc?$AAh@ 00473630     libucrt:lcidtoname_downlevel.obj
 0002:00007640       ??_C@_1M@GFFOJMCJ@?$AAd?$AAe?$AA?9?$AAd?$AAe@ 00473640     libucrt:lcidtoname_downlevel.obj
 0002:00007650       ??_C@_1M@MDNLKBPM@?$AAd?$AAe?$AA?9?$AAl?$AAi@ 00473650     libucrt:lcidtoname_downlevel.obj
 0002:00007660       ??_C@_1M@NJBEEJNL@?$AAd?$AAe?$AA?9?$AAl?$AAu@ 00473660     libucrt:lcidtoname_downlevel.obj
 0002:00007670       ??_C@_1O@GNNELBAP@?$AAd?$AAi?$AAv?$AA?9?$AAm?$AAv@ 00473670     libucrt:lcidtoname_downlevel.obj
 0002:00007680       ??_C@_1M@EJLEOGAE@?$AAe?$AAl?$AA?9?$AAg?$AAr@ 00473680     libucrt:lcidtoname_downlevel.obj
 0002:00007690       ??_C@_1M@GMPONJN@?$AAe?$AAn?$AA?9?$AAa?$AAu@ 00473690     libucrt:lcidtoname_downlevel.obj
 0002:000076a0       ??_C@_1M@NIDIIPGF@?$AAe?$AAn?$AA?9?$AAb?$AAz@ 004736a0     libucrt:lcidtoname_downlevel.obj
 0002:000076b0       ??_C@_1M@JEHMIMFO@?$AAe?$AAn?$AA?9?$AAc?$AAa@ 004736b0     libucrt:lcidtoname_downlevel.obj
 0002:000076c0       ??_C@_1M@IGMJCDLA@?$AAe?$AAn?$AA?9?$AAc?$AAb@ 004736c0     libucrt:lcidtoname_downlevel.obj
 0002:000076d0       ??_C@_1M@BNFIGBKG@?$AAe?$AAn?$AA?9?$AAg?$AAb@ 004736d0     libucrt:lcidtoname_downlevel.obj
 0002:000076e0       ??_C@_1M@LKIFDIGP@?$AAe?$AAn?$AA?9?$AAi?$AAe@ 004736e0     libucrt:lcidtoname_downlevel.obj
 0002:000076f0       ??_C@_1M@PJKFGCCO@?$AAe?$AAn?$AA?9?$AAj?$AAm@ 004736f0     libucrt:lcidtoname_downlevel.obj
 0002:00007700       ??_C@_1M@KPPKEPBO@?$AAe?$AAn?$AA?9?$AAn?$AAz@ 00473700     libucrt:lcidtoname_downlevel.obj
 0002:00007710       ??_C@_1M@GMDGLDOB@?$AAe?$AAn?$AA?9?$AAp?$AAh@ 00473710     libucrt:lcidtoname_downlevel.obj
 0002:00007720       ??_C@_1M@ONGIBJNA@?$AAe?$AAn?$AA?9?$AAt?$AAt@ 00473720     libucrt:lcidtoname_downlevel.obj
 0002:00007730       ??_C@_1M@LLODPCMM@?$AAe?$AAn?$AA?9?$AAu?$AAs@ 00473730     libucrt:lcidtoname_downlevel.obj
 0002:00007740       ??_C@_1M@LAKFNPAN@?$AAe?$AAn?$AA?9?$AAz?$AAa@ 00473740     libucrt:lcidtoname_downlevel.obj
 0002:00007750       ??_C@_1M@MFNHNHEO@?$AAe?$AAn?$AA?9?$AAz?$AAw@ 00473750     libucrt:lcidtoname_downlevel.obj
 0002:00007760       ??_C@_1M@EJEINPHM@?$AAe?$AAs?$AA?9?$AAa?$AAr@ 00473760     libucrt:lcidtoname_downlevel.obj
 0002:00007770       ??_C@_1M@GNKPCCJA@?$AAe?$AAs?$AA?9?$AAb?$AAo@ 00473770     libucrt:lcidtoname_downlevel.obj
 0002:00007780       ??_C@_1M@LEEGFONL@?$AAe?$AAs?$AA?9?$AAc?$AAl@ 00473780     libucrt:lcidtoname_downlevel.obj
 0002:00007790       ??_C@_1M@KGPDPBDF@?$AAe?$AAs?$AA?9?$AAc?$AAo@ 00473790     libucrt:lcidtoname_downlevel.obj
 0002:000077a0       ??_C@_1M@EIAHOHH@?$AAe?$AAs?$AA?9?$AAc?$AAr@ 004737a0     libucrt:lcidtoname_downlevel.obj
 0002:000077b0       ??_C@_1M@LLPGMBIN@?$AAe?$AAs?$AA?9?$AAd?$AAo@ 004737b0     libucrt:lcidtoname_downlevel.obj
 0002:000077c0       ??_C@_1M@DKHMKNJA@?$AAe?$AAs?$AA?9?$AAe?$AAc@ 004737c0     libucrt:lcidtoname_downlevel.obj
 0002:000077d0       ??_C@_1M@GKGFPKAP@?$AAe?$AAs?$AA?9?$AAe?$AAs@ 004737d0     libucrt:lcidtoname_downlevel.obj
 0002:000077e0       ??_C@_1M@LKHKGDLN@?$AAe?$AAs?$AA?9?$AAg?$AAt@ 004737e0     libucrt:lcidtoname_downlevel.obj
 0002:000077f0       ??_C@_1M@HEIIGGJD@?$AAe?$AAs?$AA?9?$AAh?$AAn@ 004737f0     libucrt:lcidtoname_downlevel.obj
 0002:00007800       ??_C@_1M@FBDHPPGD@?$AAe?$AAs?$AA?9?$AAm?$AAx@ 00473800     libucrt:lcidtoname_downlevel.obj
 0002:00007810       ??_C@_1M@DPAGLNDH@?$AAe?$AAs?$AA?9?$AAn?$AAi@ 00473810     libucrt:lcidtoname_downlevel.obj
 0002:00007820       ??_C@_1M@MDGOPGDD@?$AAe?$AAs?$AA?9?$AAp?$AAa@ 00473820     libucrt:lcidtoname_downlevel.obj
 0002:00007830       ??_C@_1M@EMAMGBGE@?$AAe?$AAs?$AA?9?$AAp?$AAe@ 00473830     libucrt:lcidtoname_downlevel.obj
 0002:00007840       ??_C@_1M@IBMCAOEC@?$AAe?$AAs?$AA?9?$AAp?$AAr@ 00473840     libucrt:lcidtoname_downlevel.obj
 0002:00007850       ??_C@_1M@FGMDIJED@?$AAe?$AAs?$AA?9?$AAp?$AAy@ 00473850     libucrt:lcidtoname_downlevel.obj
 0002:00007860       ??_C@_1M@IIDEOLLL@?$AAe?$AAs?$AA?9?$AAs?$AAv@ 00473860     libucrt:lcidtoname_downlevel.obj
 0002:00007870       ??_C@_1M@GAOBIPA@?$AAe?$AAs?$AA?9?$AAu?$AAy@ 00473870     libucrt:lcidtoname_downlevel.obj
 0002:00007880       ??_C@_1M@JKFFICHJ@?$AAe?$AAs?$AA?9?$AAv?$AAe@ 00473880     libucrt:lcidtoname_downlevel.obj
 0002:00007890       ??_C@_1M@PNMLOJDF@?$AAe?$AAt?$AA?9?$AAe?$AAe@ 00473890     libucrt:lcidtoname_downlevel.obj
 0002:000078a0       ??_C@_1M@GHHLIKEI@?$AAe?$AAu?$AA?9?$AAe?$AAs@ 004738a0     libucrt:lcidtoname_downlevel.obj
 0002:000078b0       ??_C@_1M@PBNONODE@?$AAf?$AAa?$AA?9?$AAi?$AAr@ 004738b0     libucrt:lcidtoname_downlevel.obj
 0002:000078c0       ??_C@_1M@JEEHPMIL@?$AAf?$AAi?$AA?9?$AAf?$AAi@ 004738c0     libucrt:lcidtoname_downlevel.obj
 0002:000078d0       ??_C@_1M@LMDCNDBA@?$AAf?$AAo?$AA?9?$AAf?$AAo@ 004738d0     libucrt:lcidtoname_downlevel.obj
 0002:000078e0       ??_C@_1M@JKEOHLDK@?$AAf?$AAr?$AA?9?$AAb?$AAe@ 004738e0     libucrt:lcidtoname_downlevel.obj
 0002:000078f0       ??_C@_1M@NOHADPMI@?$AAf?$AAr?$AA?9?$AAc?$AAa@ 004738f0     libucrt:lcidtoname_downlevel.obj
 0002:00007900       ??_C@_1M@KDHIHAEC@?$AAf?$AAr?$AA?9?$AAc?$AAh@ 00473900     libucrt:lcidtoname_downlevel.obj
 0002:00007910       ??_C@_1M@MMBBFGAK@?$AAf?$AAr?$AA?9?$AAf?$AAr@ 00473910     libucrt:lcidtoname_downlevel.obj
 0002:00007920       ??_C@_1M@PAFNENNF@?$AAf?$AAr?$AA?9?$AAl?$AAu@ 00473920     libucrt:lcidtoname_downlevel.obj
 0002:00007930       ??_C@_1M@EOHDJGDD@?$AAf?$AAr?$AA?9?$AAm?$AAc@ 00473930     libucrt:lcidtoname_downlevel.obj
 0002:00007940       ??_C@_1M@FAPLLOPF@?$AAg?$AAl?$AA?9?$AAe?$AAs@ 00473940     libucrt:lcidtoname_downlevel.obj
 0002:00007950       ??_C@_1M@FOPBFLOO@?$AAg?$AAu?$AA?9?$AAi?$AAn@ 00473950     libucrt:lcidtoname_downlevel.obj
 0002:00007960       ??_C@_1M@KBMCINPM@?$AAh?$AAe?$AA?9?$AAi?$AAl@ 00473960     libucrt:lcidtoname_downlevel.obj
 0002:00007970       ??_C@_1M@BBPHKFPJ@?$AAh?$AAi?$AA?9?$AAi?$AAn@ 00473970     libucrt:lcidtoname_downlevel.obj
 0002:00007980       ??_C@_1M@PMBNDPHD@?$AAh?$AAr?$AA?9?$AAb?$AAa@ 00473980     libucrt:lcidtoname_downlevel.obj
 0002:00007990       ??_C@_1M@BPCKOEGE@?$AAh?$AAr?$AA?9?$AAh?$AAr@ 00473990     libucrt:lcidtoname_downlevel.obj
 0002:000079a0       ??_C@_1M@GACBMHKE@?$AAh?$AAu?$AA?9?$AAh?$AAu@ 004739a0     libucrt:lcidtoname_downlevel.obj
 0002:000079b0       ??_C@_1M@MILPAJJC@?$AAh?$AAy?$AA?9?$AAa?$AAm@ 004739b0     libucrt:lcidtoname_downlevel.obj
 0002:000079c0       ??_C@_1M@BABBICEC@?$AAi?$AAd?$AA?9?$AAi?$AAd@ 004739c0     libucrt:lcidtoname_downlevel.obj
 0002:000079d0       ??_C@_1M@BIKNHHPF@?$AAi?$AAs?$AA?9?$AAi?$AAs@ 004739d0     libucrt:lcidtoname_downlevel.obj
 0002:000079e0       ??_C@_1M@NMPCJPHE@?$AAi?$AAt?$AA?9?$AAc?$AAh@ 004739e0     libucrt:lcidtoname_downlevel.obj
 0002:000079f0       ??_C@_1M@GHKGFEDF@?$AAi?$AAt?$AA?9?$AAi?$AAt@ 004739f0     libucrt:lcidtoname_downlevel.obj
 0002:00007a00       ??_C@_1M@NIEJCJJA@?$AAj?$AAa?$AA?9?$AAj?$AAp@ 00473a00     libucrt:lcidtoname_downlevel.obj
 0002:00007a10       ??_C@_1M@JILFNBIM@?$AAk?$AAa?$AA?9?$AAg?$AAe@ 00473a10     libucrt:lcidtoname_downlevel.obj
 0002:00007a20       ??_C@_1M@PACPMGPH@?$AAk?$AAk?$AA?9?$AAk?$AAz@ 00473a20     libucrt:lcidtoname_downlevel.obj
 0002:00007a30       ??_C@_1M@IELFGMHA@?$AAk?$AAn?$AA?9?$AAi?$AAn@ 00473a30     libucrt:lcidtoname_downlevel.obj
 0002:00007a40       ??_C@_1O@IBBJHCH@?$AAk?$AAo?$AAk?$AA?9?$AAi?$AAn@ 00473a40     libucrt:lcidtoname_downlevel.obj
 0002:00007a50       ??_C@_1M@DMHAEOGC@?$AAk?$AAo?$AA?9?$AAk?$AAr@ 00473a50     libucrt:lcidtoname_downlevel.obj
 0002:00007a60       ??_C@_1M@HBAHBIGA@?$AAk?$AAy?$AA?9?$AAk?$AAg@ 00473a60     libucrt:lcidtoname_downlevel.obj
 0002:00007a70       ??_C@_1M@KPMILCJG@?$AAl?$AAt?$AA?9?$AAl?$AAt@ 00473a70     libucrt:lcidtoname_downlevel.obj
 0002:00007a80       ??_C@_1M@BDEKKCA@?$AAl?$AAv?$AA?9?$AAl?$AAv@ 00473a80     libucrt:lcidtoname_downlevel.obj
 0002:00007a90       ??_C@_1M@ELCKCCJJ@?$AAm?$AAi?$AA?9?$AAn?$AAz@ 00473a90     libucrt:lcidtoname_downlevel.obj
 0002:00007aa0       ??_C@_1M@CBOOLAPA@?$AAm?$AAk?$AA?9?$AAm?$AAk@ 00473aa0     libucrt:lcidtoname_downlevel.obj
 0002:00007ab0       ??_C@_1M@GPHNBJKN@?$AAm?$AAl?$AA?9?$AAi?$AAn@ 00473ab0     libucrt:lcidtoname_downlevel.obj
 0002:00007ac0       ??_C@_1M@PABJILIG@?$AAm?$AAn?$AA?9?$AAm?$AAn@ 00473ac0     libucrt:lcidtoname_downlevel.obj
 0002:00007ad0       ??_C@_1M@FGBKKIPG@?$AAm?$AAr?$AA?9?$AAi?$AAn@ 00473ad0     libucrt:lcidtoname_downlevel.obj
 0002:00007ae0       ??_C@_1M@NDBPDDAL@?$AAm?$AAs?$AA?9?$AAb?$AAn@ 00473ae0     libucrt:lcidtoname_downlevel.obj
 0002:00007af0       ??_C@_1M@OPIHOOPI@?$AAm?$AAs?$AA?9?$AAm?$AAy@ 00473af0     libucrt:lcidtoname_downlevel.obj
 0002:00007b00       ??_C@_1M@PPDBCNFM@?$AAm?$AAt?$AA?9?$AAm?$AAt@ 00473b00     libucrt:lcidtoname_downlevel.obj
 0002:00007b10       ??_C@_1M@KDJDKMDD@?$AAn?$AAb?$AA?9?$AAn?$AAo@ 00473b10     libucrt:lcidtoname_downlevel.obj
 0002:00007b20       ??_C@_1M@KFCFLMJP@?$AAn?$AAl?$AA?9?$AAb?$AAe@ 00473b20     libucrt:lcidtoname_downlevel.obj
 0002:00007b30       ??_C@_1M@KPOPDDGO@?$AAn?$AAl?$AA?9?$AAn?$AAl@ 00473b30     libucrt:lcidtoname_downlevel.obj
 0002:00007b40       ??_C@_1M@LJKPEMLN@?$AAn?$AAn?$AA?9?$AAn?$AAo@ 00473b40     libucrt:lcidtoname_downlevel.obj
 0002:00007b50       ??_C@_1M@BDGHHBFL@?$AAn?$AAs?$AA?9?$AAz?$AAa@ 00473b50     libucrt:lcidtoname_downlevel.obj
 0002:00007b60       ??_C@_1M@IDEHOAP@?$AAp?$AAa?$AA?9?$AAi?$AAn@ 00473b60     libucrt:lcidtoname_downlevel.obj
 0002:00007b70       ??_C@_1M@HDBKGOGH@?$AAp?$AAl?$AA?9?$AAp?$AAl@ 00473b70     libucrt:lcidtoname_downlevel.obj
 0002:00007b80       ??_C@_1M@LJLLCMEH@?$AAp?$AAt?$AA?9?$AAb?$AAr@ 00473b80     libucrt:lcidtoname_downlevel.obj
 0002:00007b90       ??_C@_1M@NCMONAAL@?$AAp?$AAt?$AA?9?$AAp?$AAt@ 00473b90     libucrt:lcidtoname_downlevel.obj
 0002:00007ba0       ??_C@_1O@EAKMAJDN@?$AAq?$AAu?$AAz?$AA?9?$AAb?$AAo@ 00473ba0     libucrt:lcidtoname_downlevel.obj
 0002:00007bb0       ??_C@_1O@BHHPIGDN@?$AAq?$AAu?$AAz?$AA?9?$AAe?$AAc@ 00473bb0     libucrt:lcidtoname_downlevel.obj
 0002:00007bc0       ??_C@_1O@GBAPEKMJ@?$AAq?$AAu?$AAz?$AA?9?$AAp?$AAe@ 00473bc0     libucrt:lcidtoname_downlevel.obj
 0002:00007bd0       ??_C@_1M@CLGLEFBO@?$AAr?$AAo?$AA?9?$AAr?$AAo@ 00473bd0     libucrt:lcidtoname_downlevel.obj
 0002:00007be0       ??_C@_1M@CEEDODME@?$AAr?$AAu?$AA?9?$AAr?$AAu@ 00473be0     libucrt:lcidtoname_downlevel.obj
 0002:00007bf0       ??_C@_1M@HPKKKMPP@?$AAs?$AAa?$AA?9?$AAi?$AAn@ 00473bf0     libucrt:lcidtoname_downlevel.obj
 0002:00007c00       ??_C@_1M@BKMAIGOJ@?$AAs?$AAe?$AA?9?$AAf?$AAi@ 00473c00     libucrt:lcidtoname_downlevel.obj
 0002:00007c10       ??_C@_1M@NDPIFLFI@?$AAs?$AAe?$AA?9?$AAn?$AAo@ 00473c10     libucrt:lcidtoname_downlevel.obj
 0002:00007c20       ??_C@_1M@DANKKHJ@?$AAs?$AAe?$AA?9?$AAs?$AAe@ 00473c20     libucrt:lcidtoname_downlevel.obj
 0002:00007c30       ??_C@_1M@PNBLONPJ@?$AAs?$AAk?$AA?9?$AAs?$AAk@ 00473c30     libucrt:lcidtoname_downlevel.obj
 0002:00007c40       ??_C@_1M@LFMODOAL@?$AAs?$AAl?$AA?9?$AAs?$AAi@ 00473c40     libucrt:lcidtoname_downlevel.obj
 0002:00007c50       ??_C@_1O@DFKOMPG@?$AAs?$AAm?$AAa?$AA?9?$AAn?$AAo@ 00473c50     libucrt:lcidtoname_downlevel.obj
 0002:00007c60       ??_C@_1O@NDKPBNNH@?$AAs?$AAm?$AAa?$AA?9?$AAs?$AAe@ 00473c60     libucrt:lcidtoname_downlevel.obj
 0002:00007c70       ??_C@_1O@PLLKBHAB@?$AAs?$AAm?$AAj?$AA?9?$AAn?$AAo@ 00473c70     libucrt:lcidtoname_downlevel.obj
 0002:00007c80       ??_C@_1O@CLEPOGCA@?$AAs?$AAm?$AAj?$AA?9?$AAs?$AAe@ 00473c80     libucrt:lcidtoname_downlevel.obj
 0002:00007c90       ??_C@_1O@DLGJGKMK@?$AAs?$AAm?$AAn?$AA?9?$AAf?$AAi@ 00473c90     libucrt:lcidtoname_downlevel.obj
 0002:00007ca0       ??_C@_1O@OJDJGAJC@?$AAs?$AAm?$AAs?$AA?9?$AAf?$AAi@ 00473ca0     libucrt:lcidtoname_downlevel.obj
 0002:00007cb0       ??_C@_1M@BOFOGHPB@?$AAs?$AAq?$AA?9?$AAa?$AAl@ 00473cb0     libucrt:lcidtoname_downlevel.obj
 0002:00007cc0       ??_C@_1BG@LJBBIPGB@?$AAs?$AAr?$AA?9?$AAb?$AAa?$AA?9?$AAc?$AAy?$AAr?$AAl@ 00473cc0     libucrt:lcidtoname_downlevel.obj
 0002:00007cdc       ??_C@_1BG@JLBENFOE@?$AAs?$AAr?$AA?9?$AAb?$AAa?$AA?9?$AAl?$AAa?$AAt?$AAn@ 00473cdc     libucrt:lcidtoname_downlevel.obj
 0002:00007cf8       ??_C@_1BG@KODPNHE@?$AAs?$AAr?$AA?9?$AAs?$AAp?$AA?9?$AAc?$AAy?$AAr?$AAl@ 00473cf8     libucrt:lcidtoname_downlevel.obj
 0002:00007d14       ??_C@_1BG@CIOGKHPB@?$AAs?$AAr?$AA?9?$AAs?$AAp?$AA?9?$AAl?$AAa?$AAt?$AAn@ 00473d14     libucrt:lcidtoname_downlevel.obj
 0002:00007d30       ??_C@_1M@NGFJLMAC@?$AAs?$AAv?$AA?9?$AAf?$AAi@ 00473d30     libucrt:lcidtoname_downlevel.obj
 0002:00007d40       ??_C@_1M@MPJEJAJC@?$AAs?$AAv?$AA?9?$AAs?$AAe@ 00473d40     libucrt:lcidtoname_downlevel.obj
 0002:00007d50       ??_C@_1M@MPNDHLFK@?$AAs?$AAw?$AA?9?$AAk?$AAe@ 00473d50     libucrt:lcidtoname_downlevel.obj
 0002:00007d60       ??_C@_1O@KOHBJJI@?$AAs?$AAy?$AAr?$AA?9?$AAs?$AAy@ 00473d60     libucrt:lcidtoname_downlevel.obj
 0002:00007d70       ??_C@_1M@LDCEFHA@?$AAt?$AAa?$AA?9?$AAi?$AAn@ 00473d70     libucrt:lcidtoname_downlevel.obj
 0002:00007d80       ??_C@_1M@CNJOFAK@?$AAt?$AAe?$AA?9?$AAi?$AAn@ 00473d80     libucrt:lcidtoname_downlevel.obj
 0002:00007d90       ??_C@_1M@GNAECACD@?$AAt?$AAh?$AA?9?$AAt?$AAh@ 00473d90     libucrt:lcidtoname_downlevel.obj
 0002:00007da0       ??_C@_1M@CHBIHOJO@?$AAt?$AAn?$AA?9?$AAz?$AAa@ 00473da0     libucrt:lcidtoname_downlevel.obj
 0002:00007db0       ??_C@_1M@GCCMIGPJ@?$AAt?$AAr?$AA?9?$AAt?$AAr@ 00473db0     libucrt:lcidtoname_downlevel.obj
 0002:00007dc0       ??_C@_1M@CELMCNBK@?$AAt?$AAt?$AA?9?$AAr?$AAu@ 00473dc0     libucrt:lcidtoname_downlevel.obj
 0002:00007dd0       ??_C@_1M@KLMCELGA@?$AAu?$AAk?$AA?9?$AAu?$AAa@ 00473dd0     libucrt:lcidtoname_downlevel.obj
 0002:00007de0       ??_C@_1M@EPAJJAJF@?$AAu?$AAr?$AA?9?$AAp?$AAk@ 00473de0     libucrt:lcidtoname_downlevel.obj
 0002:00007df0       ??_C@_1BG@GEGPMCDJ@?$AAu?$AAz?$AA?9?$AAu?$AAz?$AA?9?$AAc?$AAy?$AAr?$AAl@ 00473df0     libucrt:lcidtoname_downlevel.obj
 0002:00007e0c       ??_C@_1BG@EGGKJILM@?$AAu?$AAz?$AA?9?$AAu?$AAz?$AA?9?$AAl?$AAa?$AAt?$AAn@ 00473e0c     libucrt:lcidtoname_downlevel.obj
 0002:00007e28       ??_C@_1M@GFOCLFF@?$AAv?$AAi?$AA?9?$AAv?$AAn@ 00473e28     libucrt:lcidtoname_downlevel.obj
 0002:00007e38       ??_C@_1M@CPAMEDFI@?$AAx?$AAh?$AA?9?$AAz?$AAa@ 00473e38     libucrt:lcidtoname_downlevel.obj
